   1              		.syntax unified
   2              		.cpu cortex-m3
   3              		.fpu softvfp
   4              		.eabi_attribute 20, 1
   5              		.eabi_attribute 21, 1
   6              		.eabi_attribute 23, 3
   7              		.eabi_attribute 24, 1
   8              		.eabi_attribute 25, 1
   9              		.eabi_attribute 26, 1
  10              		.eabi_attribute 30, 4
  11              		.eabi_attribute 18, 4
  12              		.thumb
  13              		.file	"lpc17xx_pinsel.c"
  21              	.Ltext0:
  22              		.section	.text.PINSEL_SetPinFunc,"ax",%progbits
  23              		.align	2
  24              		.global	PINSEL_SetPinFunc
  25              		.thumb
  26              		.thumb_func
  28              	PINSEL_SetPinFunc:
  29              	.LFB31:
  30              		.file 1 "Libraries/NXP/Drivers/source/lpc17xx_pinsel.c"
   1:Libraries/NXP/Drivers/source/lpc17xx_pinsel.c **** /**
   2:Libraries/NXP/Drivers/source/lpc17xx_pinsel.c ****  * @file	: lpc17xx_pinsel.c
   3:Libraries/NXP/Drivers/source/lpc17xx_pinsel.c ****  * @brief	: Contains all functions support for Pin connect block firmware
   4:Libraries/NXP/Drivers/source/lpc17xx_pinsel.c ****  * 				library on LPC17xx
   5:Libraries/NXP/Drivers/source/lpc17xx_pinsel.c ****  * @version	: 1.0
   6:Libraries/NXP/Drivers/source/lpc17xx_pinsel.c ****  * @date	: 25. Feb. 2009
   7:Libraries/NXP/Drivers/source/lpc17xx_pinsel.c ****  * @author	: HoanTran
   8:Libraries/NXP/Drivers/source/lpc17xx_pinsel.c ****  **************************************************************************
   9:Libraries/NXP/Drivers/source/lpc17xx_pinsel.c ****  * Software that is described herein is for illustrative purposes only
  10:Libraries/NXP/Drivers/source/lpc17xx_pinsel.c ****  * which provides customers with programming information regarding the
  11:Libraries/NXP/Drivers/source/lpc17xx_pinsel.c ****  * products. This software is supplied "AS IS" without any warranties.
  12:Libraries/NXP/Drivers/source/lpc17xx_pinsel.c ****  * NXP Semiconductors assumes no responsibility or liability for the
  13:Libraries/NXP/Drivers/source/lpc17xx_pinsel.c ****  * use of the software, conveys no license or title under any patent,
  14:Libraries/NXP/Drivers/source/lpc17xx_pinsel.c ****  * copyright, or mask work right to the product. NXP Semiconductors
  15:Libraries/NXP/Drivers/source/lpc17xx_pinsel.c ****  * reserves the right to make changes in the software without
  16:Libraries/NXP/Drivers/source/lpc17xx_pinsel.c ****  * notification. NXP Semiconductors also make no representation or
  17:Libraries/NXP/Drivers/source/lpc17xx_pinsel.c ****  * warranty that such application will be suitable for the specified
  18:Libraries/NXP/Drivers/source/lpc17xx_pinsel.c ****  * use without further testing or modification.
  19:Libraries/NXP/Drivers/source/lpc17xx_pinsel.c ****  **********************************************************************/
  20:Libraries/NXP/Drivers/source/lpc17xx_pinsel.c **** 
  21:Libraries/NXP/Drivers/source/lpc17xx_pinsel.c **** /* Peripheral group ----------------------------------------------------------- */
  22:Libraries/NXP/Drivers/source/lpc17xx_pinsel.c **** /** @addtogroup PINSEL
  23:Libraries/NXP/Drivers/source/lpc17xx_pinsel.c ****  * @{
  24:Libraries/NXP/Drivers/source/lpc17xx_pinsel.c ****  */
  25:Libraries/NXP/Drivers/source/lpc17xx_pinsel.c **** 
  26:Libraries/NXP/Drivers/source/lpc17xx_pinsel.c **** /* Includes ------------------------------------------------------------------- */
  27:Libraries/NXP/Drivers/source/lpc17xx_pinsel.c **** #include "lpc17xx_pinsel.h"
  28:Libraries/NXP/Drivers/source/lpc17xx_pinsel.c **** 
  29:Libraries/NXP/Drivers/source/lpc17xx_pinsel.c **** 
  30:Libraries/NXP/Drivers/source/lpc17xx_pinsel.c **** /* Public Functions ----------------------------------------------------------- */
  31:Libraries/NXP/Drivers/source/lpc17xx_pinsel.c **** /** @addtogroup PINSEL_Public_Functions
  32:Libraries/NXP/Drivers/source/lpc17xx_pinsel.c ****  * @{
  33:Libraries/NXP/Drivers/source/lpc17xx_pinsel.c ****  */
  34:Libraries/NXP/Drivers/source/lpc17xx_pinsel.c **** 
  35:Libraries/NXP/Drivers/source/lpc17xx_pinsel.c **** /*********************************************************************//**
  36:Libraries/NXP/Drivers/source/lpc17xx_pinsel.c ****  * @brief 		Setup the pin selection function
  37:Libraries/NXP/Drivers/source/lpc17xx_pinsel.c ****  * @param[in]	portnum PORT number,
  38:Libraries/NXP/Drivers/source/lpc17xx_pinsel.c ****  * 				should be one of the following:
  39:Libraries/NXP/Drivers/source/lpc17xx_pinsel.c ****  * 				- PINSEL_PORT_0	: Port 0
  40:Libraries/NXP/Drivers/source/lpc17xx_pinsel.c ****  * 				- PINSEL_PORT_1	: Port 1
  41:Libraries/NXP/Drivers/source/lpc17xx_pinsel.c ****  * 				- PINSEL_PORT_2	: Port 2
  42:Libraries/NXP/Drivers/source/lpc17xx_pinsel.c ****  * 				- PINSEL_PORT_3	: Port 3
  43:Libraries/NXP/Drivers/source/lpc17xx_pinsel.c ****  *
  44:Libraries/NXP/Drivers/source/lpc17xx_pinsel.c ****  * @param[in]	pinnum	Pin number,
  45:Libraries/NXP/Drivers/source/lpc17xx_pinsel.c ****  * 				should be one of the following:
  46:Libraries/NXP/Drivers/source/lpc17xx_pinsel.c **** 				- PINSEL_PIN_0 : Pin 0
  47:Libraries/NXP/Drivers/source/lpc17xx_pinsel.c **** 				- PINSEL_PIN_1 : Pin 1
  48:Libraries/NXP/Drivers/source/lpc17xx_pinsel.c **** 				- PINSEL_PIN_2 : Pin 2
  49:Libraries/NXP/Drivers/source/lpc17xx_pinsel.c **** 				- PINSEL_PIN_3 : Pin 3
  50:Libraries/NXP/Drivers/source/lpc17xx_pinsel.c **** 				- PINSEL_PIN_4 : Pin 4
  51:Libraries/NXP/Drivers/source/lpc17xx_pinsel.c **** 				- PINSEL_PIN_5 : Pin 5
  52:Libraries/NXP/Drivers/source/lpc17xx_pinsel.c **** 				- PINSEL_PIN_6 : Pin 6
  53:Libraries/NXP/Drivers/source/lpc17xx_pinsel.c **** 				- PINSEL_PIN_7 : Pin 7
  54:Libraries/NXP/Drivers/source/lpc17xx_pinsel.c **** 				- PINSEL_PIN_8 : Pin 8
  55:Libraries/NXP/Drivers/source/lpc17xx_pinsel.c **** 				- PINSEL_PIN_9 : Pin 9
  56:Libraries/NXP/Drivers/source/lpc17xx_pinsel.c **** 				- PINSEL_PIN_10 : Pin 10
  57:Libraries/NXP/Drivers/source/lpc17xx_pinsel.c **** 				- PINSEL_PIN_11 : Pin 11
  58:Libraries/NXP/Drivers/source/lpc17xx_pinsel.c **** 				- PINSEL_PIN_12 : Pin 12
  59:Libraries/NXP/Drivers/source/lpc17xx_pinsel.c **** 				- PINSEL_PIN_13 : Pin 13
  60:Libraries/NXP/Drivers/source/lpc17xx_pinsel.c **** 				- PINSEL_PIN_14 : Pin 14
  61:Libraries/NXP/Drivers/source/lpc17xx_pinsel.c **** 				- PINSEL_PIN_15 : Pin 15
  62:Libraries/NXP/Drivers/source/lpc17xx_pinsel.c **** 				- PINSEL_PIN_16 : Pin 16
  63:Libraries/NXP/Drivers/source/lpc17xx_pinsel.c **** 				- PINSEL_PIN_17 : Pin 17
  64:Libraries/NXP/Drivers/source/lpc17xx_pinsel.c **** 				- PINSEL_PIN_18 : Pin 18
  65:Libraries/NXP/Drivers/source/lpc17xx_pinsel.c **** 				- PINSEL_PIN_19 : Pin 19
  66:Libraries/NXP/Drivers/source/lpc17xx_pinsel.c **** 				- PINSEL_PIN_20 : Pin 20
  67:Libraries/NXP/Drivers/source/lpc17xx_pinsel.c **** 				- PINSEL_PIN_21 : Pin 21
  68:Libraries/NXP/Drivers/source/lpc17xx_pinsel.c **** 				- PINSEL_PIN_22 : Pin 22
  69:Libraries/NXP/Drivers/source/lpc17xx_pinsel.c **** 				- PINSEL_PIN_23 : Pin 23
  70:Libraries/NXP/Drivers/source/lpc17xx_pinsel.c **** 				- PINSEL_PIN_24 : Pin 24
  71:Libraries/NXP/Drivers/source/lpc17xx_pinsel.c **** 				- PINSEL_PIN_25 : Pin 25
  72:Libraries/NXP/Drivers/source/lpc17xx_pinsel.c **** 				- PINSEL_PIN_26 : Pin 26
  73:Libraries/NXP/Drivers/source/lpc17xx_pinsel.c **** 				- PINSEL_PIN_27 : Pin 27
  74:Libraries/NXP/Drivers/source/lpc17xx_pinsel.c **** 				- PINSEL_PIN_28 : Pin 28
  75:Libraries/NXP/Drivers/source/lpc17xx_pinsel.c **** 				- PINSEL_PIN_29 : Pin 29
  76:Libraries/NXP/Drivers/source/lpc17xx_pinsel.c **** 				- PINSEL_PIN_30 : Pin 30
  77:Libraries/NXP/Drivers/source/lpc17xx_pinsel.c **** 				- PINSEL_PIN_31 : Pin 31
  78:Libraries/NXP/Drivers/source/lpc17xx_pinsel.c **** 
  79:Libraries/NXP/Drivers/source/lpc17xx_pinsel.c ****  * @param[in] 	funcnum Function number,
  80:Libraries/NXP/Drivers/source/lpc17xx_pinsel.c ****  * 				should be one of the following:
  81:Libraries/NXP/Drivers/source/lpc17xx_pinsel.c ****  *				- PINSEL_FUNC_0 : default function
  82:Libraries/NXP/Drivers/source/lpc17xx_pinsel.c ****  *				- PINSEL_FUNC_1 : first alternate function
  83:Libraries/NXP/Drivers/source/lpc17xx_pinsel.c ****  *				- PINSEL_FUNC_2 : second alternate function
  84:Libraries/NXP/Drivers/source/lpc17xx_pinsel.c ****  *				- PINSEL_FUNC_3 : third alternate function
  85:Libraries/NXP/Drivers/source/lpc17xx_pinsel.c ****  *
  86:Libraries/NXP/Drivers/source/lpc17xx_pinsel.c ****  * @return 		None
  87:Libraries/NXP/Drivers/source/lpc17xx_pinsel.c ****  **********************************************************************/
  88:Libraries/NXP/Drivers/source/lpc17xx_pinsel.c **** void PINSEL_SetPinFunc ( uint8_t portnum, uint8_t pinnum, uint8_t funcnum)
  89:Libraries/NXP/Drivers/source/lpc17xx_pinsel.c **** {
  31              	end = 0, frame = 0
  32              		@ frame_needed = 0, uses_anonymous_args = 0
  33              	.LVL0:
  34              		.loc 1 95 0
  90:Libraries/NXP/Drivers/source/lpc17xx_pinsel.c **** 	uint32_t pinnum_t = pinnum;
  91:Libraries/NXP/Drivers/source/lpc17xx_pinsel.c **** 	uint32_t pinselreg_idx = 2 * portnum;
  92:Libraries/NXP/Drivers/source/lpc17xx_pinsel.c **** 	// mthomas uint32_t *pPinCon = (uint32_t *)&LPC_PINCON->PINSEL0;
  93:Libraries/NXP/Drivers/source/lpc17xx_pinsel.c **** 	volatile uint32_t *pPinCon = &LPC_PINCON->PINSEL0;
  94:Libraries/NXP/Drivers/source/lpc17xx_pinsel.c **** 
  95:Libraries/NXP/Drivers/source/lpc17xx_pinsel.c **** 	if (pinnum_t >= 16) {
  35              		r1, #15
  36 0000 0F29     	.LVL1:
  37              		.loc 1 89 0
  38              		push	{lr}
  39 0002 00B5     	.LCFI0:
  40              		.loc 1 89 0
  41              		mov	ip, r2
  42 0004 9446     		.loc 1 91 0
  43              		lsl	lr, r0, #1
  44 0006 4FEA400E 	.LVL2:
  45              		.loc 1 95 0
  46              		bls	.L2
  47 000a 02D9     	.LVL3:
  48              		.loc 1 96 0
  96:Libraries/NXP/Drivers/source/lpc17xx_pinsel.c **** 		pinnum_t -= 16;
  49              	#16
  50 000c 1039     	.LVL4:
  51              		.loc 1 97 0
  97:Libraries/NXP/Drivers/source/lpc17xx_pinsel.c **** 		pinselreg_idx++;
  52              	d	lr, lr, #1
  53 000e 0EF1010E 	.LVL5:
  54              	.L2:
  55              		.loc 1 101 0
  98:Libraries/NXP/Drivers/source/lpc17xx_pinsel.c **** 	}
  99:Libraries/NXP/Drivers/source/lpc17xx_pinsel.c **** 	// mthomas *(uint32_t *)(pPinCon + pinselreg_idx) &= ~(0x03UL << (pinnum_t * 2));
 100:Libraries/NXP/Drivers/source/lpc17xx_pinsel.c **** 	// mthomas *(uint32_t *)(pPinCon + pinselreg_idx) |= ((uint32_t)funcnum) << (pinnum_t * 2);
 101:Libraries/NXP/Drivers/source/lpc17xx_pinsel.c **** 	*(pPinCon + pinselreg_idx) &= ~(0x03UL << (pinnum_t * 2));
  56              	s	r1, r1, #1
  57 0012 4900     	.LVL6:
  58              		movs	r3, #3
  59 0014 0323     		lsls	r3, r3, r1
  60 0016 8B40     		.loc 1 102 0
 102:Libraries/NXP/Drivers/source/lpc17xx_pinsel.c **** 	*(pPinCon + pinselreg_idx) |= ((uint32_t)funcnum) << (pinnum_t * 2);
  61              	r1, ip, r1
  62 0018 0CFA01F1 		.loc 1 101 0
  63              		ldr	r0, .L5
  64 001c 0648     	.LVL7:
  65              		ldr	r2, [r0, lr, lsl #2]
  66 001e 50F82E20 		bic	r2, r2, r3
  67 0022 22EA0302 		str	r2, [r0, lr, lsl #2]
  68 0026 40F82E20 		.loc 1 102 0
  69              		ldr	r3, [r0, lr, lsl #2]
  70 002a 50F82E30 		orrs	r3, r3, r1
  71 002e 0B43     		str	r3, [r0, lr, lsl #2]
  72 0030 40F82E30 		.loc 1 103 0
 103:Libraries/NXP/Drivers/source/lpc17xx_pinsel.c **** }
  73              	6:
  74 0034 00BD     		.align	2
  75              	.L5:
  76 0036 C046     		.word	1073922048
  77              	.LFE31:
  79              		.section	.text.PINSEL_ConfigTraceFunc,"ax",%progbits
  80              		.align	2
  81              		.global	PINSEL_ConfigTraceFunc
  82              		.thumb
  83              		.thumb_func
  85              	PINSEL_ConfigTraceFunc:
  86              	.LFB32:
  87              		.loc 1 117 0
  88              		@ args = 0, pretend = 0, frame = 0
 104:Libraries/NXP/Drivers/source/lpc17xx_pinsel.c **** 
 105:Libraries/NXP/Drivers/source/lpc17xx_pinsel.c **** 
 106:Libraries/NXP/Drivers/source/lpc17xx_pinsel.c **** 
 107:Libraries/NXP/Drivers/source/lpc17xx_pinsel.c **** /*********************************************************************//**
 108:Libraries/NXP/Drivers/source/lpc17xx_pinsel.c ****  * @brief 		Configure trace function
 109:Libraries/NXP/Drivers/source/lpc17xx_pinsel.c ****  * @param[in] 	NewState State of the Trace function configuration,
 110:Libraries/NXP/Drivers/source/lpc17xx_pinsel.c ****  * 				should be one of the following:
 111:Libraries/NXP/Drivers/source/lpc17xx_pinsel.c ****  * 				- ENABLE : Enable Trace Function
 112:Libraries/NXP/Drivers/source/lpc17xx_pinsel.c ****  * 				- DISABLE : Disable Trace Function
 113:Libraries/NXP/Drivers/source/lpc17xx_pinsel.c ****  *
 114:Libraries/NXP/Drivers/source/lpc17xx_pinsel.c ****  * @return 		None
 115:Libraries/NXP/Drivers/source/lpc17xx_pinsel.c ****  **********************************************************************/
 116:Libraries/NXP/Drivers/source/lpc17xx_pinsel.c **** void PINSEL_ConfigTraceFunc(FunctionalState NewState)
 117:Libraries/NXP/Drivers/source/lpc17xx_pinsel.c **** {
  89              	= 0, uses_anonymous_args = 0
  90              		@ link register save eliminated.
  91              	.LVL8:
  92              		.loc 1 118 0
  93              		cmp	r0, #1
 118:Libraries/NXP/Drivers/source/lpc17xx_pinsel.c **** 	if (NewState == ENABLE) {
  94              	 1 117 0
  95 0000 0128     		@ lr needed for prologue
  96              		.loc 1 118 0
  97              		bne	.L8
  98              		.loc 1 119 0
  99 0002 04D1     		ldr	r2, .L14
 119:Libraries/NXP/Drivers/source/lpc17xx_pinsel.c **** 		LPC_PINCON->PINSEL10 |= (0x01UL << 3);
 100              	3, [r2, #40]
 101 0004 054A     		orr	r3, r3, #8
 102 0006 936A     		b	.L13
 103 0008 43F00803 	.L8:
 104 000c 04E0     		.loc 1 120 0
 105              		cbnz	r0, .L12
 120:Libraries/NXP/Drivers/source/lpc17xx_pinsel.c **** 	} else if (NewState == DISABLE) {
 106              	1 121 0
 107 000e 20B9     		ldr	r2, .L14
 121:Libraries/NXP/Drivers/source/lpc17xx_pinsel.c **** 		LPC_PINCON->PINSEL10 &= ~(0x01UL << 3);
 108              	dr	r3, [r2, #40]
 109 0010 024A     		bic	r3, r3, #8
 110 0012 936A     	.L13:
 111 0014 23F00803 		str	r3, [r2, #40]
 112              	.L12:
 113 0018 9362     		.loc 1 123 0
 114              		bx	lr
 122:Libraries/NXP/Drivers/source/lpc17xx_pinsel.c **** 	}
 123:Libraries/NXP/Drivers/source/lpc17xx_pinsel.c **** }
 115              	.align	2
 116 001a 7047     	.L14:
 117              		.word	1073922048
 118              	.LFE32:
 120 001c 00C00240 		.section	.text.PINSEL_SetResistorMode,"ax",%progbits
 121              		.align	2
 122              		.global	PINSEL_SetResistorMode
 123              		.thumb
 124              		.thumb_func
 126              	PINSEL_SetResistorMode:
 127              	.LFB33:
 128              		.loc 1 179 0
 129              		@ args = 0, pretend = 0, frame = 0
 130              		@ frame_needed = 0, uses_anonymous_args = 0
 124:Libraries/NXP/Drivers/source/lpc17xx_pinsel.c **** 
 125:Libraries/NXP/Drivers/source/lpc17xx_pinsel.c **** 
 126:Libraries/NXP/Drivers/source/lpc17xx_pinsel.c **** 
 127:Libraries/NXP/Drivers/source/lpc17xx_pinsel.c **** /*********************************************************************//**
 128:Libraries/NXP/Drivers/source/lpc17xx_pinsel.c ****  * @brief 		Setup resistor mode for each pin
 129:Libraries/NXP/Drivers/source/lpc17xx_pinsel.c ****  * @param[in]	portnum PORT number,
 130:Libraries/NXP/Drivers/source/lpc17xx_pinsel.c ****  * 				should be one of the following:
 131:Libraries/NXP/Drivers/source/lpc17xx_pinsel.c ****  * 				- PINSEL_PORT_0	: Port 0
 132:Libraries/NXP/Drivers/source/lpc17xx_pinsel.c ****  * 				- PINSEL_PORT_1	: Port 1
 133:Libraries/NXP/Drivers/source/lpc17xx_pinsel.c ****  * 				- PINSEL_PORT_2	: Port 2
 134:Libraries/NXP/Drivers/source/lpc17xx_pinsel.c ****  * 				- PINSEL_PORT_3	: Port 3
 135:Libraries/NXP/Drivers/source/lpc17xx_pinsel.c ****  * @param[in]	pinnum	Pin number,
 136:Libraries/NXP/Drivers/source/lpc17xx_pinsel.c ****  * 				should be one of the following:
 137:Libraries/NXP/Drivers/source/lpc17xx_pinsel.c **** 				- PINSEL_PIN_0 : Pin 0
 138:Libraries/NXP/Drivers/source/lpc17xx_pinsel.c **** 				- PINSEL_PIN_1 : Pin 1
 139:Libraries/NXP/Drivers/source/lpc17xx_pinsel.c **** 				- PINSEL_PIN_2 : Pin 2
 140:Libraries/NXP/Drivers/source/lpc17xx_pinsel.c **** 				- PINSEL_PIN_3 : Pin 3
 141:Libraries/NXP/Drivers/source/lpc17xx_pinsel.c **** 				- PINSEL_PIN_4 : Pin 4
 142:Libraries/NXP/Drivers/source/lpc17xx_pinsel.c **** 				- PINSEL_PIN_5 : Pin 5
 143:Libraries/NXP/Drivers/source/lpc17xx_pinsel.c **** 				- PINSEL_PIN_6 : Pin 6
 144:Libraries/NXP/Drivers/source/lpc17xx_pinsel.c **** 				- PINSEL_PIN_7 : Pin 7
 145:Libraries/NXP/Drivers/source/lpc17xx_pinsel.c **** 				- PINSEL_PIN_8 : Pin 8
 146:Libraries/NXP/Drivers/source/lpc17xx_pinsel.c **** 				- PINSEL_PIN_9 : Pin 9
 147:Libraries/NXP/Drivers/source/lpc17xx_pinsel.c **** 				- PINSEL_PIN_10 : Pin 10
 148:Libraries/NXP/Drivers/source/lpc17xx_pinsel.c **** 				- PINSEL_PIN_11 : Pin 11
 149:Libraries/NXP/Drivers/source/lpc17xx_pinsel.c **** 				- PINSEL_PIN_12 : Pin 12
 150:Libraries/NXP/Drivers/source/lpc17xx_pinsel.c **** 				- PINSEL_PIN_13 : Pin 13
 151:Libraries/NXP/Drivers/source/lpc17xx_pinsel.c **** 				- PINSEL_PIN_14 : Pin 14
 152:Libraries/NXP/Drivers/source/lpc17xx_pinsel.c **** 				- PINSEL_PIN_15 : Pin 15
 153:Libraries/NXP/Drivers/source/lpc17xx_pinsel.c **** 				- PINSEL_PIN_16 : Pin 16
 154:Libraries/NXP/Drivers/source/lpc17xx_pinsel.c **** 				- PINSEL_PIN_17 : Pin 17
 155:Libraries/NXP/Drivers/source/lpc17xx_pinsel.c **** 				- PINSEL_PIN_18 : Pin 18
 156:Libraries/NXP/Drivers/source/lpc17xx_pinsel.c **** 				- PINSEL_PIN_19 : Pin 19
 157:Libraries/NXP/Drivers/source/lpc17xx_pinsel.c **** 				- PINSEL_PIN_20 : Pin 20
 158:Libraries/NXP/Drivers/source/lpc17xx_pinsel.c **** 				- PINSEL_PIN_21 : Pin 21
 159:Libraries/NXP/Drivers/source/lpc17xx_pinsel.c **** 				- PINSEL_PIN_22 : Pin 22
 160:Libraries/NXP/Drivers/source/lpc17xx_pinsel.c **** 				- PINSEL_PIN_23 : Pin 23
 161:Libraries/NXP/Drivers/source/lpc17xx_pinsel.c **** 				- PINSEL_PIN_24 : Pin 24
 162:Libraries/NXP/Drivers/source/lpc17xx_pinsel.c **** 				- PINSEL_PIN_25 : Pin 25
 163:Libraries/NXP/Drivers/source/lpc17xx_pinsel.c **** 				- PINSEL_PIN_26 : Pin 26
 164:Libraries/NXP/Drivers/source/lpc17xx_pinsel.c **** 				- PINSEL_PIN_27 : Pin 27
 165:Libraries/NXP/Drivers/source/lpc17xx_pinsel.c **** 				- PINSEL_PIN_28 : Pin 28
 166:Libraries/NXP/Drivers/source/lpc17xx_pinsel.c **** 				- PINSEL_PIN_29 : Pin 29
 167:Libraries/NXP/Drivers/source/lpc17xx_pinsel.c **** 				- PINSEL_PIN_30 : Pin 30
 168:Libraries/NXP/Drivers/source/lpc17xx_pinsel.c **** 				- PINSEL_PIN_31 : Pin 31
 169:Libraries/NXP/Drivers/source/lpc17xx_pinsel.c **** 
 170:Libraries/NXP/Drivers/source/lpc17xx_pinsel.c ****  * @param[in] 	modenum: Mode number,
 171:Libraries/NXP/Drivers/source/lpc17xx_pinsel.c ****  * 				should be one of the following:
 172:Libraries/NXP/Drivers/source/lpc17xx_pinsel.c **** 				- PINSEL_PINMODE_PULLUP	: Internal pull-up resistor
 173:Libraries/NXP/Drivers/source/lpc17xx_pinsel.c **** 				- PINSEL_PINMODE_TRISTATE : Tri-state
 174:Libraries/NXP/Drivers/source/lpc17xx_pinsel.c **** 				- PINSEL_PINMODE_PULLDOWN : Internal pull-down resistor
 175:Libraries/NXP/Drivers/source/lpc17xx_pinsel.c **** 
 176:Libraries/NXP/Drivers/source/lpc17xx_pinsel.c ****  * @return 		None
 177:Libraries/NXP/Drivers/source/lpc17xx_pinsel.c ****  **********************************************************************/
 178:Libraries/NXP/Drivers/source/lpc17xx_pinsel.c **** void PINSEL_SetResistorMode ( uint8_t portnum, uint8_t pinnum, uint8_t modenum)
 179:Libraries/NXP/Drivers/source/lpc17xx_pinsel.c **** {
 131              	85 0
 132              		cmp	r1, #15
 133              	.LVL10:
 134              		.loc 1 179 0
 180:Libraries/NXP/Drivers/source/lpc17xx_pinsel.c **** 	uint32_t pinnum_t = pinnum;
 181:Libraries/NXP/Drivers/source/lpc17xx_pinsel.c **** 	uint32_t pinmodereg_idx = 2 * portnum;
 182:Libraries/NXP/Drivers/source/lpc17xx_pinsel.c **** 	// mthomas uint32_t *pPinCon = (uint32_t *)&LPC_PINCON->PINMODE0;
 183:Libraries/NXP/Drivers/source/lpc17xx_pinsel.c **** 	volatile uint32_t *pPinCon = &LPC_PINCON->PINMODE0;
 184:Libraries/NXP/Drivers/source/lpc17xx_pinsel.c **** 
 185:Libraries/NXP/Drivers/source/lpc17xx_pinsel.c **** 	if (pinnum_t >= 16) {
 135              	h	{lr}
 136 0000 0F29     	.LCFI1:
 137              		.loc 1 179 0
 138              		mov	ip, r2
 139 0002 00B5     		.loc 1 181 0
 140              		lsl	lr, r0, #1
 141              	.LVL11:
 142 0004 9446     		.loc 1 185 0
 143              		bls	.L17
 144 0006 4FEA400E 	.LVL12:
 145              		.loc 1 186 0
 146              		subs	r1, r1, #16
 147 000a 02D9     	.LVL13:
 148              		.loc 1 187 0
 186:Libraries/NXP/Drivers/source/lpc17xx_pinsel.c **** 		pinnum_t -= 16;
 149              	1
 150 000c 1039     	.LVL14:
 151              	.L17:
 187:Libraries/NXP/Drivers/source/lpc17xx_pinsel.c **** 		pinmodereg_idx++ ;
 152              	oc 1 192 0
 153 000e 0EF1010E 		lsls	r1, r1, #1
 154              	.LVL15:
 155              		movs	r3, #3
 188:Libraries/NXP/Drivers/source/lpc17xx_pinsel.c **** 	}
 189:Libraries/NXP/Drivers/source/lpc17xx_pinsel.c **** 
 190:Libraries/NXP/Drivers/source/lpc17xx_pinsel.c **** 	// mthomas *(uint32_t *)(pPinCon + pinmodereg_idx) &= ~(0x03UL << (pinnum_t * 2));
 191:Libraries/NXP/Drivers/source/lpc17xx_pinsel.c **** 	// mthomas *(uint32_t *)(pPinCon + pinmodereg_idx) |= ((uint32_t)modenum) << (pinnum_t * 2);
 192:Libraries/NXP/Drivers/source/lpc17xx_pinsel.c **** 	*(pPinCon + pinmodereg_idx) &= ~(0x03UL << (pinnum_t * 2));
 156              	s	r3, r3, r1
 157 0012 4900     		.loc 1 193 0
 158              		lsl	r1, ip, r1
 159 0014 0323     		.loc 1 192 0
 160 0016 8B40     		ldr	r0, .L20
 193:Libraries/NXP/Drivers/source/lpc17xx_pinsel.c **** 	*(pPinCon + pinmodereg_idx) |= ((uint32_t)modenum) << (pinnum_t * 2);
 161              	6:
 162 0018 0CFA01F1 		ldr	r2, [r0, lr, lsl #2]
 163              		bic	r2, r2, r3
 164 001c 0648     		str	r2, [r0, lr, lsl #2]
 165              		.loc 1 193 0
 166 001e 50F82E20 		ldr	r3, [r0, lr, lsl #2]
 167 0022 22EA0302 		orrs	r3, r3, r1
 168 0026 40F82E20 		str	r3, [r0, lr, lsl #2]
 169              		.loc 1 194 0
 170 002a 50F82E30 		pop	{pc}
 171 002e 0B43     	.L21:
 172 0030 40F82E30 		.align	2
 194:Libraries/NXP/Drivers/source/lpc17xx_pinsel.c **** }
 173              		1073922112
 174 0034 00BD     	.LFE33:
 176 0036 C046     		.section	.text.PINSEL_SetOpenDrainMode,"ax",%progbits
 177              		.align	2
 178 0038 40C00240 		.global	PINSEL_SetOpenDrainMode
 179              		.thumb
 180              		.thumb_func
 182              	PINSEL_SetOpenDrainMode:
 183              	.LFB34:
 184              		.loc 1 250 0
 185              		@ args = 0, pretend = 0, frame = 0
 186              		@ frame_needed = 0, uses_anonymous_args = 0
 187              	.LVL17:
 188              		.loc 1 254 0
 195:Libraries/NXP/Drivers/source/lpc17xx_pinsel.c **** 
 196:Libraries/NXP/Drivers/source/lpc17xx_pinsel.c **** 
 197:Libraries/NXP/Drivers/source/lpc17xx_pinsel.c **** 
 198:Libraries/NXP/Drivers/source/lpc17xx_pinsel.c **** /*********************************************************************//**
 199:Libraries/NXP/Drivers/source/lpc17xx_pinsel.c ****  * @brief 		Setup Open drain mode for each pin
 200:Libraries/NXP/Drivers/source/lpc17xx_pinsel.c ****  * @param[in]	portnum PORT number,
 201:Libraries/NXP/Drivers/source/lpc17xx_pinsel.c ****  * 				should be one of the following:
 202:Libraries/NXP/Drivers/source/lpc17xx_pinsel.c ****  * 				- PINSEL_PORT_0	: Port 0
 203:Libraries/NXP/Drivers/source/lpc17xx_pinsel.c ****  * 				- PINSEL_PORT_1	: Port 1
 204:Libraries/NXP/Drivers/source/lpc17xx_pinsel.c ****  * 				- PINSEL_PORT_2	: Port 2
 205:Libraries/NXP/Drivers/source/lpc17xx_pinsel.c ****  * 				- PINSEL_PORT_3	: Port 3
 206:Libraries/NXP/Drivers/source/lpc17xx_pinsel.c ****  *
 207:Libraries/NXP/Drivers/source/lpc17xx_pinsel.c ****  * @param[in]	pinnum	Pin number,
 208:Libraries/NXP/Drivers/source/lpc17xx_pinsel.c ****  * 				should be one of the following:
 209:Libraries/NXP/Drivers/source/lpc17xx_pinsel.c **** 				- PINSEL_PIN_0 : Pin 0
 210:Libraries/NXP/Drivers/source/lpc17xx_pinsel.c **** 				- PINSEL_PIN_1 : Pin 1
 211:Libraries/NXP/Drivers/source/lpc17xx_pinsel.c **** 				- PINSEL_PIN_2 : Pin 2
 212:Libraries/NXP/Drivers/source/lpc17xx_pinsel.c **** 				- PINSEL_PIN_3 : Pin 3
 213:Libraries/NXP/Drivers/source/lpc17xx_pinsel.c **** 				- PINSEL_PIN_4 : Pin 4
 214:Libraries/NXP/Drivers/source/lpc17xx_pinsel.c **** 				- PINSEL_PIN_5 : Pin 5
 215:Libraries/NXP/Drivers/source/lpc17xx_pinsel.c **** 				- PINSEL_PIN_6 : Pin 6
 216:Libraries/NXP/Drivers/source/lpc17xx_pinsel.c **** 				- PINSEL_PIN_7 : Pin 7
 217:Libraries/NXP/Drivers/source/lpc17xx_pinsel.c **** 				- PINSEL_PIN_8 : Pin 8
 218:Libraries/NXP/Drivers/source/lpc17xx_pinsel.c **** 				- PINSEL_PIN_9 : Pin 9
 219:Libraries/NXP/Drivers/source/lpc17xx_pinsel.c **** 				- PINSEL_PIN_10 : Pin 10
 220:Libraries/NXP/Drivers/source/lpc17xx_pinsel.c **** 				- PINSEL_PIN_11 : Pin 11
 221:Libraries/NXP/Drivers/source/lpc17xx_pinsel.c **** 				- PINSEL_PIN_12 : Pin 12
 222:Libraries/NXP/Drivers/source/lpc17xx_pinsel.c **** 				- PINSEL_PIN_13 : Pin 13
 223:Libraries/NXP/Drivers/source/lpc17xx_pinsel.c **** 				- PINSEL_PIN_14 : Pin 14
 224:Libraries/NXP/Drivers/source/lpc17xx_pinsel.c **** 				- PINSEL_PIN_15 : Pin 15
 225:Libraries/NXP/Drivers/source/lpc17xx_pinsel.c **** 				- PINSEL_PIN_16 : Pin 16
 226:Libraries/NXP/Drivers/source/lpc17xx_pinsel.c **** 				- PINSEL_PIN_17 : Pin 17
 227:Libraries/NXP/Drivers/source/lpc17xx_pinsel.c **** 				- PINSEL_PIN_18 : Pin 18
 228:Libraries/NXP/Drivers/source/lpc17xx_pinsel.c **** 				- PINSEL_PIN_19 : Pin 19
 229:Libraries/NXP/Drivers/source/lpc17xx_pinsel.c **** 				- PINSEL_PIN_20 : Pin 20
 230:Libraries/NXP/Drivers/source/lpc17xx_pinsel.c **** 				- PINSEL_PIN_21 : Pin 21
 231:Libraries/NXP/Drivers/source/lpc17xx_pinsel.c **** 				- PINSEL_PIN_22 : Pin 22
 232:Libraries/NXP/Drivers/source/lpc17xx_pinsel.c **** 				- PINSEL_PIN_23 : Pin 23
 233:Libraries/NXP/Drivers/source/lpc17xx_pinsel.c **** 				- PINSEL_PIN_24 : Pin 24
 234:Libraries/NXP/Drivers/source/lpc17xx_pinsel.c **** 				- PINSEL_PIN_25 : Pin 25
 235:Libraries/NXP/Drivers/source/lpc17xx_pinsel.c **** 				- PINSEL_PIN_26 : Pin 26
 236:Libraries/NXP/Drivers/source/lpc17xx_pinsel.c **** 				- PINSEL_PIN_27 : Pin 27
 237:Libraries/NXP/Drivers/source/lpc17xx_pinsel.c **** 				- PINSEL_PIN_28 : Pin 28
 238:Libraries/NXP/Drivers/source/lpc17xx_pinsel.c **** 				- PINSEL_PIN_29 : Pin 29
 239:Libraries/NXP/Drivers/source/lpc17xx_pinsel.c **** 				- PINSEL_PIN_30 : Pin 30
 240:Libraries/NXP/Drivers/source/lpc17xx_pinsel.c **** 				- PINSEL_PIN_31 : Pin 31
 241:Libraries/NXP/Drivers/source/lpc17xx_pinsel.c **** 
 242:Libraries/NXP/Drivers/source/lpc17xx_pinsel.c ****  * @param[in]	modenum  Open drain mode number,
 243:Libraries/NXP/Drivers/source/lpc17xx_pinsel.c ****  * 				should be one of the following:
 244:Libraries/NXP/Drivers/source/lpc17xx_pinsel.c ****  * 				- PINSEL_PINMODE_NORMAL : Pin is in the normal (not open drain) mode
 245:Libraries/NXP/Drivers/source/lpc17xx_pinsel.c ****  * 				- PINSEL_PINMODE_OPENDRAIN : Pin is in the open drain mode
 246:Libraries/NXP/Drivers/source/lpc17xx_pinsel.c ****  *
 247:Libraries/NXP/Drivers/source/lpc17xx_pinsel.c ****  * @return 		None
 248:Libraries/NXP/Drivers/source/lpc17xx_pinsel.c ****  **********************************************************************/
 249:Libraries/NXP/Drivers/source/lpc17xx_pinsel.c **** void PINSEL_SetOpenDrainMode( uint8_t portnum, uint8_t pinnum, uint8_t modenum)
 250:Libraries/NXP/Drivers/source/lpc17xx_pinsel.c **** {
 189              	c 1 250 0
 190              		push	{lr}
 191              	.LCFI2:
 192              		.loc 1 250 0
 251:Libraries/NXP/Drivers/source/lpc17xx_pinsel.c **** 	// mthomas uint32_t *pPinCon = (uint32_t *)&LPC_PINCON->PINMODE_OD0;
 252:Libraries/NXP/Drivers/source/lpc17xx_pinsel.c **** 	volatile uint32_t *pPinCon = &LPC_PINCON->PINMODE_OD0;
 253:Libraries/NXP/Drivers/source/lpc17xx_pinsel.c **** 
 254:Libraries/NXP/Drivers/source/lpc17xx_pinsel.c **** 	if (modenum == PINSEL_PINMODE_OPENDRAIN){
 193              		lr, r1
 194 0000 012A     		mov	r1, r2
 195              	.LVL18:
 196 0002 00B5     		.loc 1 254 0
 197              		bne	.L23
 198              	.LVL19:
 199 0004 8E46     		.loc 1 256 0
 200 0006 1146     		lsl	r1, r1, lr
 201              	.LVL20:
 202              		ldr	r3, .L27
 203 0008 08D1     		ldr	r2, [r3, r0, lsl #2]
 204              	.LVL21:
 255:Libraries/NXP/Drivers/source/lpc17xx_pinsel.c **** 		// mthomas *(uint32_t *)(pPinCon + portnum) |= (0x01UL << pinnum);
 256:Libraries/NXP/Drivers/source/lpc17xx_pinsel.c **** 		*(pPinCon + portnum) |= (0x01UL << pinnum);
 205              	, r1
 206 000a 01FA0EF1 		str	r2, [r3, r0, lsl #2]
 207              		b	.L26
 208 000e 094B     	.LVL22:
 209 0010 53F82020 	.L23:
 210              		.loc 1 259 0
 211 0014 0A43     		movs	r3, #1
 212 0016 43F82020 		lsl	r3, r3, lr
 213 001a 09E0     		ldr	r1, .L27
 214              	.LVL23:
 215              		ldr	r2, [r1, r0, lsl #2]
 257:Libraries/NXP/Drivers/source/lpc17xx_pinsel.c **** 	} else {
 258:Libraries/NXP/Drivers/source/lpc17xx_pinsel.c **** 		// mthomas *(uint32_t *)(pPinCon + portnum) &= ~(0x01UL << pinnum);
 259:Libraries/NXP/Drivers/source/lpc17xx_pinsel.c **** 		*(pPinCon + portnum) &= ~(0x01UL << pinnum);
 216              	c	r2, r2, r3
 217 001c 0123     		str	r2, [r1, r0, lsl #2]
 218 001e 03FA0EF3 	.L26:
 219 0022 0449     		.loc 1 261 0
 220              		pop	{pc}
 221 0024 51F82020 	.L28:
 222              		.align	2
 223 0028 22EA0302 	.L27:
 224 002c 41F82020 		.word	1073922152
 225              	.LFE34:
 260:Libraries/NXP/Drivers/source/lpc17xx_pinsel.c **** 	}
 261:Libraries/NXP/Drivers/source/lpc17xx_pinsel.c **** }
 226              	SEL_SetOpenDrainMode, .-PINSEL_SetOpenDrainMode
 227 0030 00BD     		.section	.text.PINSEL_SetI2C0Pins,"ax",%progbits
 228              		.align	2
 229 0032 C046     		.global	PINSEL_SetI2C0Pins
 230              		.thumb
 231 0034 68C00240 		.thumb_func
 233              	PINSEL_SetI2C0Pins:
 234              	.LFB35:
 235              		.loc 1 279 0
 236              		@ args = 0, pretend = 0, frame = 0
 237              		@ frame_needed = 0, uses_anonymous_args = 0
 238              		@ link register save eliminated.
 239              	.LVL25:
 240              		.loc 1 289 0
 241              		ldr	r3, .L34
 262:Libraries/NXP/Drivers/source/lpc17xx_pinsel.c **** 
 263:Libraries/NXP/Drivers/source/lpc17xx_pinsel.c **** 
 264:Libraries/NXP/Drivers/source/lpc17xx_pinsel.c **** 
 265:Libraries/NXP/Drivers/source/lpc17xx_pinsel.c **** /*********************************************************************//**
 266:Libraries/NXP/Drivers/source/lpc17xx_pinsel.c ****  * @brief 		Setup I2C0 pins
 267:Libraries/NXP/Drivers/source/lpc17xx_pinsel.c ****  * @param[in]	i2cPinMode I2C pin mode,
 268:Libraries/NXP/Drivers/source/lpc17xx_pinsel.c ****  * 				should be one of the following:
 269:Libraries/NXP/Drivers/source/lpc17xx_pinsel.c ****  * 				- PINSEL_I2C_Normal_Mode : The standard drive mode
 270:Libraries/NXP/Drivers/source/lpc17xx_pinsel.c ****  * 				- PINSEL_I2C_Fast_Mode : Fast Mode Plus drive mode
 271:Libraries/NXP/Drivers/source/lpc17xx_pinsel.c ****  *
 272:Libraries/NXP/Drivers/source/lpc17xx_pinsel.c ****  * @param[in]	filterSlewRateEnable  should be:
 273:Libraries/NXP/Drivers/source/lpc17xx_pinsel.c ****  * 				- ENABLE: Enable filter and slew rate.
 274:Libraries/NXP/Drivers/source/lpc17xx_pinsel.c ****  * 				- DISABLE: Disable filter and slew rate.
 275:Libraries/NXP/Drivers/source/lpc17xx_pinsel.c ****  *
 276:Libraries/NXP/Drivers/source/lpc17xx_pinsel.c ****  * @return 		None
 277:Libraries/NXP/Drivers/source/lpc17xx_pinsel.c ****  **********************************************************************/
 278:Libraries/NXP/Drivers/source/lpc17xx_pinsel.c **** void PINSEL_SetI2C0Pins(uint8_t i2cPinMode, FunctionalState filterSlewRateEnable)
 279:Libraries/NXP/Drivers/source/lpc17xx_pinsel.c **** {
 242              	mp	r1, #0
 243              		ite	ne
 244              		movne	r1, #5
 245              		moveq	r1, #10
 246              	.LVL26:
 280:Libraries/NXP/Drivers/source/lpc17xx_pinsel.c **** 	uint32_t regVal;
 281:Libraries/NXP/Drivers/source/lpc17xx_pinsel.c **** 
 282:Libraries/NXP/Drivers/source/lpc17xx_pinsel.c **** 	if (i2cPinMode == PINSEL_I2C_Fast_Mode){
 283:Libraries/NXP/Drivers/source/lpc17xx_pinsel.c **** 		regVal = PINSEL_I2CPADCFG_SCLDRV0 | PINSEL_I2CPADCFG_SDADRV0;
 284:Libraries/NXP/Drivers/source/lpc17xx_pinsel.c **** 	}
 285:Libraries/NXP/Drivers/source/lpc17xx_pinsel.c **** 
 286:Libraries/NXP/Drivers/source/lpc17xx_pinsel.c **** 	if (filterSlewRateEnable == DISABLE){
 287:Libraries/NXP/Drivers/source/lpc17xx_pinsel.c **** 		regVal = PINSEL_I2CPADCFG_SCLI2C0 | PINSEL_I2CPADCFG_SDAI2C0;
 288:Libraries/NXP/Drivers/source/lpc17xx_pinsel.c **** 	}
 289:Libraries/NXP/Drivers/source/lpc17xx_pinsel.c **** 	LPC_PINCON->I2CPADCFG = regVal;
 247              	 1 279 0
 248 0000 034B     		@ lr needed for prologue
 249              		.loc 1 289 0
 250 0002 0029     		str	r1, [r3, #124]
 251 0004 14BF     		.loc 1 290 0
 252 0006 0521     		bx	lr
 253 0008 0A21     	.L35:
 254              		.align	2
 255              	.L34:
 256              		.word	1073922048
 257              	.LFE35:
 290:Libraries/NXP/Drivers/source/lpc17xx_pinsel.c **** }
 259              	ext.PINSEL_ConfigPin,"ax",%progbits
 260 000c 7047     		.align	2
 261              		.global	PINSEL_ConfigPin
 262 000e C046     		.thumb
 263              		.thumb_func
 265              	PINSEL_ConfigPin:
 266              	.LFB36:
 267              		.loc 1 302 0
 268              		@ args = 0, pretend = 0, frame = 0
 269              		@ frame_needed = 0, uses_anonymous_args = 0
 270              	.LVL27:
 271              		push	{r4, lr}
 272              	.LCFI3:
 273              		.loc 1 302 0
 274              		mov	r4, r0
 291:Libraries/NXP/Drivers/source/lpc17xx_pinsel.c **** 
 292:Libraries/NXP/Drivers/source/lpc17xx_pinsel.c **** 
 293:Libraries/NXP/Drivers/source/lpc17xx_pinsel.c **** /*********************************************************************//**
 294:Libraries/NXP/Drivers/source/lpc17xx_pinsel.c ****  * @brief 		Configure Pin corresponding to specified parameters passed
 295:Libraries/NXP/Drivers/source/lpc17xx_pinsel.c ****  * 				in the PinCfg
 296:Libraries/NXP/Drivers/source/lpc17xx_pinsel.c ****  * @param[in]	PinCfg	Pointer to a PINSEL_CFG_Type structure
 297:Libraries/NXP/Drivers/source/lpc17xx_pinsel.c ****  *                    that contains the configuration information for the
 298:Libraries/NXP/Drivers/source/lpc17xx_pinsel.c ****  *                    specified pin.
 299:Libraries/NXP/Drivers/source/lpc17xx_pinsel.c ****  * @return 		None
 300:Libraries/NXP/Drivers/source/lpc17xx_pinsel.c ****  **********************************************************************/
 301:Libraries/NXP/Drivers/source/lpc17xx_pinsel.c **** void PINSEL_ConfigPin(PINSEL_CFG_Type *PinCfg)
 302:Libraries/NXP/Drivers/source/lpc17xx_pinsel.c **** {
 275              	drb	r1, [r4, #1]	@ zero_extendqisi2
 276              		ldrb	r2, [r4, #2]	@ zero_extendqisi2
 277              		ldrb	r0, [r0, #0]	@ zero_extendqisi2
 278              	.LVL28:
 279 0000 10B5     		bl	PINSEL_SetPinFunc
 280              		.loc 1 304 0
 281              		ldrb	r0, [r4, #0]	@ zero_extendqisi2
 282 0002 0446     		ldrb	r1, [r4, #1]	@ zero_extendqisi2
 303:Libraries/NXP/Drivers/source/lpc17xx_pinsel.c **** 	PINSEL_SetPinFunc(PinCfg->Portnum, PinCfg->Pinnum, PinCfg->Funcnum);
 283              	, [r4, #3]	@ zero_extendqisi2
 284 0004 6178     		bl	PINSEL_SetResistorMode
 285 0006 A278     		.loc 1 305 0
 286 0008 0078     		ldrb	r0, [r4, #0]	@ zero_extendqisi2
 287              		ldrb	r1, [r4, #1]	@ zero_extendqisi2
 288 000a FFF7FEFF 		ldrb	r2, [r4, #4]	@ zero_extendqisi2
 304:Libraries/NXP/Drivers/source/lpc17xx_pinsel.c **** 	PINSEL_SetResistorMode(PinCfg->Portnum, PinCfg->Pinnum, PinCfg->Pinmode);
 289              	NSEL_SetOpenDrainMode
 290 000e 2078     		.loc 1 306 0
 291 0010 6178     		pop	{r4, pc}
 292 0012 E278     	.LFE36:
 305:Libraries/NXP/Drivers/source/lpc17xx_pinsel.c **** 	PINSEL_SetOpenDrainMode(PinCfg->Portnum, PinCfg->Pinnum, PinCfg->OpenDrain);
 294              	tion	.debug_frame,"",%progbits
 295 0018 2078     	.Lframe0:
 296 001a 6178     		.4byte	.LECIE0-.LSCIE0
 297 001c 2279     	.LSCIE0:
 298 001e FFF7FEFF 		.4byte	0xffffffff
 306:Libraries/NXP/Drivers/source/lpc17xx_pinsel.c **** }
 299              	e	0x1
 300 0022 10BD     		.ascii	"\000"
 301              		.uleb128 0x1
 302              		.sleb128 -4
 393              		.4byte	.LFE31