
FLASH_RUN/project.elf:     file format elf32-littlearm

Sections:
Idx Name          Size      VMA       LMA       File off  Algn
  0 .text         00006bd4  00000000  00000000  00008000  2**2
                  CONTENTS, ALLOC, LOAD, READONLY, CODE
  1 .ARM.exidx    00000008  00006bd4  00006bd4  0000ebd4  2**2
                  CONTENTS, ALLOC, LOAD, READONLY, DATA
  2 .text.align   00000004  00006bdc  00006bdc  0000ebdc  2**0
                  ALLOC, CODE
  3 .data         00000010  10000000  00006be0  00010000  2**2
                  CONTENTS, ALLOC, LOAD, DATA
  4 .bss          00002310  10000010  00006bf0  00010010  2**2
                  ALLOC
  5 .heap         00001000  10002320  10002320  00010010  2**3
                  CONTENTS
  6 .stack        00000300  10007d00  10007d00  00011010  2**3
                  CONTENTS
  7 .debug_aranges 00000b18  00000000  00000000  00011310  2**3
                  CONTENTS, READONLY, DEBUGGING
  8 .debug_pubnames 00001491  00000000  00000000  00011e28  2**0
                  CONTENTS, READONLY, DEBUGGING
  9 .debug_info   0000be55  00000000  00000000  000132b9  2**0
                  CONTENTS, READONLY, DEBUGGING
 10 .debug_abbrev 00002790  00000000  00000000  0001f10e  2**0
                  CONTENTS, READONLY, DEBUGGING
 11 .debug_line   00003ef2  00000000  00000000  0002189e  2**0
                  CONTENTS, READONLY, DEBUGGING
 12 .debug_frame  00001bc8  00000000  00000000  00025790  2**2
                  CONTENTS, READONLY, DEBUGGING
 13 .debug_str    0000347b  00000000  00000000  00027358  2**0
                  CONTENTS, READONLY, DEBUGGING
 14 .debug_loc    000075b0  00000000  00000000  0002a7d3  2**0
                  CONTENTS, READONLY, DEBUGGING
 15 .ARM.attributes 0000002f  00000000  00000000  00031d83  2**0
                  CONTENTS, READONLY
 16 .debug_ranges 000001b0  00000000  00000000  00031db8  2**3
                  CONTENTS, READONLY, DEBUGGING
 17 .comment      000003b2  00000000  00000000  00031f68  2**0
                  CONTENTS, READONLY
Disassembly of section .text:

00000000 <__cs3_interrupt_vector>:
       0:	00 80 00 10 c5 00 00 00 19 01 00 00 1b 01 00 00     ................
      10:	1d 01 00 00 1f 01 00 00 21 01 00 00 be 79 ff ef     ........!....y..
	...
      2c:	25 01 00 00 27 01 00 00 00 00 00 00 29 01 00 00     %...'.......)...
      3c:	61 02 00 00 2d 01 00 00 2d 01 00 00 2d 01 00 00     a...-...-...-...
      4c:	2d 01 00 00 2d 01 00 00 89 05 00 00 2d 01 00 00     -...-.......-...
      5c:	2d 01 00 00 2d 01 00 00 2d 01 00 00 2d 01 00 00     -...-...-...-...
      6c:	2d 01 00 00 2d 01 00 00 2d 01 00 00 2d 01 00 00     -...-...-...-...
      7c:	2d 01 00 00 2d 01 00 00 2d 01 00 00 2d 01 00 00     -...-...-...-...
      8c:	2d 01 00 00 2d 01 00 00 2d 01 00 00 2d 01 00 00     -...-...-...-...
      9c:	2d 01 00 00 55 52 00 00 2d 01 00 00 2d 01 00 00     -...UR..-...-...
      ac:	2d 01 00 00 2d 01 00 00 2d 01 00 00 2d 01 00 00     -...-...-...-...
      bc:	2d 01 00 00 2d 01 00 00                             -...-...

000000c4 <__cs3_reset>:
      c4:	480c      	ldr	r0, [pc, #48]	(f8 <__cs3_reset+0x34>)
      c6:	4780      	blx	r0
      c8:	490c      	ldr	r1, [pc, #48]	(fc <__cs3_reset+0x38>)
      ca:	4a0d      	ldr	r2, [pc, #52]	(100 <__cs3_reset+0x3c>)
      cc:	4b0d      	ldr	r3, [pc, #52]	(104 <__cs3_reset+0x40>)
      ce:	429a      	cmp	r2, r3
      d0:	bf3e      	ittt	cc
      d2:	f851 0b04 	ldrcc.w	r0, [r1], #4
      d6:	f842 0b04 	strcc.w	r0, [r2], #4
      da:	e7f8      	bcc.n	ce <__cs3_reset+0xa>
      dc:	2000      	movs	r0, #0
      de:	490a      	ldr	r1, [pc, #40]	(108 <__cs3_reset+0x44>)
      e0:	4a0a      	ldr	r2, [pc, #40]	(10c <__cs3_reset+0x48>)
      e2:	4291      	cmp	r1, r2
      e4:	bf3c      	itt	cc
      e6:	f841 0b04 	strcc.w	r0, [r1], #4
      ea:	e7fa      	bcc.n	e2 <__cs3_reset+0x1e>
      ec:	4808      	ldr	r0, [pc, #32]	(110 <__cs3_reset+0x4c>)
      ee:	4780      	blx	r0
      f0:	4808      	ldr	r0, [pc, #32]	(114 <__cs3_reset+0x50>)
      f2:	4700      	bx	r0
      f4:	e7fe      	b.n	f4 <__cs3_reset+0x30>
      f6:	0000      	.short	0x0000
      f8:	00000131 	.word	0x00000131
      fc:	00006be0 	.word	0x00006be0
     100:	10000000 	.word	0x10000000
     104:	10000010 	.word	0x10000010
     108:	10000010 	.word	0x10000010
     10c:	10002320 	.word	0x10002320
     110:	0000470d 	.word	0x0000470d
     114:	00000259 	.word	0x00000259

00000118 <NMI_Handler>:
     118:	e7fe      	b.n	118 <NMI_Handler>

0000011a <HardFault_Handler>:
     11a:	e7fe      	b.n	11a <HardFault_Handler>

0000011c <MemManage_Handler>:
     11c:	e7fe      	b.n	11c <MemManage_Handler>

0000011e <BusFault_Handler>:
     11e:	e7fe      	b.n	11e <BusFault_Handler>

00000120 <UsageFault_Handler>:
     120:	e7fe      	b.n	120 <UsageFault_Handler>
     122:	46c0      	nop			(mov r8, r8)

00000124 <SVC_Handler>:
     124:	e7fe      	b.n	124 <SVC_Handler>

00000126 <DebugMon_Handler>:
     126:	e7fe      	b.n	126 <DebugMon_Handler>

00000128 <PendSV_Handler>:
     128:	e7fe      	b.n	128 <PendSV_Handler>
     12a:	e7fe      	b.n	12a <PendSV_Handler+0x2>

0000012c <Default_Handler>:
     12c:	e7fe      	b.n	12c <Default_Handler>
	...

00000130 <startup_delay>:
     130:	b082      	sub	sp, #8
     132:	2300      	movs	r3, #0
     134:	e001      	b.n	13a <startup_delay+0xa>
     136:	9b01      	ldr	r3, [sp, #4]
     138:	3301      	adds	r3, #1
     13a:	9301      	str	r3, [sp, #4]
     13c:	9a01      	ldr	r2, [sp, #4]
     13e:	4b02      	ldr	r3, [pc, #8]	(148 <startup_delay+0x18>)
     140:	429a      	cmp	r2, r3
     142:	d9f8      	bls.n	136 <startup_delay+0x6>
     144:	b002      	add	sp, #8
     146:	4770      	bx	lr
     148:	0007a11f 	.word	0x0007a11f

0000014c <LED1_on>:
     14c:	b510      	push	{r4, lr}
     14e:	2001      	movs	r0, #1
     150:	f04f 7100 	mov.w	r1, #33554432	; 0x2000000
     154:	f004 fc9e 	bl	4a94 <FIO_ClearValue>
     158:	bd10      	pop	{r4, pc}
     15a:	46c0      	nop			(mov r8, r8)

0000015c <c_entry>:
     15c:	b570      	push	{r4, r5, r6, lr}
     15e:	4e32      	ldr	r6, [pc, #200]	(228 <c_entry+0xcc>)
     160:	b08a      	sub	sp, #40
     162:	f004 fb41 	bl	47e8 <NVIC_DeInit>
     166:	f004 fb57 	bl	4818 <NVIC_SCBDeInit>
     16a:	68f3      	ldr	r3, [r6, #12]
     16c:	f64f 02ff 	movw	r2, #63743	; 0xf8ff
     170:	ea03 0202 	and.w	r2, r3, r2
     174:	4b2d      	ldr	r3, [pc, #180]	(22c <c_entry+0xd0>)
     176:	2000      	movs	r0, #0
     178:	ea42 0303 	orr.w	r3, r2, r3
     17c:	60f3      	str	r3, [r6, #12]
     17e:	f004 fb67 	bl	4850 <NVIC_SetVTOR>
     182:	4b2b      	ldr	r3, [pc, #172]	(230 <c_entry+0xd4>)
     184:	466c      	mov	r4, sp
     186:	461d      	mov	r5, r3
     188:	cd0f      	ldmia	r5!, {r0, r1, r2, r3}
     18a:	c40f      	stmia	r4!, {r0, r1, r2, r3}
     18c:	e895 000f 	ldmia.w	r5, {r0, r1, r2, r3}
     190:	2500      	movs	r5, #0
     192:	e884 000f 	stmia.w	r4, {r0, r1, r2, r3}
     196:	2319      	movs	r3, #25
     198:	2401      	movs	r4, #1
     19a:	f10d 0023 	add.w	r0, sp, #35	; 0x23
     19e:	f88d 3024 	strb.w	r3, [sp, #36]
     1a2:	f88d 5025 	strb.w	r5, [sp, #37]
     1a6:	f88d 5027 	strb.w	r5, [sp, #39]
     1aa:	f88d 5026 	strb.w	r5, [sp, #38]
     1ae:	f88d 4023 	strb.w	r4, [sp, #35]
     1b2:	f004 fc19 	bl	49e8 <PINSEL_ConfigPin>
     1b6:	f04f 7100 	mov.w	r1, #33554432	; 0x2000000
     1ba:	4622      	mov	r2, r4
     1bc:	4620      	mov	r0, r4
     1be:	f004 fc43 	bl	4a48 <GPIO_SetDir>
     1c2:	4668      	mov	r0, sp
     1c4:	f001 fa40 	bl	1648 <rtc_cal_init>
     1c8:	f7ff ffc0 	bl	14c <LED1_on>
     1cc:	f000 f88c 	bl	2e8 <comm_init>
     1d0:	4818      	ldr	r0, [pc, #96]	(234 <c_entry+0xd8>)
     1d2:	f000 f9ab 	bl	52c <comm_puts>
     1d6:	4818      	ldr	r0, [pc, #96]	(238 <c_entry+0xdc>)
     1d8:	f000 f9a8 	bl	52c <comm_puts>
     1dc:	4a17      	ldr	r2, [pc, #92]	(23c <c_entry+0xe0>)
     1de:	4b18      	ldr	r3, [pc, #96]	(240 <c_entry+0xe4>)
     1e0:	4818      	ldr	r0, [pc, #96]	(244 <c_entry+0xe8>)
     1e2:	601a      	str	r2, [r3, #0]
     1e4:	4a18      	ldr	r2, [pc, #96]	(248 <c_entry+0xec>)
     1e6:	4b19      	ldr	r3, [pc, #100]	(24c <c_entry+0xf0>)
     1e8:	601a      	str	r2, [r3, #0]
     1ea:	f000 fa93 	bl	714 <xprintf>
     1ee:	4b18      	ldr	r3, [pc, #96]	(250 <c_entry+0xf4>)
     1f0:	f44f 727a 	mov.w	r2, #1000	; 0x3e8
     1f4:	681b      	ldr	r3, [r3, #0]
     1f6:	fbb3 f3f2 	udiv	r3, r3, r2
     1fa:	3b01      	subs	r3, #1
     1fc:	f1b3 7f80 	cmp.w	r3, #16777216	; 0x1000000
     200:	d20b      	bcs.n	21a <c_entry+0xbe>
     202:	4a14      	ldr	r2, [pc, #80]	(254 <c_entry+0xf8>)
     204:	f023 437f 	bic.w	r3, r3, #4278190080	; 0xff000000
     208:	3b01      	subs	r3, #1
     20a:	6053      	str	r3, [r2, #4]
     20c:	f06f 0307 	mvn.w	r3, #7	; 0x7
     210:	f886 3023 	strb.w	r3, [r6, #35]
     214:	330f      	adds	r3, #15
     216:	6095      	str	r5, [r2, #8]
     218:	6013      	str	r3, [r2, #0]
     21a:	f000 f859 	bl	2d0 <comm_txbusy>
     21e:	2800      	cmp	r0, #0
     220:	d1fb      	bne.n	21a <c_entry+0xbe>
     222:	f000 fbc7 	bl	9b4 <ff_test_term>
     226:	e7fe      	b.n	226 <c_entry+0xca>
     228:	e000ed00 	.word	0xe000ed00
     22c:	05fa0500 	.word	0x05fa0500
     230:	00005d68 	.word	0x00005d68
     234:	00005d00 	.word	0x00005d00
     238:	00005d2c 	.word	0x00005d2c
     23c:	00000525 	.word	0x00000525
     240:	100004bc 	.word	0x100004bc
     244:	00005d52 	.word	0x00005d52
     248:	0000042d 	.word	0x0000042d
     24c:	100004b8 	.word	0x100004b8
     250:	10000008 	.word	0x10000008
     254:	e000e010 	.word	0xe000e010

00000258 <main>:
     258:	b510      	push	{r4, lr}
     25a:	f7ff ff7f 	bl	15c <c_entry>
     25e:	bd10      	pop	{r4, pc}

00000260 <SysTick_Handler>:
     260:	4a16      	ldr	r2, [pc, #88]	(2bc <SysTick_Handler+0x5c>)
     262:	b510      	push	{r4, lr}
     264:	6813      	ldr	r3, [r2, #0]
     266:	3301      	adds	r3, #1
     268:	f5b3 7ffa 	cmp.w	r3, #500	; 0x1f4
     26c:	6013      	str	r3, [r2, #0]
     26e:	d913      	bls.n	298 <SysTick_Handler+0x38>
     270:	2300      	movs	r3, #0
     272:	6013      	str	r3, [r2, #0]
     274:	4b12      	ldr	r3, [pc, #72]	(2c0 <SysTick_Handler+0x60>)
     276:	681b      	ldr	r3, [r3, #0]
     278:	b113      	cbz	r3, 280 <SysTick_Handler+0x20>
     27a:	f7ff ff67 	bl	14c <LED1_on>
     27e:	e004      	b.n	28a <SysTick_Handler+0x2a>
     280:	2001      	movs	r0, #1
     282:	f04f 7100 	mov.w	r1, #33554432	; 0x2000000
     286:	f004 fc01 	bl	4a8c <FIO_SetValue>
     28a:	4a0d      	ldr	r2, [pc, #52]	(2c0 <SysTick_Handler+0x60>)
     28c:	6813      	ldr	r3, [r2, #0]
     28e:	f1d3 0301 	rsbs	r3, r3, #1	; 0x1
     292:	bf38      	it	cc
     294:	2300      	movcc	r3, #0
     296:	6013      	str	r3, [r2, #0]
     298:	4a0a      	ldr	r2, [pc, #40]	(2c4 <SysTick_Handler+0x64>)
     29a:	6813      	ldr	r3, [r2, #0]
     29c:	3301      	adds	r3, #1
     29e:	2b09      	cmp	r3, #9
     2a0:	6013      	str	r3, [r2, #0]
     2a2:	d903      	bls.n	2ac <SysTick_Handler+0x4c>
     2a4:	2300      	movs	r3, #0
     2a6:	6013      	str	r3, [r2, #0]
     2a8:	f003 fdd2 	bl	3e50 <disk_timerproc>
     2ac:	f000 fb16 	bl	8dc <ff_test_term_timer_callback>
     2b0:	4a05      	ldr	r2, [pc, #20]	(2c8 <SysTick_Handler+0x68>)
     2b2:	6813      	ldr	r3, [r2, #0]
     2b4:	3301      	adds	r3, #1
     2b6:	6013      	str	r3, [r2, #0]
     2b8:	bd10      	pop	{r4, pc}
     2ba:	46c0      	nop			(mov r8, r8)
     2bc:	10000018 	.word	0x10000018
     2c0:	10000010 	.word	0x10000010
     2c4:	10000014 	.word	0x10000014
     2c8:	100004b4 	.word	0x100004b4

000002cc <UART_IntErr>:
     2cc:	e7fe      	b.n	2cc <UART_IntErr>
     2ce:	46c0      	nop			(mov r8, r8)

000002d0 <comm_txbusy>:
     2d0:	b510      	push	{r4, lr}
     2d2:	4804      	ldr	r0, [pc, #16]	(2e4 <comm_txbusy+0x14>)
     2d4:	f004 fc96 	bl	4c04 <UART_CheckBusy>
     2d8:	2801      	cmp	r0, #1
     2da:	bf14      	ite	ne
     2dc:	2000      	movne	r0, #0
     2de:	2001      	moveq	r0, #1
     2e0:	bd10      	pop	{r4, pc}
     2e2:	46c0      	nop			(mov r8, r8)
     2e4:	4000c000 	.word	0x4000c000

000002e8 <comm_init>:
     2e8:	e92d 4770 	stmdb	sp!, {r4, r5, r6, r8, r9, sl, lr}
     2ec:	b087      	sub	sp, #28
     2ee:	f10d 040f 	add.w	r4, sp, #15	; 0xf
     2f2:	2600      	movs	r6, #0
     2f4:	f04f 0801 	mov.w	r8, #1	; 0x1
     2f8:	4620      	mov	r0, r4
     2fa:	f04f 0a02 	mov.w	sl, #2	; 0x2
     2fe:	ad01      	add	r5, sp, #4
     300:	f04f 0903 	mov.w	r9, #3	; 0x3
     304:	f88d 8011 	strb.w	r8, [sp, #17]
     308:	f88d 6013 	strb.w	r6, [sp, #19]
     30c:	f88d 6012 	strb.w	r6, [sp, #18]
     310:	f88d a010 	strb.w	sl, [sp, #16]
     314:	f88d 600f 	strb.w	r6, [sp, #15]
     318:	f004 fb66 	bl	49e8 <PINSEL_ConfigPin>
     31c:	4620      	mov	r0, r4
     31e:	4c22      	ldr	r4, [pc, #136]	(3a8 <__cs3_stack_size+0xa8>)
     320:	f88d 9010 	strb.w	r9, [sp, #16]
     324:	f004 fb60 	bl	49e8 <PINSEL_ConfigPin>
     328:	4628      	mov	r0, r5
     32a:	f004 fc2b 	bl	4b84 <UART_ConfigStructInit>
     32e:	f44f 33e1 	mov.w	r3, #115200	; 0x1c200
     332:	4629      	mov	r1, r5
     334:	4620      	mov	r0, r4
     336:	ad05      	add	r5, sp, #20
     338:	9301      	str	r3, [sp, #4]
     33a:	f004 fdcf 	bl	4edc <UART_Init>
     33e:	4628      	mov	r0, r5
     340:	f004 fc86 	bl	4c50 <UART_FIFOConfigStructInit>
     344:	4620      	mov	r0, r4
     346:	4629      	mov	r1, r5
     348:	f004 fc62 	bl	4c10 <UART_FIFOConfig>
     34c:	4620      	mov	r0, r4
     34e:	4631      	mov	r1, r6
     350:	4a16      	ldr	r2, [pc, #88]	(3ac <__cs3_stack_size+0xac>)
     352:	f004 fcff 	bl	4d54 <UART_SetupCbs>
     356:	4620      	mov	r0, r4
     358:	4641      	mov	r1, r8
     35a:	4a15      	ldr	r2, [pc, #84]	(3b0 <__cs3_stack_size+0xb0>)
     35c:	f004 fcfa 	bl	4d54 <UART_SetupCbs>
     360:	4a14      	ldr	r2, [pc, #80]	(3b4 <__cs3_stack_size+0xb4>)
     362:	4620      	mov	r0, r4
     364:	4649      	mov	r1, r9
     366:	f004 fcf5 	bl	4d54 <UART_SetupCbs>
     36a:	4620      	mov	r0, r4
     36c:	4641      	mov	r1, r8
     36e:	f004 fc77 	bl	4c60 <UART_TxCmd>
     372:	4620      	mov	r0, r4
     374:	4631      	mov	r1, r6
     376:	4642      	mov	r2, r8
     378:	f004 fc14 	bl	4ba4 <UART_IntConfig>
     37c:	4642      	mov	r2, r8
     37e:	4620      	mov	r0, r4
     380:	4651      	mov	r1, sl
     382:	f004 fc0f 	bl	4ba4 <UART_IntConfig>
     386:	4b0c      	ldr	r3, [pc, #48]	(3b8 <__cs3_stack_size+0xb8>)
     388:	4a0c      	ldr	r2, [pc, #48]	(3bc <__cs3_stack_size+0xbc>)
     38a:	701e      	strb	r6, [r3, #0]
     38c:	4b0c      	ldr	r3, [pc, #48]	(3c0 <__cs3_stack_size+0xc0>)
     38e:	609e      	str	r6, [r3, #8]
     390:	60de      	str	r6, [r3, #12]
     392:	601e      	str	r6, [r3, #0]
     394:	605e      	str	r6, [r3, #4]
     396:	2348      	movs	r3, #72
     398:	f882 3305 	strb.w	r3, [r2, #773]
     39c:	2320      	movs	r3, #32
     39e:	6013      	str	r3, [r2, #0]
     3a0:	b007      	add	sp, #28
     3a2:	e8bd 8770 	ldmia.w	sp!, {r4, r5, r6, r8, r9, sl, pc}
     3a6:	46c0      	nop			(mov r8, r8)
     3a8:	4000c000 	.word	0x4000c000
     3ac:	00000541 	.word	0x00000541
     3b0:	00000435 	.word	0x00000435
     3b4:	000002cd 	.word	0x000002cd
     3b8:	1000001c 	.word	0x1000001c
     3bc:	e000e100 	.word	0xe000e100
     3c0:	10000020 	.word	0x10000020

000003c4 <comm_get>:
     3c4:	b513      	push	{r0, r1, r4, lr}
     3c6:	2202      	movs	r2, #2
     3c8:	f10d 0006 	add.w	r0, sp, #6	; 0x6
     3cc:	4914      	ldr	r1, [pc, #80]	(420 <comm_get+0x5c>)
     3ce:	f005 fc67 	bl	5ca0 <memcpy>
     3d2:	2100      	movs	r1, #0
     3d4:	460a      	mov	r2, r1
     3d6:	4813      	ldr	r0, [pc, #76]	(424 <comm_get+0x60>)
     3d8:	f004 fbe4 	bl	4ba4 <UART_IntConfig>
     3dc:	4912      	ldr	r1, [pc, #72]	(428 <comm_get+0x64>)
     3de:	688a      	ldr	r2, [r1, #8]
     3e0:	68cb      	ldr	r3, [r1, #12]
     3e2:	f002 02ff 	and.w	r2, r2, #255	; 0xff
     3e6:	f003 03ff 	and.w	r3, r3, #255	; 0xff
     3ea:	429a      	cmp	r2, r3
     3ec:	d101      	bne.n	3f2 <comm_get+0x2e>
     3ee:	2400      	movs	r4, #0
     3f0:	e00b      	b.n	40a <comm_get+0x46>
     3f2:	68cb      	ldr	r3, [r1, #12]
     3f4:	2401      	movs	r4, #1
     3f6:	185b      	adds	r3, r3, r1
     3f8:	f893 3110 	ldrb.w	r3, [r3, #272]
     3fc:	f88d 3006 	strb.w	r3, [sp, #6]
     400:	68cb      	ldr	r3, [r1, #12]
     402:	3301      	adds	r3, #1
     404:	f003 03ff 	and.w	r3, r3, #255	; 0xff
     408:	60cb      	str	r3, [r1, #12]
     40a:	4806      	ldr	r0, [pc, #24]	(424 <comm_get+0x60>)
     40c:	2100      	movs	r1, #0
     40e:	2201      	movs	r2, #1
     410:	f004 fbc8 	bl	4ba4 <UART_IntConfig>
     414:	2c00      	cmp	r4, #0
     416:	d0dc      	beq.n	3d2 <comm_get+0xe>
     418:	f89d 0006 	ldrb.w	r0, [sp, #6]
     41c:	bd1c      	pop	{r2, r3, r4, pc}
     41e:	46c0      	nop			(mov r8, r8)
     420:	00005d88 	.word	0x00005d88
     424:	4000c000 	.word	0x4000c000
     428:	10000020 	.word	0x10000020

0000042c <xcomm_get>:
     42c:	b510      	push	{r4, lr}
     42e:	f7ff ffc9 	bl	3c4 <comm_get>
     432:	bd10      	pop	{r4, pc}

00000434 <UART_IntTransmit>:
     434:	b510      	push	{r4, lr}
     436:	481e      	ldr	r0, [pc, #120]	(4b0 <UART_IntTransmit+0x7c>)
     438:	2101      	movs	r1, #1
     43a:	2200      	movs	r2, #0
     43c:	f004 fbb2 	bl	4ba4 <UART_IntConfig>
     440:	481b      	ldr	r0, [pc, #108]	(4b0 <UART_IntTransmit+0x7c>)
     442:	f004 fbdf 	bl	4c04 <UART_CheckBusy>
     446:	2801      	cmp	r0, #1
     448:	d0fa      	beq.n	440 <UART_IntTransmit+0xc>
     44a:	e00e      	b.n	46a <UART_IntTransmit+0x36>
     44c:	6863      	ldr	r3, [r4, #4]
     44e:	f104 0110 	add.w	r1, r4, #16	; 0x10
     452:	1859      	adds	r1, r3, r1
     454:	4816      	ldr	r0, [pc, #88]	(4b0 <UART_IntTransmit+0x7c>)
     456:	2201      	movs	r2, #1
     458:	2300      	movs	r3, #0
     45a:	f004 fc0d 	bl	4c78 <UART_Send>
     45e:	b168      	cbz	r0, 47c <UART_IntTransmit+0x48>
     460:	6863      	ldr	r3, [r4, #4]
     462:	3301      	adds	r3, #1
     464:	f003 03ff 	and.w	r3, r3, #255	; 0xff
     468:	6063      	str	r3, [r4, #4]
     46a:	4c12      	ldr	r4, [pc, #72]	(4b4 <UART_IntTransmit+0x80>)
     46c:	6822      	ldr	r2, [r4, #0]
     46e:	6863      	ldr	r3, [r4, #4]
     470:	f002 02ff 	and.w	r2, r2, #255	; 0xff
     474:	f003 03ff 	and.w	r3, r3, #255	; 0xff
     478:	429a      	cmp	r2, r3
     47a:	d1e7      	bne.n	44c <UART_IntTransmit+0x18>
     47c:	4b0d      	ldr	r3, [pc, #52]	(4b4 <UART_IntTransmit+0x80>)
     47e:	4c0e      	ldr	r4, [pc, #56]	(4b8 <UART_IntTransmit+0x84>)
     480:	681a      	ldr	r2, [r3, #0]
     482:	685b      	ldr	r3, [r3, #4]
     484:	f002 02ff 	and.w	r2, r2, #255	; 0xff
     488:	f003 03ff 	and.w	r3, r3, #255	; 0xff
     48c:	429a      	cmp	r2, r3
     48e:	d107      	bne.n	4a0 <UART_IntTransmit+0x6c>
     490:	4807      	ldr	r0, [pc, #28]	(4b0 <UART_IntTransmit+0x7c>)
     492:	2101      	movs	r1, #1
     494:	2200      	movs	r2, #0
     496:	f004 fb85 	bl	4ba4 <UART_IntConfig>
     49a:	2300      	movs	r3, #0
     49c:	7023      	strb	r3, [r4, #0]
     49e:	e005      	b.n	4ac <UART_IntTransmit+0x78>
     4a0:	2101      	movs	r1, #1
     4a2:	7021      	strb	r1, [r4, #0]
     4a4:	4802      	ldr	r0, [pc, #8]	(4b0 <UART_IntTransmit+0x7c>)
     4a6:	460a      	mov	r2, r1
     4a8:	f004 fb7c 	bl	4ba4 <UART_IntConfig>
     4ac:	bd10      	pop	{r4, pc}
     4ae:	46c0      	nop			(mov r8, r8)
     4b0:	4000c000 	.word	0x4000c000
     4b4:	10000020 	.word	0x10000020
     4b8:	1000001c 	.word	0x1000001c

000004bc <comm_put>:
     4bc:	b513      	push	{r0, r1, r4, lr}
     4be:	f88d 0006 	strb.w	r0, [sp, #6]
     4c2:	2101      	movs	r1, #1
     4c4:	2200      	movs	r2, #0
     4c6:	4814      	ldr	r0, [pc, #80]	(518 <comm_put+0x5c>)
     4c8:	f004 fb6c 	bl	4ba4 <UART_IntConfig>
     4cc:	4913      	ldr	r1, [pc, #76]	(51c <comm_put+0x60>)
     4ce:	684a      	ldr	r2, [r1, #4]
     4d0:	680b      	ldr	r3, [r1, #0]
     4d2:	f002 02ff 	and.w	r2, r2, #255	; 0xff
     4d6:	3301      	adds	r3, #1
     4d8:	f003 03ff 	and.w	r3, r3, #255	; 0xff
     4dc:	429a      	cmp	r2, r3
     4de:	d101      	bne.n	4e4 <comm_put+0x28>
     4e0:	2400      	movs	r4, #0
     4e2:	e00a      	b.n	4fa <comm_put+0x3e>
     4e4:	680b      	ldr	r3, [r1, #0]
     4e6:	f89d 2006 	ldrb.w	r2, [sp, #6]
     4ea:	185b      	adds	r3, r3, r1
     4ec:	741a      	strb	r2, [r3, #16]
     4ee:	680b      	ldr	r3, [r1, #0]
     4f0:	2401      	movs	r4, #1
     4f2:	3301      	adds	r3, #1
     4f4:	f003 03ff 	and.w	r3, r3, #255	; 0xff
     4f8:	600b      	str	r3, [r1, #0]
     4fa:	4b09      	ldr	r3, [pc, #36]	(520 <comm_put+0x64>)
     4fc:	781b      	ldrb	r3, [r3, #0]
     4fe:	b913      	cbnz	r3, 506 <comm_put+0x4a>
     500:	f7ff ff98 	bl	434 <UART_IntTransmit>
     504:	e004      	b.n	510 <comm_put+0x54>
     506:	2101      	movs	r1, #1
     508:	4803      	ldr	r0, [pc, #12]	(518 <comm_put+0x5c>)
     50a:	460a      	mov	r2, r1
     50c:	f004 fb4a 	bl	4ba4 <UART_IntConfig>
     510:	2c00      	cmp	r4, #0
     512:	d0d6      	beq.n	4c2 <comm_put+0x6>
     514:	bd1c      	pop	{r2, r3, r4, pc}
     516:	46c0      	nop			(mov r8, r8)
     518:	4000c000 	.word	0x4000c000
     51c:	10000020 	.word	0x10000020
     520:	1000001c 	.word	0x1000001c

00000524 <xcomm_put>:
     524:	b510      	push	{r4, lr}
     526:	f7ff ffc9 	bl	4bc <comm_put>
     52a:	bd10      	pop	{r4, pc}

0000052c <comm_puts>:
     52c:	b510      	push	{r4, lr}
     52e:	4604      	mov	r4, r0
     530:	e001      	b.n	536 <comm_puts+0xa>
     532:	f7ff ffc3 	bl	4bc <comm_put>
     536:	f814 0b01 	ldrb.w	r0, [r4], #1
     53a:	2800      	cmp	r0, #0
     53c:	d1f9      	bne.n	532 <comm_puts+0x6>
     53e:	bd10      	pop	{r4, pc}

00000540 <UART_IntReceive>:
     540:	b507      	push	{r0, r1, r2, lr}
     542:	480f      	ldr	r0, [pc, #60]	(580 <UART_IntReceive+0x40>)
     544:	f10d 0107 	add.w	r1, sp, #7	; 0x7
     548:	2201      	movs	r2, #1
     54a:	2300      	movs	r3, #0
     54c:	f004 fbd6 	bl	4cfc <UART_Receive>
     550:	b1a8      	cbz	r0, 57e <UART_IntReceive+0x3e>
     552:	490c      	ldr	r1, [pc, #48]	(584 <UART_IntReceive+0x44>)
     554:	68ca      	ldr	r2, [r1, #12]
     556:	688b      	ldr	r3, [r1, #8]
     558:	f002 02ff 	and.w	r2, r2, #255	; 0xff
     55c:	3301      	adds	r3, #1
     55e:	f003 03ff 	and.w	r3, r3, #255	; 0xff
     562:	429a      	cmp	r2, r3
     564:	d0ed      	beq.n	542 <UART_IntReceive+0x2>
     566:	688b      	ldr	r3, [r1, #8]
     568:	f89d 2007 	ldrb.w	r2, [sp, #7]
     56c:	185b      	adds	r3, r3, r1
     56e:	f883 2110 	strb.w	r2, [r3, #272]
     572:	688b      	ldr	r3, [r1, #8]
     574:	3301      	adds	r3, #1
     576:	f003 03ff 	and.w	r3, r3, #255	; 0xff
     57a:	608b      	str	r3, [r1, #8]
     57c:	e7e1      	b.n	542 <UART_IntReceive+0x2>
     57e:	bd0e      	pop	{r1, r2, r3, pc}
     580:	4000c000 	.word	0x4000c000
     584:	10000020 	.word	0x10000020

00000588 <UART0_IRQHandler>:
     588:	b510      	push	{r4, lr}
     58a:	f004 fc09 	bl	4da0 <UART0_StdIntHandler>
     58e:	bd10      	pop	{r4, pc}

00000590 <xputc>:
     590:	280a      	cmp	r0, #10
     592:	b510      	push	{r4, lr}
     594:	4604      	mov	r4, r0
     596:	d103      	bne.n	5a0 <xputc+0x10>
     598:	4b04      	ldr	r3, [pc, #16]	(5ac <xputc+0x1c>)
     59a:	200d      	movs	r0, #13
     59c:	681b      	ldr	r3, [r3, #0]
     59e:	4798      	blx	r3
     5a0:	4b02      	ldr	r3, [pc, #8]	(5ac <xputc+0x1c>)
     5a2:	4620      	mov	r0, r4
     5a4:	681b      	ldr	r3, [r3, #0]
     5a6:	4798      	blx	r3
     5a8:	bd10      	pop	{r4, pc}
     5aa:	46c0      	nop			(mov r8, r8)
     5ac:	100004bc 	.word	0x100004bc

000005b0 <xputs>:
     5b0:	b510      	push	{r4, lr}
     5b2:	4604      	mov	r4, r0
     5b4:	e002      	b.n	5bc <xputs+0xc>
     5b6:	3401      	adds	r4, #1
     5b8:	f7ff ffea 	bl	590 <xputc>
     5bc:	7820      	ldrb	r0, [r4, #0]
     5be:	2800      	cmp	r0, #0
     5c0:	d1f9      	bne.n	5b6 <xputs+0x6>
     5c2:	bd10      	pop	{r4, pc}

000005c4 <xatoi>:
     5c4:	2300      	movs	r3, #0
     5c6:	b530      	push	{r4, r5, lr}
     5c8:	600b      	str	r3, [r1, #0]
     5ca:	460c      	mov	r4, r1
     5cc:	e001      	b.n	5d2 <xatoi+0xe>
     5ce:	1c4b      	adds	r3, r1, #1
     5d0:	6003      	str	r3, [r0, #0]
     5d2:	6801      	ldr	r1, [r0, #0]
     5d4:	780a      	ldrb	r2, [r1, #0]
     5d6:	2a20      	cmp	r2, #32
     5d8:	d0f9      	beq.n	5ce <xatoi+0xa>
     5da:	2a2d      	cmp	r2, #45
     5dc:	d001      	beq.n	5e2 <xatoi+0x1e>
     5de:	2500      	movs	r5, #0
     5e0:	e003      	b.n	5ea <xatoi+0x26>
     5e2:	1c4b      	adds	r3, r1, #1
     5e4:	6003      	str	r3, [r0, #0]
     5e6:	784a      	ldrb	r2, [r1, #1]
     5e8:	2501      	movs	r5, #1
     5ea:	2a30      	cmp	r2, #48
     5ec:	d11d      	bne.n	62a <xatoi+0x66>
     5ee:	6803      	ldr	r3, [r0, #0]
     5f0:	1c59      	adds	r1, r3, #1
     5f2:	6001      	str	r1, [r0, #0]
     5f4:	785a      	ldrb	r2, [r3, #1]
     5f6:	2a62      	cmp	r2, #98
     5f8:	d007      	beq.n	60a <xatoi+0x46>
     5fa:	2a78      	cmp	r2, #120
     5fc:	d10b      	bne.n	616 <xatoi+0x52>
     5fe:	1c4b      	adds	r3, r1, #1
     600:	6003      	str	r3, [r0, #0]
     602:	784a      	ldrb	r2, [r1, #1]
     604:	f04f 0e10 	mov.w	lr, #16	; 0x10
     608:	e016      	b.n	638 <xatoi+0x74>
     60a:	1c4b      	adds	r3, r1, #1
     60c:	6003      	str	r3, [r0, #0]
     60e:	784a      	ldrb	r2, [r1, #1]
     610:	f04f 0e02 	mov.w	lr, #2	; 0x2
     614:	e010      	b.n	638 <xatoi+0x74>
     616:	2a20      	cmp	r2, #32
     618:	d929      	bls.n	66e <xatoi+0xaa>
     61a:	f1a2 0330 	sub.w	r3, r2, #48	; 0x30
     61e:	b2db      	uxtb	r3, r3
     620:	2b09      	cmp	r3, #9
     622:	d826      	bhi.n	672 <xatoi+0xae>
     624:	f04f 0e08 	mov.w	lr, #8	; 0x8
     628:	e006      	b.n	638 <xatoi+0x74>
     62a:	f1a2 0330 	sub.w	r3, r2, #48	; 0x30
     62e:	b2db      	uxtb	r3, r3
     630:	2b09      	cmp	r3, #9
     632:	d81e      	bhi.n	672 <xatoi+0xae>
     634:	f04f 0e0a 	mov.w	lr, #10	; 0xa
     638:	2100      	movs	r1, #0
     63a:	e013      	b.n	664 <xatoi+0xa0>
     63c:	2a60      	cmp	r2, #96
     63e:	bf84      	itt	hi
     640:	f1a2 0320 	subhi.w	r3, r2, #32	; 0x20
     644:	b2da      	uxtbhi	r2, r3
     646:	f1a2 0330 	sub.w	r3, r2, #48	; 0x30
     64a:	b2db      	uxtb	r3, r3
     64c:	2b10      	cmp	r3, #16
     64e:	d901      	bls.n	654 <xatoi+0x90>
     650:	3b07      	subs	r3, #7
     652:	b2db      	uxtb	r3, r3
     654:	4573      	cmp	r3, lr
     656:	d20c      	bcs.n	672 <xatoi+0xae>
     658:	6802      	ldr	r2, [r0, #0]
     65a:	fb0e 3101 	mla	r1, lr, r1, r3
     65e:	1c53      	adds	r3, r2, #1
     660:	6003      	str	r3, [r0, #0]
     662:	7852      	ldrb	r2, [r2, #1]
     664:	2a20      	cmp	r2, #32
     666:	d8e9      	bhi.n	63c <xatoi+0x78>
     668:	b105      	cbz	r5, 66c <xatoi+0xa8>
     66a:	4249      	negs	r1, r1
     66c:	6021      	str	r1, [r4, #0]
     66e:	2001      	movs	r0, #1
     670:	e000      	b.n	674 <xatoi+0xb0>
     672:	2000      	movs	r0, #0
     674:	bd30      	pop	{r4, r5, pc}
     676:	46c0      	nop			(mov r8, r8)

00000678 <get_line>:
     678:	e92d 41f0 	stmdb	sp!, {r4, r5, r6, r7, r8, lr}
     67c:	4606      	mov	r6, r0
     67e:	460f      	mov	r7, r1
     680:	2500      	movs	r5, #0
     682:	4b12      	ldr	r3, [pc, #72]	(6cc <get_line+0x54>)
     684:	681b      	ldr	r3, [r3, #0]
     686:	4798      	blx	r3
     688:	4604      	mov	r4, r0
     68a:	b1e8      	cbz	r0, 6c8 <get_line+0x50>
     68c:	280d      	cmp	r0, #13
     68e:	d015      	beq.n	6bc <get_line+0x44>
     690:	2808      	cmp	r0, #8
     692:	d109      	bne.n	6a8 <get_line+0x30>
     694:	2d00      	cmp	r5, #0
     696:	d0f4      	beq.n	682 <get_line+0xa>
     698:	f7ff ff7a 	bl	590 <xputc>
     69c:	2020      	movs	r0, #32
     69e:	f7ff ff77 	bl	590 <xputc>
     6a2:	3d01      	subs	r5, #1
     6a4:	4620      	mov	r0, r4
     6a6:	e006      	b.n	6b6 <get_line+0x3e>
     6a8:	281f      	cmp	r0, #31
     6aa:	ddea      	ble.n	682 <get_line+0xa>
     6ac:	1e7b      	subs	r3, r7, #1
     6ae:	429d      	cmp	r5, r3
     6b0:	dae7      	bge.n	682 <get_line+0xa>
     6b2:	5570      	strb	r0, [r6, r5]
     6b4:	3501      	adds	r5, #1
     6b6:	f7ff ff6b 	bl	590 <xputc>
     6ba:	e7e2      	b.n	682 <get_line+0xa>
     6bc:	2300      	movs	r3, #0
     6be:	200a      	movs	r0, #10
     6c0:	5573      	strb	r3, [r6, r5]
     6c2:	f7ff ff65 	bl	590 <xputc>
     6c6:	2001      	movs	r0, #1
     6c8:	e8bd 81f0 	ldmia.w	sp!, {r4, r5, r6, r7, r8, pc}
     6cc:	100004b8 	.word	0x100004b8

000006d0 <xstrlen>:
     6d0:	4602      	mov	r2, r0
     6d2:	2000      	movs	r0, #0
     6d4:	e000      	b.n	6d8 <xstrlen+0x8>
     6d6:	3001      	adds	r0, #1
     6d8:	5c83      	ldrb	r3, [r0, r2]
     6da:	2b00      	cmp	r3, #0
     6dc:	d1fb      	bne.n	6d6 <xstrlen+0x6>
     6de:	4770      	bx	lr

000006e0 <xstrcpy>:
     6e0:	4602      	mov	r2, r0
     6e2:	f811 3b01 	ldrb.w	r3, [r1], #1
     6e6:	f802 3b01 	strb.w	r3, [r2], #1
     6ea:	2b00      	cmp	r3, #0
     6ec:	d1f9      	bne.n	6e2 <xstrcpy+0x2>
     6ee:	4770      	bx	lr

000006f0 <xmemset>:
     6f0:	2300      	movs	r3, #0
     6f2:	e001      	b.n	6f8 <xmemset+0x8>
     6f4:	5419      	strb	r1, [r3, r0]
     6f6:	3301      	adds	r3, #1
     6f8:	3a01      	subs	r2, #1
     6fa:	d2fb      	bcs.n	6f4 <xmemset+0x4>
     6fc:	4770      	bx	lr
     6fe:	46c0      	nop			(mov r8, r8)

00000700 <xstrchr>:
     700:	e003      	b.n	70a <xstrchr+0xa>
     702:	b2cb      	uxtb	r3, r1
     704:	429a      	cmp	r2, r3
     706:	d004      	beq.n	712 <xstrchr+0x12>
     708:	3001      	adds	r0, #1
     70a:	7802      	ldrb	r2, [r0, #0]
     70c:	2a00      	cmp	r2, #0
     70e:	d1f8      	bne.n	702 <xstrchr+0x2>
     710:	4610      	mov	r0, r2
     712:	4770      	bx	lr

00000714 <xprintf>:
     714:	b40f      	push	{r0, r1, r2, r3}
     716:	e92d 41f0 	stmdb	sp!, {r4, r5, r6, r7, r8, lr}
     71a:	b086      	sub	sp, #24
     71c:	ab0c      	add	r3, sp, #48
     71e:	f853 6b04 	ldr.w	r6, [r3], #4
     722:	9305      	str	r3, [sp, #20]
     724:	e0a7      	b.n	876 <xprintf+0x162>
     726:	3601      	adds	r6, #1
     728:	2825      	cmp	r0, #37
     72a:	d147      	bne.n	7bc <xprintf+0xa8>
     72c:	4633      	mov	r3, r6
     72e:	f813 0b01 	ldrb.w	r0, [r3], #1
     732:	2830      	cmp	r0, #48
     734:	d001      	beq.n	73a <xprintf+0x26>
     736:	2700      	movs	r7, #0
     738:	e002      	b.n	740 <xprintf+0x2c>
     73a:	7870      	ldrb	r0, [r6, #1]
     73c:	3301      	adds	r3, #1
     73e:	2701      	movs	r7, #1
     740:	461a      	mov	r2, r3
     742:	f04f 0800 	mov.w	r8, #0	; 0x0
     746:	e006      	b.n	756 <xprintf+0x42>
     748:	230a      	movs	r3, #10
     74a:	fb08 0303 	mla	r3, r8, r3, r0
     74e:	f812 0c01 	ldrb.w	r0, [r2, #-1]
     752:	f1a3 0830 	sub.w	r8, r3, #48	; 0x30
     756:	f1a0 0330 	sub.w	r3, r0, #48	; 0x30
     75a:	b2db      	uxtb	r3, r3
     75c:	4616      	mov	r6, r2
     75e:	3201      	adds	r2, #1
     760:	2b09      	cmp	r3, #9
     762:	d9f1      	bls.n	748 <xprintf+0x34>
     764:	286c      	cmp	r0, #108
     766:	d001      	beq.n	76c <xprintf+0x58>
     768:	284c      	cmp	r0, #76
     76a:	d103      	bne.n	774 <xprintf+0x60>
     76c:	7830      	ldrb	r0, [r6, #0]
     76e:	f047 0702 	orr.w	r7, r7, #2	; 0x2
     772:	4616      	mov	r6, r2
     774:	2800      	cmp	r0, #0
     776:	f000 8082 	beq.w	87e <xprintf+0x16a>
     77a:	2860      	cmp	r0, #96
     77c:	bf8a      	itet	hi
     77e:	f1a0 0320 	subhi.w	r3, r0, #32	; 0x20
     782:	4601      	movls	r1, r0
     784:	b2d9      	uxtbhi	r1, r3
     786:	294f      	cmp	r1, #79
     788:	d01e      	beq.n	7c8 <xprintf+0xb4>
     78a:	d806      	bhi.n	79a <xprintf+0x86>
     78c:	2943      	cmp	r1, #67
     78e:	d011      	beq.n	7b4 <xprintf+0xa0>
     790:	2944      	cmp	r1, #68
     792:	d01c      	beq.n	7ce <xprintf+0xba>
     794:	2942      	cmp	r1, #66
     796:	d014      	beq.n	7c2 <xprintf+0xae>
     798:	e010      	b.n	7bc <xprintf+0xa8>
     79a:	2955      	cmp	r1, #85
     79c:	d017      	beq.n	7ce <xprintf+0xba>
     79e:	2958      	cmp	r1, #88
     7a0:	d018      	beq.n	7d4 <xprintf+0xc0>
     7a2:	2953      	cmp	r1, #83
     7a4:	d10a      	bne.n	7bc <xprintf+0xa8>
     7a6:	9a05      	ldr	r2, [sp, #20]
     7a8:	1d13      	adds	r3, r2, #4
     7aa:	6810      	ldr	r0, [r2, #0]
     7ac:	9305      	str	r3, [sp, #20]
     7ae:	f7ff feff 	bl	5b0 <xputs>
     7b2:	e060      	b.n	876 <xprintf+0x162>
     7b4:	9a05      	ldr	r2, [sp, #20]
     7b6:	1d13      	adds	r3, r2, #4
     7b8:	7810      	ldrb	r0, [r2, #0]
     7ba:	9305      	str	r3, [sp, #20]
     7bc:	f7ff fee8 	bl	590 <xputc>
     7c0:	e059      	b.n	876 <xprintf+0x162>
     7c2:	f04f 0e02 	mov.w	lr, #2	; 0x2
     7c6:	e007      	b.n	7d8 <xprintf+0xc4>
     7c8:	f04f 0e08 	mov.w	lr, #8	; 0x8
     7cc:	e004      	b.n	7d8 <xprintf+0xc4>
     7ce:	f04f 0e0a 	mov.w	lr, #10	; 0xa
     7d2:	e001      	b.n	7d8 <xprintf+0xc4>
     7d4:	f04f 0e10 	mov.w	lr, #16	; 0x10
     7d8:	f017 0f02 	tst.w	r7, #2	; 0x2
     7dc:	d006      	beq.n	7ec <xprintf+0xd8>
     7de:	9a05      	ldr	r2, [sp, #20]
     7e0:	1d13      	adds	r3, r2, #4
     7e2:	2944      	cmp	r1, #68
     7e4:	9305      	str	r3, [sp, #20]
     7e6:	6814      	ldr	r4, [r2, #0]
     7e8:	d00b      	beq.n	802 <xprintf+0xee>
     7ea:	e00f      	b.n	80c <xprintf+0xf8>
     7ec:	2944      	cmp	r1, #68
     7ee:	9a05      	ldr	r2, [sp, #20]
     7f0:	d103      	bne.n	7fa <xprintf+0xe6>
     7f2:	1d13      	adds	r3, r2, #4
     7f4:	9305      	str	r3, [sp, #20]
     7f6:	6814      	ldr	r4, [r2, #0]
     7f8:	e003      	b.n	802 <xprintf+0xee>
     7fa:	1d13      	adds	r3, r2, #4
     7fc:	9305      	str	r3, [sp, #20]
     7fe:	6814      	ldr	r4, [r2, #0]
     800:	e004      	b.n	80c <xprintf+0xf8>
     802:	2c00      	cmp	r4, #0
     804:	da02      	bge.n	80c <xprintf+0xf8>
     806:	4264      	negs	r4, r4
     808:	f047 0704 	orr.w	r7, r7, #4	; 0x4
     80c:	2500      	movs	r5, #0
     80e:	fbb4 f1fe 	udiv	r1, r4, lr
     812:	fb0e 4311 	mls	r3, lr, r1, r4
     816:	b2da      	uxtb	r2, r3
     818:	2a09      	cmp	r2, #9
     81a:	460c      	mov	r4, r1
     81c:	d906      	bls.n	82c <xprintf+0x118>
     81e:	1dd3      	adds	r3, r2, #7
     820:	b2da      	uxtb	r2, r3
     822:	2878      	cmp	r0, #120
     824:	bf04      	itt	eq
     826:	f102 0320 	addeq.w	r3, r2, #32	; 0x20
     82a:	b2da      	uxtbeq	r2, r3
     82c:	3230      	adds	r2, #48
     82e:	ab01      	add	r3, sp, #4
     830:	54ea      	strb	r2, [r5, r3]
     832:	3501      	adds	r5, #1
     834:	b109      	cbz	r1, 83a <xprintf+0x126>
     836:	2d10      	cmp	r5, #16
     838:	d1e9      	bne.n	80e <xprintf+0xfa>
     83a:	f017 0f04 	tst.w	r7, #4	; 0x4
     83e:	d00f      	beq.n	860 <xprintf+0x14c>
     840:	ab06      	add	r3, sp, #24
     842:	195a      	adds	r2, r3, r5
     844:	232d      	movs	r3, #45
     846:	f802 3c14 	strb.w	r3, [r2, #-20]
     84a:	3501      	adds	r5, #1
     84c:	e008      	b.n	860 <xprintf+0x14c>
     84e:	f017 0f01 	tst.w	r7, #1	; 0x1
     852:	bf0c      	ite	eq
     854:	2020      	moveq	r0, #32
     856:	2030      	movne	r0, #48
     858:	f7ff fe9a 	bl	590 <xputc>
     85c:	f108 38ff 	add.w	r8, r8, #4294967295	; 0xffffffff
     860:	4545      	cmp	r5, r8
     862:	d3f4      	bcc.n	84e <xprintf+0x13a>
     864:	ab01      	add	r3, sp, #4
     866:	195c      	adds	r4, r3, r5
     868:	f814 0d01 	ldrb.w	r0, [r4, #-1]!
     86c:	f7ff fe90 	bl	590 <xputc>
     870:	ab01      	add	r3, sp, #4
     872:	429c      	cmp	r4, r3
     874:	d1f8      	bne.n	868 <xprintf+0x154>
     876:	7830      	ldrb	r0, [r6, #0]
     878:	2800      	cmp	r0, #0
     87a:	f47f af54 	bne.w	726 <xprintf+0x12>
     87e:	b006      	add	sp, #24
     880:	e8bd 41f0 	ldmia.w	sp!, {r4, r5, r6, r7, r8, lr}
     884:	b004      	add	sp, #16
     886:	4770      	bx	lr

00000888 <put_dump>:
     888:	b570      	push	{r4, r5, r6, lr}
     88a:	4606      	mov	r6, r0
     88c:	4811      	ldr	r0, [pc, #68]	(8d4 <put_dump+0x4c>)
     88e:	4615      	mov	r5, r2
     890:	2400      	movs	r4, #0
     892:	f7ff ff3f 	bl	714 <xprintf>
     896:	e004      	b.n	8a2 <put_dump+0x1a>
     898:	5da1      	ldrb	r1, [r4, r6]
     89a:	480f      	ldr	r0, [pc, #60]	(8d8 <put_dump+0x50>)
     89c:	f7ff ff3a 	bl	714 <xprintf>
     8a0:	3401      	adds	r4, #1
     8a2:	42ac      	cmp	r4, r5
     8a4:	dbf8      	blt.n	898 <put_dump+0x10>
     8a6:	2020      	movs	r0, #32
     8a8:	f7ff fe72 	bl	590 <xputc>
     8ac:	2400      	movs	r4, #0
     8ae:	e00a      	b.n	8c6 <put_dump+0x3e>
     8b0:	5da3      	ldrb	r3, [r4, r6]
     8b2:	3401      	adds	r4, #1
     8b4:	f1a3 0020 	sub.w	r0, r3, #32	; 0x20
     8b8:	b2c0      	uxtb	r0, r0
     8ba:	285e      	cmp	r0, #94
     8bc:	bf94      	ite	ls
     8be:	4618      	movls	r0, r3
     8c0:	202e      	movhi	r0, #46
     8c2:	f7ff fe65 	bl	590 <xputc>
     8c6:	42ac      	cmp	r4, r5
     8c8:	dbf2      	blt.n	8b0 <put_dump+0x28>
     8ca:	200a      	movs	r0, #10
     8cc:	f7ff fe60 	bl	590 <xputc>
     8d0:	bd70      	pop	{r4, r5, r6, pc}
     8d2:	46c0      	nop			(mov r8, r8)
     8d4:	00005d8a 	.word	0x00005d8a
     8d8:	00005d91 	.word	0x00005d91

000008dc <ff_test_term_timer_callback>:
     8dc:	4a02      	ldr	r2, [pc, #8]	(8e8 <ff_test_term_timer_callback+0xc>)
     8de:	6813      	ldr	r3, [r2, #0]
     8e0:	3301      	adds	r3, #1
     8e2:	6013      	str	r3, [r2, #0]
     8e4:	4770      	bx	lr
     8e6:	46c0      	nop			(mov r8, r8)
     8e8:	10000b70 	.word	0x10000b70

000008ec <put_rc>:
     8ec:	4601      	mov	r1, r0
     8ee:	b510      	push	{r4, lr}
     8f0:	4a08      	ldr	r2, [pc, #32]	(914 <put_rc+0x28>)
     8f2:	2000      	movs	r0, #0
     8f4:	e005      	b.n	902 <put_rc+0x16>
     8f6:	f812 3b01 	ldrb.w	r3, [r2], #1
     8fa:	2b00      	cmp	r3, #0
     8fc:	d1fb      	bne.n	8f6 <put_rc+0xa>
     8fe:	1c43      	adds	r3, r0, #1
     900:	b2d8      	uxtb	r0, r3
     902:	4288      	cmp	r0, r1
     904:	d002      	beq.n	90c <put_rc+0x20>
     906:	7813      	ldrb	r3, [r2, #0]
     908:	2b00      	cmp	r3, #0
     90a:	d1f4      	bne.n	8f6 <put_rc+0xa>
     90c:	4802      	ldr	r0, [pc, #8]	(918 <put_rc+0x2c>)
     90e:	f7ff ff01 	bl	714 <xprintf>
     912:	bd10      	pop	{r4, pc}
     914:	00005d97 	.word	0x00005d97
     918:	00005e68 	.word	0x00005e68

0000091c <scan_files>:
     91c:	b5f0      	push	{r4, r5, r6, r7, lr}
     91e:	4605      	mov	r5, r0
     920:	b08b      	sub	sp, #44
     922:	a801      	add	r0, sp, #4
     924:	4629      	mov	r1, r5
     926:	f002 fe45 	bl	35b4 <f_opendir>
     92a:	4603      	mov	r3, r0
     92c:	2800      	cmp	r0, #0
     92e:	d136      	bne.n	99e <scan_files+0x82>
     930:	4628      	mov	r0, r5
     932:	f7ff fecd 	bl	6d0 <xstrlen>
     936:	b2c6      	uxtb	r6, r0
     938:	e026      	b.n	988 <scan_files+0x6c>
     93a:	2a2e      	cmp	r2, #46
     93c:	d024      	beq.n	988 <scan_files+0x6c>
     93e:	69a1      	ldr	r1, [r4, #24]
     940:	f104 0209 	add.w	r2, r4, #9	; 0x9
     944:	780b      	ldrb	r3, [r1, #0]
     946:	2b00      	cmp	r3, #0
     948:	bf08      	it	eq
     94a:	4611      	moveq	r1, r2
     94c:	7a23      	ldrb	r3, [r4, #8]
     94e:	f013 0f10 	tst.w	r3, #16	; 0x10
     952:	d010      	beq.n	976 <scan_files+0x5a>
     954:	4a13      	ldr	r2, [pc, #76]	(9a4 <scan_files+0x88>)
     956:	19a8      	adds	r0, r5, r6
     958:	8813      	ldrh	r3, [r2, #0]
     95a:	3001      	adds	r0, #1
     95c:	3301      	adds	r3, #1
     95e:	8013      	strh	r3, [r2, #0]
     960:	232f      	movs	r3, #47
     962:	55ab      	strb	r3, [r5, r6]
     964:	f7ff febc 	bl	6e0 <xstrcpy>
     968:	4628      	mov	r0, r5
     96a:	f7ff ffd7 	bl	91c <scan_files>
     96e:	55af      	strb	r7, [r5, r6]
     970:	4603      	mov	r3, r0
     972:	b9a0      	cbnz	r0, 99e <scan_files+0x82>
     974:	e008      	b.n	988 <scan_files+0x6c>
     976:	4a0c      	ldr	r2, [pc, #48]	(9a8 <scan_files+0x8c>)
     978:	490c      	ldr	r1, [pc, #48]	(9ac <scan_files+0x90>)
     97a:	8813      	ldrh	r3, [r2, #0]
     97c:	3301      	adds	r3, #1
     97e:	8013      	strh	r3, [r2, #0]
     980:	680a      	ldr	r2, [r1, #0]
     982:	6823      	ldr	r3, [r4, #0]
     984:	189b      	adds	r3, r3, r2
     986:	600b      	str	r3, [r1, #0]
     988:	4c09      	ldr	r4, [pc, #36]	(9b0 <scan_files+0x94>)
     98a:	a801      	add	r0, sp, #4
     98c:	4621      	mov	r1, r4
     98e:	f002 fb13 	bl	2fb8 <f_readdir>
     992:	4603      	mov	r3, r0
     994:	4607      	mov	r7, r0
     996:	b910      	cbnz	r0, 99e <scan_files+0x82>
     998:	7a62      	ldrb	r2, [r4, #9]
     99a:	2a00      	cmp	r2, #0
     99c:	d1cd      	bne.n	93a <scan_files+0x1e>
     99e:	4618      	mov	r0, r3
     9a0:	b00b      	add	sp, #44
     9a2:	bdf0      	pop	{r4, r5, r6, r7, pc}
     9a4:	10000b6c 	.word	0x10000b6c
     9a8:	10000b6e 	.word	0x10000b6e
     9ac:	10001ebc 	.word	0x10001ebc
     9b0:	10000b4c 	.word	0x10000b4c

000009b4 <ff_test_term>:
     9b4:	e92d 4ff0 	stmdb	sp!, {r4, r5, r6, r7, r8, r9, sl, fp, lr}
     9b8:	48a0      	ldr	r0, [pc, #640]	(c3c <ff_test_term+0x288>)
     9ba:	b09f      	sub	sp, #124
     9bc:	f7ff fdf8 	bl	5b0 <xputs>
     9c0:	489f      	ldr	r0, [pc, #636]	(c40 <ff_test_term+0x28c>)
     9c2:	f7ff fdf5 	bl	5b0 <xputs>
     9c6:	489f      	ldr	r0, [pc, #636]	(c44 <ff_test_term+0x290>)
     9c8:	f240 41e4 	movw	r1, #1252	; 0x4e4
     9cc:	f7ff fea2 	bl	714 <xprintf>
     9d0:	4b9d      	ldr	r3, [pc, #628]	(c48 <ff_test_term+0x294>)
     9d2:	4a9e      	ldr	r2, [pc, #632]	(c4c <ff_test_term+0x298>)
     9d4:	f44f 5b80 	mov.w	fp, #4096	; 0x1000
     9d8:	619a      	str	r2, [r3, #24]
     9da:	f44f 7280 	mov.w	r2, #256	; 0x100
     9de:	61da      	str	r2, [r3, #28]
     9e0:	2200      	movs	r2, #0
     9e2:	920b      	str	r2, [sp, #44]
     9e4:	4c9a      	ldr	r4, [pc, #616]	(c50 <ff_test_term+0x29c>)
     9e6:	203e      	movs	r0, #62
     9e8:	f7ff fdd2 	bl	590 <xputc>
     9ec:	4620      	mov	r0, r4
     9ee:	f44f 6180 	mov.w	r1, #1024	; 0x400
     9f2:	f7ff fe41 	bl	678 <get_line>
     9f6:	4623      	mov	r3, r4
     9f8:	f813 2b01 	ldrb.w	r2, [r3], #1
     9fc:	2a66      	cmp	r2, #102
     9fe:	931c      	str	r3, [sp, #112]
     a00:	f000 81ed 	beq.w	dde <ff_test_term+0x42a>
     a04:	d807      	bhi.n	a16 <ff_test_term+0x62>
     a06:	2a62      	cmp	r2, #98
     a08:	f000 8105 	beq.w	c16 <ff_test_term+0x262>
     a0c:	2a64      	cmp	r2, #100
     a0e:	d037      	beq.n	a80 <ff_test_term+0xcc>
     a10:	2a3f      	cmp	r2, #63
     a12:	d006      	beq.n	a22 <ff_test_term+0x6e>
     a14:	e7e6      	b.n	9e4 <ff_test_term+0x30>
     a16:	2a6d      	cmp	r2, #109
     a18:	d007      	beq.n	a2a <ff_test_term+0x76>
     a1a:	2a74      	cmp	r2, #116
     a1c:	f000 856c 	beq.w	14f8 <Heap_Size+0x4f8>
     a20:	e7e0      	b.n	9e4 <ff_test_term+0x30>
     a22:	488c      	ldr	r0, [pc, #560]	(c54 <ff_test_term+0x2a0>)
     a24:	f7ff fdc4 	bl	5b0 <xputs>
     a28:	e7dc      	b.n	9e4 <ff_test_term+0x30>
     a2a:	7862      	ldrb	r2, [r4, #1]
     a2c:	1ca3      	adds	r3, r4, #2
     a2e:	2a64      	cmp	r2, #100
     a30:	931c      	str	r3, [sp, #112]
     a32:	d1d7      	bne.n	9e4 <ff_test_term+0x30>
     a34:	ac1c      	add	r4, sp, #112
     a36:	4620      	mov	r0, r4
     a38:	a91b      	add	r1, sp, #108
     a3a:	f7ff fdc3 	bl	5c4 <xatoi>
     a3e:	2800      	cmp	r0, #0
     a40:	d0d0      	beq.n	9e4 <ff_test_term+0x30>
     a42:	4620      	mov	r0, r4
     a44:	a91a      	add	r1, sp, #104
     a46:	f7ff fdbd 	bl	5c4 <xatoi>
     a4a:	b908      	cbnz	r0, a50 <ff_test_term+0x9c>
     a4c:	2380      	movs	r3, #128
     a4e:	931a      	str	r3, [sp, #104]
     a50:	9b1b      	ldr	r3, [sp, #108]
     a52:	931c      	str	r3, [sp, #112]
     a54:	e00a      	b.n	a6c <ff_test_term+0xb8>
     a56:	981c      	ldr	r0, [sp, #112]
     a58:	2210      	movs	r2, #16
     a5a:	4601      	mov	r1, r0
     a5c:	f7ff ff14 	bl	888 <put_dump>
     a60:	9b1c      	ldr	r3, [sp, #112]
     a62:	3310      	adds	r3, #16
     a64:	931c      	str	r3, [sp, #112]
     a66:	9b1a      	ldr	r3, [sp, #104]
     a68:	3b10      	subs	r3, #16
     a6a:	931a      	str	r3, [sp, #104]
     a6c:	9a1a      	ldr	r2, [sp, #104]
     a6e:	2a0f      	cmp	r2, #15
     a70:	dcf1      	bgt.n	a56 <ff_test_term+0xa2>
     a72:	2a00      	cmp	r2, #0
     a74:	d0b6      	beq.n	9e4 <ff_test_term+0x30>
     a76:	981c      	ldr	r0, [sp, #112]
     a78:	4601      	mov	r1, r0
     a7a:	f7ff ff05 	bl	888 <put_dump>
     a7e:	e7b1      	b.n	9e4 <ff_test_term+0x30>
     a80:	7861      	ldrb	r1, [r4, #1]
     a82:	1ca3      	adds	r3, r4, #2
     a84:	2969      	cmp	r1, #105
     a86:	931c      	str	r3, [sp, #112]
     a88:	d033      	beq.n	af2 <ff_test_term+0x13e>
     a8a:	2973      	cmp	r1, #115
     a8c:	d041      	beq.n	b12 <ff_test_term+0x15e>
     a8e:	2964      	cmp	r1, #100
     a90:	d1a8      	bne.n	9e4 <ff_test_term+0x30>
     a92:	ac1c      	add	r4, sp, #112
     a94:	4620      	mov	r0, r4
     a96:	a91b      	add	r1, sp, #108
     a98:	f7ff fd94 	bl	5c4 <xatoi>
     a9c:	2800      	cmp	r0, #0
     a9e:	d0a1      	beq.n	9e4 <ff_test_term+0x30>
     aa0:	4620      	mov	r0, r4
     aa2:	a91a      	add	r1, sp, #104
     aa4:	f7ff fd8e 	bl	5c4 <xatoi>
     aa8:	b908      	cbnz	r0, aae <ff_test_term+0xfa>
     aaa:	9b0b      	ldr	r3, [sp, #44]
     aac:	931a      	str	r3, [sp, #104]
     aae:	4e6a      	ldr	r6, [pc, #424]	(c58 <ff_test_term+0x2a4>)
     ab0:	f89d 006c 	ldrb.w	r0, [sp, #108]
     ab4:	4631      	mov	r1, r6
     ab6:	9a1a      	ldr	r2, [sp, #104]
     ab8:	2301      	movs	r3, #1
     aba:	f003 f973 	bl	3da4 <disk_read>
     abe:	4604      	mov	r4, r0
     ac0:	b110      	cbz	r0, ac8 <ff_test_term+0x114>
     ac2:	4866      	ldr	r0, [pc, #408]	(c5c <ff_test_term+0x2a8>)
     ac4:	4621      	mov	r1, r4
     ac6:	e021      	b.n	b0c <ff_test_term+0x158>
     ac8:	9d1a      	ldr	r5, [sp, #104]
     aca:	4865      	ldr	r0, [pc, #404]	(c60 <ff_test_term+0x2ac>)
     acc:	4629      	mov	r1, r5
     ace:	f7ff fe21 	bl	714 <xprintf>
     ad2:	961c      	str	r6, [sp, #112]
     ad4:	4621      	mov	r1, r4
     ad6:	2210      	movs	r2, #16
     ad8:	981c      	ldr	r0, [sp, #112]
     ada:	f7ff fed5 	bl	888 <put_dump>
     ade:	9b1c      	ldr	r3, [sp, #112]
     ae0:	3410      	adds	r4, #16
     ae2:	3310      	adds	r3, #16
     ae4:	f5b4 7f00 	cmp.w	r4, #512	; 0x200
     ae8:	931c      	str	r3, [sp, #112]
     aea:	d1f3      	bne.n	ad4 <ff_test_term+0x120>
     aec:	3501      	adds	r5, #1
     aee:	950b      	str	r5, [sp, #44]
     af0:	e778      	b.n	9e4 <ff_test_term+0x30>
     af2:	a81c      	add	r0, sp, #112
     af4:	a91b      	add	r1, sp, #108
     af6:	f7ff fd65 	bl	5c4 <xatoi>
     afa:	2800      	cmp	r0, #0
     afc:	f43f af72 	beq.w	9e4 <ff_test_term+0x30>
     b00:	f89d 006c 	ldrb.w	r0, [sp, #108]
     b04:	f003 f97c 	bl	3e00 <disk_initialize>
     b08:	b281      	uxth	r1, r0
     b0a:	4854      	ldr	r0, [pc, #336]	(c5c <ff_test_term+0x2a8>)
     b0c:	f7ff fe02 	bl	714 <xprintf>
     b10:	e768      	b.n	9e4 <ff_test_term+0x30>
     b12:	a81c      	add	r0, sp, #112
     b14:	a91b      	add	r1, sp, #108
     b16:	f7ff fd55 	bl	5c4 <xatoi>
     b1a:	2800      	cmp	r0, #0
     b1c:	f43f af62 	beq.w	9e4 <ff_test_term+0x30>
     b20:	ac1a      	add	r4, sp, #104
     b22:	f89d 006c 	ldrb.w	r0, [sp, #108]
     b26:	2101      	movs	r1, #1
     b28:	4622      	mov	r2, r4
     b2a:	f003 f8ef 	bl	3d0c <disk_ioctl>
     b2e:	b918      	cbnz	r0, b38 <ff_test_term+0x184>
     b30:	484c      	ldr	r0, [pc, #304]	(c64 <ff_test_term+0x2b0>)
     b32:	991a      	ldr	r1, [sp, #104]
     b34:	f7ff fdee 	bl	714 <xprintf>
     b38:	f89d 006c 	ldrb.w	r0, [sp, #108]
     b3c:	2102      	movs	r1, #2
     b3e:	aa1d      	add	r2, sp, #116
     b40:	f003 f8e4 	bl	3d0c <disk_ioctl>
     b44:	b920      	cbnz	r0, b50 <ff_test_term+0x19c>
     b46:	4848      	ldr	r0, [pc, #288]	(c68 <ff_test_term+0x2b4>)
     b48:	f8bd 1074 	ldrh.w	r1, [sp, #116]
     b4c:	f7ff fde2 	bl	714 <xprintf>
     b50:	f89d 006c 	ldrb.w	r0, [sp, #108]
     b54:	2103      	movs	r1, #3
     b56:	4622      	mov	r2, r4
     b58:	f003 f8d8 	bl	3d0c <disk_ioctl>
     b5c:	b918      	cbnz	r0, b66 <ff_test_term+0x1b2>
     b5e:	4843      	ldr	r0, [pc, #268]	(c6c <ff_test_term+0x2b8>)
     b60:	991a      	ldr	r1, [sp, #104]
     b62:	f7ff fdd7 	bl	714 <xprintf>
     b66:	f89d 006c 	ldrb.w	r0, [sp, #108]
     b6a:	210a      	movs	r1, #10
     b6c:	f10d 0277 	add.w	r2, sp, #119	; 0x77
     b70:	f003 f8cc 	bl	3d0c <disk_ioctl>
     b74:	b920      	cbnz	r0, b80 <ff_test_term+0x1cc>
     b76:	483e      	ldr	r0, [pc, #248]	(c70 <ff_test_term+0x2bc>)
     b78:	f89d 1077 	ldrb.w	r1, [sp, #119]
     b7c:	f7ff fdca 	bl	714 <xprintf>
     b80:	f89d 006c 	ldrb.w	r0, [sp, #108]
     b84:	210b      	movs	r1, #11
     b86:	4a34      	ldr	r2, [pc, #208]	(c58 <ff_test_term+0x2a4>)
     b88:	f003 f8c0 	bl	3d0c <disk_ioctl>
     b8c:	4604      	mov	r4, r0
     b8e:	b938      	cbnz	r0, ba0 <ff_test_term+0x1ec>
     b90:	4838      	ldr	r0, [pc, #224]	(c74 <ff_test_term+0x2c0>)
     b92:	f7ff fd0d 	bl	5b0 <xputs>
     b96:	4830      	ldr	r0, [pc, #192]	(c58 <ff_test_term+0x2a4>)
     b98:	4621      	mov	r1, r4
     b9a:	2210      	movs	r2, #16
     b9c:	f7ff fe74 	bl	888 <put_dump>
     ba0:	f89d 006c 	ldrb.w	r0, [sp, #108]
     ba4:	210c      	movs	r1, #12
     ba6:	4a2c      	ldr	r2, [pc, #176]	(c58 <ff_test_term+0x2a4>)
     ba8:	f003 f8b0 	bl	3d0c <disk_ioctl>
     bac:	4604      	mov	r4, r0
     bae:	b938      	cbnz	r0, bc0 <ff_test_term+0x20c>
     bb0:	4831      	ldr	r0, [pc, #196]	(c78 <ff_test_term+0x2c4>)
     bb2:	f7ff fcfd 	bl	5b0 <xputs>
     bb6:	4828      	ldr	r0, [pc, #160]	(c58 <ff_test_term+0x2a4>)
     bb8:	4621      	mov	r1, r4
     bba:	2210      	movs	r2, #16
     bbc:	f7ff fe64 	bl	888 <put_dump>
     bc0:	f89d 006c 	ldrb.w	r0, [sp, #108]
     bc4:	210d      	movs	r1, #13
     bc6:	4a24      	ldr	r2, [pc, #144]	(c58 <ff_test_term+0x2a4>)
     bc8:	f003 f8a0 	bl	3d0c <disk_ioctl>
     bcc:	4604      	mov	r4, r0
     bce:	b938      	cbnz	r0, be0 <ff_test_term+0x22c>
     bd0:	482a      	ldr	r0, [pc, #168]	(c7c <ff_test_term+0x2c8>)
     bd2:	f7ff fced 	bl	5b0 <xputs>
     bd6:	4820      	ldr	r0, [pc, #128]	(c58 <ff_test_term+0x2a4>)
     bd8:	4621      	mov	r1, r4
     bda:	2204      	movs	r2, #4
     bdc:	f7ff fe54 	bl	888 <put_dump>
     be0:	f89d 006c 	ldrb.w	r0, [sp, #108]
     be4:	210e      	movs	r1, #14
     be6:	4a1c      	ldr	r2, [pc, #112]	(c58 <ff_test_term+0x2a4>)
     be8:	f003 f890 	bl	3d0c <disk_ioctl>
     bec:	4604      	mov	r4, r0
     bee:	2800      	cmp	r0, #0
     bf0:	f47f aef8 	bne.w	9e4 <ff_test_term+0x30>
     bf4:	4822      	ldr	r0, [pc, #136]	(c80 <ff_test_term+0x2cc>)
     bf6:	f7ff fcdb 	bl	5b0 <xputs>
     bfa:	9418      	str	r4, [sp, #96]
     bfc:	e007      	b.n	c0e <ff_test_term+0x25a>
     bfe:	4816      	ldr	r0, [pc, #88]	(c58 <ff_test_term+0x2a4>)
     c00:	2210      	movs	r2, #16
     c02:	1808      	adds	r0, r1, r0
     c04:	f7ff fe40 	bl	888 <put_dump>
     c08:	9b18      	ldr	r3, [sp, #96]
     c0a:	3310      	adds	r3, #16
     c0c:	9318      	str	r3, [sp, #96]
     c0e:	9918      	ldr	r1, [sp, #96]
     c10:	293f      	cmp	r1, #63
     c12:	d9f4      	bls.n	bfe <ff_test_term+0x24a>
     c14:	e6e6      	b.n	9e4 <ff_test_term+0x30>
     c16:	7861      	ldrb	r1, [r4, #1]
     c18:	1ca3      	adds	r3, r4, #2
     c1a:	2966      	cmp	r1, #102
     c1c:	931c      	str	r3, [sp, #112]
     c1e:	f000 80cf 	beq.w	dc0 <ff_test_term+0x40c>
     c22:	d804      	bhi.n	c2e <ff_test_term+0x27a>
     c24:	2964      	cmp	r1, #100
     c26:	d02d      	beq.n	c84 <ff_test_term+0x2d0>
     c28:	2965      	cmp	r1, #101
     c2a:	d04a      	beq.n	cc2 <ff_test_term+0x30e>
     c2c:	e6da      	b.n	9e4 <ff_test_term+0x30>
     c2e:	2972      	cmp	r1, #114
     c30:	f000 8086 	beq.w	d40 <ff_test_term+0x38c>
     c34:	2977      	cmp	r1, #119
     c36:	f000 80a2 	beq.w	d7e <ff_test_term+0x3ca>
     c3a:	e6d3      	b.n	9e4 <ff_test_term+0x30>
     c3c:	00005e75 	.word	0x00005e75
     c40:	00005ea1 	.word	0x00005ea1
     c44:	00005ead 	.word	0x00005ead
     c48:	10000b4c 	.word	0x10000b4c
     c4c:	10001d98 	.word	0x10001d98
     c50:	10001ec0 	.word	0x10001ec0
     c54:	00005ebe 	.word	0x00005ebe
     c58:	10000b74 	.word	0x10000b74
     c5c:	000062f0 	.word	0x000062f0
     c60:	000062f7 	.word	0x000062f7
     c64:	00006303 	.word	0x00006303
     c68:	0000631c 	.word	0x0000631c
     c6c:	0000632d 	.word	0x0000632d
     c70:	0000634c 	.word	0x0000634c
     c74:	0000635e 	.word	0x0000635e
     c78:	00006364 	.word	0x00006364
     c7c:	0000636a 	.word	0x0000636a
     c80:	00006370 	.word	0x00006370
     c84:	a81c      	add	r0, sp, #112
     c86:	a91b      	add	r1, sp, #108
     c88:	f7ff fc9c 	bl	5c4 <xatoi>
     c8c:	2800      	cmp	r0, #0
     c8e:	f43f aea9 	beq.w	9e4 <ff_test_term+0x30>
     c92:	9b1b      	ldr	r3, [sp, #108]
     c94:	4a9f      	ldr	r2, [pc, #636]	(f14 <ff_test_term+0x560>)
     c96:	461c      	mov	r4, r3
     c98:	189a      	adds	r2, r3, r2
     c9a:	2320      	movs	r3, #32
     c9c:	921c      	str	r2, [sp, #112]
     c9e:	9316      	str	r3, [sp, #88]
     ca0:	e00b      	b.n	cba <ff_test_term+0x306>
     ca2:	4621      	mov	r1, r4
     ca4:	981c      	ldr	r0, [sp, #112]
     ca6:	2210      	movs	r2, #16
     ca8:	f7ff fdee 	bl	888 <put_dump>
     cac:	9b16      	ldr	r3, [sp, #88]
     cae:	3410      	adds	r4, #16
     cb0:	3b01      	subs	r3, #1
     cb2:	9316      	str	r3, [sp, #88]
     cb4:	9b1c      	ldr	r3, [sp, #112]
     cb6:	3310      	adds	r3, #16
     cb8:	931c      	str	r3, [sp, #112]
     cba:	9b16      	ldr	r3, [sp, #88]
     cbc:	2b00      	cmp	r3, #0
     cbe:	d1f0      	bne.n	ca2 <ff_test_term+0x2ee>
     cc0:	e690      	b.n	9e4 <ff_test_term+0x30>
     cc2:	ac1c      	add	r4, sp, #112
     cc4:	4620      	mov	r0, r4
     cc6:	a91b      	add	r1, sp, #108
     cc8:	f7ff fc7c 	bl	5c4 <xatoi>
     ccc:	2800      	cmp	r0, #0
     cce:	f43f ae89 	beq.w	9e4 <ff_test_term+0x30>
     cd2:	4620      	mov	r0, r4
     cd4:	a91a      	add	r1, sp, #104
     cd6:	f7ff fc75 	bl	5c4 <xatoi>
     cda:	b160      	cbz	r0, cf6 <ff_test_term+0x342>
     cdc:	9b1b      	ldr	r3, [sp, #108]
     cde:	991a      	ldr	r1, [sp, #104]
     ce0:	4a8c      	ldr	r2, [pc, #560]	(f14 <ff_test_term+0x560>)
     ce2:	a81c      	add	r0, sp, #112
     ce4:	54d1      	strb	r1, [r2, r3]
     ce6:	3301      	adds	r3, #1
     ce8:	a91a      	add	r1, sp, #104
     cea:	931b      	str	r3, [sp, #108]
     cec:	f7ff fc6a 	bl	5c4 <xatoi>
     cf0:	2800      	cmp	r0, #0
     cf2:	d1f3      	bne.n	cdc <ff_test_term+0x328>
     cf4:	e676      	b.n	9e4 <ff_test_term+0x30>
     cf6:	9b1b      	ldr	r3, [sp, #108]
     cf8:	4d86      	ldr	r5, [pc, #536]	(f14 <ff_test_term+0x560>)
     cfa:	4c87      	ldr	r4, [pc, #540]	(f18 <ff_test_term+0x564>)
     cfc:	b299      	uxth	r1, r3
     cfe:	5cea      	ldrb	r2, [r5, r3]
     d00:	4886      	ldr	r0, [pc, #536]	(f1c <ff_test_term+0x568>)
     d02:	f7ff fd07 	bl	714 <xprintf>
     d06:	4620      	mov	r0, r4
     d08:	f44f 6180 	mov.w	r1, #1024	; 0x400
     d0c:	f7ff fcb4 	bl	678 <get_line>
     d10:	7823      	ldrb	r3, [r4, #0]
     d12:	941c      	str	r4, [sp, #112]
     d14:	2b2e      	cmp	r3, #46
     d16:	f43f ae65 	beq.w	9e4 <ff_test_term+0x30>
     d1a:	2b1f      	cmp	r3, #31
     d1c:	d801      	bhi.n	d22 <ff_test_term+0x36e>
     d1e:	9b1b      	ldr	r3, [sp, #108]
     d20:	e007      	b.n	d32 <ff_test_term+0x37e>
     d22:	a81c      	add	r0, sp, #112
     d24:	a91a      	add	r1, sp, #104
     d26:	f7ff fc4d 	bl	5c4 <xatoi>
     d2a:	b128      	cbz	r0, d38 <ff_test_term+0x384>
     d2c:	9b1b      	ldr	r3, [sp, #108]
     d2e:	9a1a      	ldr	r2, [sp, #104]
     d30:	54ea      	strb	r2, [r5, r3]
     d32:	3301      	adds	r3, #1
     d34:	931b      	str	r3, [sp, #108]
     d36:	e7de      	b.n	cf6 <ff_test_term+0x342>
     d38:	4879      	ldr	r0, [pc, #484]	(f20 <ff_test_term+0x56c>)
     d3a:	f7ff fc39 	bl	5b0 <xputs>
     d3e:	e7da      	b.n	cf6 <ff_test_term+0x342>
     d40:	ac1c      	add	r4, sp, #112
     d42:	4620      	mov	r0, r4
     d44:	a91b      	add	r1, sp, #108
     d46:	f7ff fc3d 	bl	5c4 <xatoi>
     d4a:	2800      	cmp	r0, #0
     d4c:	f43f ae4a 	beq.w	9e4 <ff_test_term+0x30>
     d50:	4620      	mov	r0, r4
     d52:	a91a      	add	r1, sp, #104
     d54:	f7ff fc36 	bl	5c4 <xatoi>
     d58:	2800      	cmp	r0, #0
     d5a:	f43f ae43 	beq.w	9e4 <ff_test_term+0x30>
     d5e:	4620      	mov	r0, r4
     d60:	a919      	add	r1, sp, #100
     d62:	f7ff fc2f 	bl	5c4 <xatoi>
     d66:	b908      	cbnz	r0, d6c <ff_test_term+0x3b8>
     d68:	2301      	movs	r3, #1
     d6a:	9319      	str	r3, [sp, #100]
     d6c:	f89d 006c 	ldrb.w	r0, [sp, #108]
     d70:	4968      	ldr	r1, [pc, #416]	(f14 <ff_test_term+0x560>)
     d72:	9a1a      	ldr	r2, [sp, #104]
     d74:	f89d 3064 	ldrb.w	r3, [sp, #100]
     d78:	f003 f814 	bl	3da4 <disk_read>
     d7c:	e01d      	b.n	dba <ff_test_term+0x406>
     d7e:	ac1c      	add	r4, sp, #112
     d80:	4620      	mov	r0, r4
     d82:	a91b      	add	r1, sp, #108
     d84:	f7ff fc1e 	bl	5c4 <xatoi>
     d88:	2800      	cmp	r0, #0
     d8a:	f43f ae2b 	beq.w	9e4 <ff_test_term+0x30>
     d8e:	4620      	mov	r0, r4
     d90:	a91a      	add	r1, sp, #104
     d92:	f7ff fc17 	bl	5c4 <xatoi>
     d96:	2800      	cmp	r0, #0
     d98:	f43f ae24 	beq.w	9e4 <ff_test_term+0x30>
     d9c:	4620      	mov	r0, r4
     d9e:	a919      	add	r1, sp, #100
     da0:	f7ff fc10 	bl	5c4 <xatoi>
     da4:	b908      	cbnz	r0, daa <ff_test_term+0x3f6>
     da6:	2301      	movs	r3, #1
     da8:	9319      	str	r3, [sp, #100]
     daa:	f89d 006c 	ldrb.w	r0, [sp, #108]
     dae:	4959      	ldr	r1, [pc, #356]	(f14 <ff_test_term+0x560>)
     db0:	9a1a      	ldr	r2, [sp, #104]
     db2:	f89d 3064 	ldrb.w	r3, [sp, #100]
     db6:	f002 ffd5 	bl	3d64 <disk_write>
     dba:	4601      	mov	r1, r0
     dbc:	4859      	ldr	r0, [pc, #356]	(f24 <ff_test_term+0x570>)
     dbe:	e6a5      	b.n	b0c <ff_test_term+0x158>
     dc0:	a81c      	add	r0, sp, #112
     dc2:	a91b      	add	r1, sp, #108
     dc4:	f7ff fbfe 	bl	5c4 <xatoi>
     dc8:	2800      	cmp	r0, #0
     dca:	f43f ae0b 	beq.w	9e4 <ff_test_term+0x30>
     dce:	f89d 106c 	ldrb.w	r1, [sp, #108]
     dd2:	f44f 5280 	mov.w	r2, #4096	; 0x1000
     dd6:	484f      	ldr	r0, [pc, #316]	(f14 <ff_test_term+0x560>)
     dd8:	f7ff fc8a 	bl	6f0 <xmemset>
     ddc:	e602      	b.n	9e4 <ff_test_term+0x30>
     dde:	7863      	ldrb	r3, [r4, #1]
     de0:	1ca2      	adds	r2, r4, #2
     de2:	3b61      	subs	r3, #97
     de4:	921c      	str	r2, [sp, #112]
     de6:	2b19      	cmp	r3, #25
     de8:	f63f adfc 	bhi.w	9e4 <ff_test_term+0x30>
     dec:	a201      	add	r2, pc, #4	(adr r2, df4 <ff_test_term+0x440>)
     dee:	f852 f023 	ldr.w	pc, [r2, r3, lsl #2]
     df2:	46c0      	nop			(mov r8, r8)
     df4:	0000128d 	.word	0x0000128d
     df8:	000009e5 	.word	0x000009e5
     dfc:	0000108f 	.word	0x0000108f
     e00:	000010c3 	.word	0x000010c3
     e04:	00001097 	.word	0x00001097
     e08:	000009e5 	.word	0x000009e5
     e0c:	00001439 	.word	0x00001439
     e10:	000009e5 	.word	0x000009e5
     e14:	00000e5d 	.word	0x00000e5d
     e18:	00001447 	.word	0x00001447
     e1c:	0000127f 	.word	0x0000127f
     e20:	00000f49 	.word	0x00000f49
     e24:	0000145f 	.word	0x0000145f
     e28:	00001233 	.word	0x00001233
     e2c:	00001067 	.word	0x00001067
     e30:	000009e5 	.word	0x000009e5
     e34:	000009e5 	.word	0x000009e5
     e38:	00001117 	.word	0x00001117
     e3c:	00000e83 	.word	0x00000e83
     e40:	000012c7 	.word	0x000012c7
     e44:	00001265 	.word	0x00001265
     e48:	00001273 	.word	0x00001273
     e4c:	0000117f 	.word	0x0000117f
     e50:	0000136f 	.word	0x0000136f
     e54:	000009e5 	.word	0x000009e5
     e58:	000014d9 	.word	0x000014d9
     e5c:	a81c      	add	r0, sp, #112
     e5e:	a91b      	add	r1, sp, #108
     e60:	f7ff fbb0 	bl	5c4 <xatoi>
     e64:	2800      	cmp	r0, #0
     e66:	f43f adbd 	beq.w	9e4 <ff_test_term+0x30>
     e6a:	9a1b      	ldr	r2, [sp, #108]
     e6c:	492e      	ldr	r1, [pc, #184]	(f28 <ff_test_term+0x574>)
     e6e:	f44f 730d 	mov.w	r3, #564	; 0x234
     e72:	b2d0      	uxtb	r0, r2
     e74:	fb02 1103 	mla	r1, r2, r3, r1
     e78:	f000 fc78 	bl	176c <f_mount>
     e7c:	e312      	b.n	14a4 <Heap_Size+0x4a4>
     e7e:	1c43      	adds	r3, r0, #1
     e80:	931c      	str	r3, [sp, #112]
     e82:	981c      	ldr	r0, [sp, #112]
     e84:	7803      	ldrb	r3, [r0, #0]
     e86:	2b20      	cmp	r3, #32
     e88:	d0f9      	beq.n	e7e <ff_test_term+0x4ca>
     e8a:	a91a      	add	r1, sp, #104
     e8c:	aa15      	add	r2, sp, #84
     e8e:	f001 fa6d 	bl	236c <f_getfree>
     e92:	4607      	mov	r7, r0
     e94:	2800      	cmp	r0, #0
     e96:	f040 8305 	bne.w	14a4 <Heap_Size+0x4a4>
     e9a:	9815      	ldr	r0, [sp, #84]
     e9c:	4a23      	ldr	r2, [pc, #140]	(f2c <ff_test_term+0x578>)
     e9e:	7803      	ldrb	r3, [r0, #0]
     ea0:	69c4      	ldr	r4, [r0, #28]
     ea2:	6a45      	ldr	r5, [r0, #36]
     ea4:	6a86      	ldr	r6, [r0, #40]
     ea6:	f003 0303 	and.w	r3, r3, #3	; 0x3
     eaa:	f8b0 e008 	ldrh.w	lr, [r0, #8]
     eae:	f8d0 c020 	ldr.w	ip, [r0, #32]
     eb2:	5cd1      	ldrb	r1, [r2, r3]
     eb4:	3c02      	subs	r4, #2
     eb6:	7882      	ldrb	r2, [r0, #2]
     eb8:	78c3      	ldrb	r3, [r0, #3]
     eba:	6ac0      	ldr	r0, [r0, #44]
     ebc:	9402      	str	r4, [sp, #8]
     ebe:	9503      	str	r5, [sp, #12]
     ec0:	9604      	str	r6, [sp, #16]
     ec2:	4d1b      	ldr	r5, [pc, #108]	(f30 <ff_test_term+0x57c>)
     ec4:	4e1b      	ldr	r6, [pc, #108]	(f34 <ff_test_term+0x580>)
     ec6:	4c1c      	ldr	r4, [pc, #112]	(f38 <ff_test_term+0x584>)
     ec8:	9005      	str	r0, [sp, #20]
     eca:	0252      	lsls	r2, r2, #9
     ecc:	481b      	ldr	r0, [pc, #108]	(f3c <ff_test_term+0x588>)
     ece:	f8cd e000 	str.w	lr, [sp]
     ed2:	f8cd c004 	str.w	ip, [sp, #4]
     ed6:	f7ff fc1d 	bl	714 <xprintf>
     eda:	8037      	strh	r7, [r6, #0]
     edc:	802f      	strh	r7, [r5, #0]
     ede:	6027      	str	r7, [r4, #0]
     ee0:	981c      	ldr	r0, [sp, #112]
     ee2:	f7ff fd1b 	bl	91c <scan_files>
     ee6:	2800      	cmp	r0, #0
     ee8:	f040 82dc 	bne.w	14a4 <Heap_Size+0x4a4>
     eec:	9815      	ldr	r0, [sp, #84]
     eee:	8829      	ldrh	r1, [r5, #0]
     ef0:	7885      	ldrb	r5, [r0, #2]
     ef2:	6822      	ldr	r2, [r4, #0]
     ef4:	69c4      	ldr	r4, [r0, #28]
     ef6:	981a      	ldr	r0, [sp, #104]
     ef8:	086d      	lsrs	r5, r5, #1
     efa:	fb00 f005 	mul.w	r0, r0, r5
     efe:	3c02      	subs	r4, #2
     f00:	fb04 f405 	mul.w	r4, r4, r5
     f04:	8833      	ldrh	r3, [r6, #0]
     f06:	9001      	str	r0, [sp, #4]
     f08:	480d      	ldr	r0, [pc, #52]	(f40 <ff_test_term+0x58c>)
     f0a:	9400      	str	r4, [sp, #0]
     f0c:	f7ff fc02 	bl	714 <xprintf>
     f10:	e568      	b.n	9e4 <ff_test_term+0x30>
     f12:	46c0      	nop			(mov r8, r8)
     f14:	10000b74 	.word	0x10000b74
     f18:	10001ec0 	.word	0x10001ec0
     f1c:	0000637c 	.word	0x0000637c
     f20:	00006387 	.word	0x00006387
     f24:	0000638c 	.word	0x0000638c
     f28:	100004c0 	.word	0x100004c0
     f2c:	0000660a 	.word	0x0000660a
     f30:	10000b6e 	.word	0x10000b6e
     f34:	10000b6c 	.word	0x10000b6c
     f38:	10001ebc 	.word	0x10001ebc
     f3c:	00006393 	.word	0x00006393
     f40:	0000645d 	.word	0x0000645d
     f44:	1c4b      	adds	r3, r1, #1
     f46:	931c      	str	r3, [sp, #112]
     f48:	991c      	ldr	r1, [sp, #112]
     f4a:	780b      	ldrb	r3, [r1, #0]
     f4c:	2b20      	cmp	r3, #32
     f4e:	d0f9      	beq.n	f44 <ff_test_term+0x590>
     f50:	48a1      	ldr	r0, [pc, #644]	(11d8 <Heap_Size+0x1d8>)
     f52:	f002 fb2f 	bl	35b4 <f_opendir>
     f56:	2800      	cmp	r0, #0
     f58:	f040 82a4 	bne.w	14a4 <Heap_Size+0x4a4>
     f5c:	9017      	str	r0, [sp, #92]
     f5e:	9018      	str	r0, [sp, #96]
     f60:	901b      	str	r0, [sp, #108]
     f62:	4c9e      	ldr	r4, [pc, #632]	(11dc <Heap_Size+0x1dc>)
     f64:	489c      	ldr	r0, [pc, #624]	(11d8 <Heap_Size+0x1d8>)
     f66:	4621      	mov	r1, r4
     f68:	f002 f826 	bl	2fb8 <f_readdir>
     f6c:	2800      	cmp	r0, #0
     f6e:	d164      	bne.n	103a <Heap_Size+0x3a>
     f70:	7a63      	ldrb	r3, [r4, #9]
     f72:	2b00      	cmp	r3, #0
     f74:	d061      	beq.n	103a <Heap_Size+0x3a>
     f76:	7a23      	ldrb	r3, [r4, #8]
     f78:	f013 0f10 	tst.w	r3, #16	; 0x10
     f7c:	d003      	beq.n	f86 <ff_test_term+0x5d2>
     f7e:	9b17      	ldr	r3, [sp, #92]
     f80:	3301      	adds	r3, #1
     f82:	9317      	str	r3, [sp, #92]
     f84:	e006      	b.n	f94 <ff_test_term+0x5e0>
     f86:	9b18      	ldr	r3, [sp, #96]
     f88:	6822      	ldr	r2, [r4, #0]
     f8a:	3301      	adds	r3, #1
     f8c:	9318      	str	r3, [sp, #96]
     f8e:	9b1b      	ldr	r3, [sp, #108]
     f90:	189b      	adds	r3, r3, r2
     f92:	931b      	str	r3, [sp, #108]
     f94:	4d91      	ldr	r5, [pc, #580]	(11dc <Heap_Size+0x1dc>)
     f96:	7a28      	ldrb	r0, [r5, #8]
     f98:	88ae      	ldrh	r6, [r5, #4]
     f9a:	f010 0f10 	tst.w	r0, #16	; 0x10
     f9e:	bf0c      	ite	eq
     fa0:	212d      	moveq	r1, #45
     fa2:	2144      	movne	r1, #68
     fa4:	f010 0f01 	tst.w	r0, #1	; 0x1
     fa8:	bf0c      	ite	eq
     faa:	222d      	moveq	r2, #45
     fac:	2252      	movne	r2, #82
     fae:	f010 0f02 	tst.w	r0, #2	; 0x2
     fb2:	bf0c      	ite	eq
     fb4:	232d      	moveq	r3, #45
     fb6:	2348      	movne	r3, #72
     fb8:	f010 0f04 	tst.w	r0, #4	; 0x4
     fbc:	bf0c      	ite	eq
     fbe:	f04f 0a2d 	moveq.w	sl, #45	; 0x2d
     fc2:	f04f 0a53 	movne.w	sl, #83	; 0x53
     fc6:	f010 0f20 	tst.w	r0, #32	; 0x20
     fca:	bf0c      	ite	eq
     fcc:	f04f 092d 	moveq.w	r9, #45	; 0x2d
     fd0:	f04f 0941 	movne.w	r9, #65	; 0x41
     fd4:	0a70      	lsrs	r0, r6, #9
     fd6:	88ec      	ldrh	r4, [r5, #6]
     fd8:	f500 60f6 	add.w	r0, r0, #1968	; 0x7b0
     fdc:	f855 cb09 	ldr.w	ip, [r5], #9
     fe0:	300c      	adds	r0, #12
     fe2:	ea4f 2ed4 	mov.w	lr, r4, lsr #11
     fe6:	f3c6 1843 	ubfx	r8, r6, #5, #4
     fea:	9002      	str	r0, [sp, #8]
     fec:	f006 061f 	and.w	r6, r6, #31	; 0x1f
     ff0:	487b      	ldr	r0, [pc, #492]	(11e0 <Heap_Size+0x1e0>)
     ff2:	f3c4 1445 	ubfx	r4, r4, #5, #6
     ff6:	f8cd e014 	str.w	lr, [sp, #20]
     ffa:	f8cd c01c 	str.w	ip, [sp, #28]
     ffe:	f8cd a000 	str.w	sl, [sp]
    1002:	f8cd 9004 	str.w	r9, [sp, #4]
    1006:	f8cd 800c 	str.w	r8, [sp, #12]
    100a:	9604      	str	r6, [sp, #16]
    100c:	9406      	str	r4, [sp, #24]
    100e:	9508      	str	r5, [sp, #32]
    1010:	f7ff fb80 	bl	714 <xprintf>
    1014:	4628      	mov	r0, r5
    1016:	f7ff fb5b 	bl	6d0 <xstrlen>
    101a:	901a      	str	r0, [sp, #104]
    101c:	e005      	b.n	102a <Heap_Size+0x2a>
    101e:	2020      	movs	r0, #32
    1020:	f7ff fab6 	bl	590 <xputc>
    1024:	9b1a      	ldr	r3, [sp, #104]
    1026:	3301      	adds	r3, #1
    1028:	931a      	str	r3, [sp, #104]
    102a:	9b1a      	ldr	r3, [sp, #104]
    102c:	2b0d      	cmp	r3, #13
    102e:	ddf6      	ble.n	101e <Heap_Size+0x1e>
    1030:	486c      	ldr	r0, [pc, #432]	(11e4 <Heap_Size+0x1e4>)
    1032:	496d      	ldr	r1, [pc, #436]	(11e8 <Heap_Size+0x1e8>)
    1034:	f7ff fb6e 	bl	714 <xprintf>
    1038:	e793      	b.n	f62 <ff_test_term+0x5ae>
    103a:	486c      	ldr	r0, [pc, #432]	(11ec <Heap_Size+0x1ec>)
    103c:	9918      	ldr	r1, [sp, #96]
    103e:	9a1b      	ldr	r2, [sp, #108]
    1040:	9b17      	ldr	r3, [sp, #92]
    1042:	f7ff fb67 	bl	714 <xprintf>
    1046:	981c      	ldr	r0, [sp, #112]
    1048:	a91b      	add	r1, sp, #108
    104a:	aa15      	add	r2, sp, #84
    104c:	f001 f98e 	bl	236c <f_getfree>
    1050:	2800      	cmp	r0, #0
    1052:	f47f acc7 	bne.w	9e4 <ff_test_term+0x30>
    1056:	9b15      	ldr	r3, [sp, #84]
    1058:	991b      	ldr	r1, [sp, #108]
    105a:	789b      	ldrb	r3, [r3, #2]
    105c:	0249      	lsls	r1, r1, #9
    105e:	4864      	ldr	r0, [pc, #400]	(11f0 <Heap_Size+0x1f0>)
    1060:	fb03 f101 	mul.w	r1, r3, r1
    1064:	e552      	b.n	b0c <ff_test_term+0x158>
    1066:	a81c      	add	r0, sp, #112
    1068:	a91b      	add	r1, sp, #108
    106a:	f7ff faab 	bl	5c4 <xatoi>
    106e:	2800      	cmp	r0, #0
    1070:	f43f acb8 	beq.w	9e4 <ff_test_term+0x30>
    1074:	e001      	b.n	107a <Heap_Size+0x7a>
    1076:	1c4b      	adds	r3, r1, #1
    1078:	931c      	str	r3, [sp, #112]
    107a:	991c      	ldr	r1, [sp, #112]
    107c:	780b      	ldrb	r3, [r1, #0]
    107e:	2b20      	cmp	r3, #32
    1080:	d0f9      	beq.n	1076 <Heap_Size+0x76>
    1082:	f89d 206c 	ldrb.w	r2, [sp, #108]
    1086:	485b      	ldr	r0, [pc, #364]	(11f4 <Heap_Size+0x1f4>)
    1088:	f002 fd5c 	bl	3b44 <f_open>
    108c:	e20a      	b.n	14a4 <Heap_Size+0x4a4>
    108e:	4859      	ldr	r0, [pc, #356]	(11f4 <Heap_Size+0x1f4>)
    1090:	f001 ff0a 	bl	2ea8 <f_close>
    1094:	e206      	b.n	14a4 <Heap_Size+0x4a4>
    1096:	a81c      	add	r0, sp, #112
    1098:	a91b      	add	r1, sp, #108
    109a:	f7ff fa93 	bl	5c4 <xatoi>
    109e:	2800      	cmp	r0, #0
    10a0:	f43f aca0 	beq.w	9e4 <ff_test_term+0x30>
    10a4:	4d53      	ldr	r5, [pc, #332]	(11f4 <Heap_Size+0x1f4>)
    10a6:	991b      	ldr	r1, [sp, #108]
    10a8:	4628      	mov	r0, r5
    10aa:	f001 fb25 	bl	26f8 <f_lseek>
    10ae:	4604      	mov	r4, r0
    10b0:	f7ff fc1c 	bl	8ec <put_rc>
    10b4:	2c00      	cmp	r4, #0
    10b6:	f47f ac95 	bne.w	9e4 <ff_test_term+0x30>
    10ba:	68a9      	ldr	r1, [r5, #8]
    10bc:	484e      	ldr	r0, [pc, #312]	(11f8 <Heap_Size+0x1f8>)
    10be:	460a      	mov	r2, r1
    10c0:	e05a      	b.n	1178 <Heap_Size+0x178>
    10c2:	a81c      	add	r0, sp, #112
    10c4:	a91b      	add	r1, sp, #108
    10c6:	f7ff fa7d 	bl	5c4 <xatoi>
    10ca:	2800      	cmp	r0, #0
    10cc:	f43f ac8a 	beq.w	9e4 <ff_test_term+0x30>
    10d0:	4b48      	ldr	r3, [pc, #288]	(11f4 <Heap_Size+0x1f4>)
    10d2:	689c      	ldr	r4, [r3, #8]
    10d4:	e01b      	b.n	110e <Heap_Size+0x10e>
    10d6:	2a0f      	cmp	r2, #15
    10d8:	d904      	bls.n	10e4 <Heap_Size+0xe4>
    10da:	2310      	movs	r3, #16
    10dc:	9316      	str	r3, [sp, #88]
    10de:	f1a2 0310 	sub.w	r3, r2, #16	; 0x10
    10e2:	e001      	b.n	10e8 <Heap_Size+0xe8>
    10e4:	9216      	str	r2, [sp, #88]
    10e6:	2300      	movs	r3, #0
    10e8:	931b      	str	r3, [sp, #108]
    10ea:	4842      	ldr	r0, [pc, #264]	(11f4 <Heap_Size+0x1f4>)
    10ec:	4943      	ldr	r1, [pc, #268]	(11fc <Heap_Size+0x1fc>)
    10ee:	9a16      	ldr	r2, [sp, #88]
    10f0:	ab16      	add	r3, sp, #88
    10f2:	f001 f9b1 	bl	2458 <f_read>
    10f6:	2800      	cmp	r0, #0
    10f8:	f040 81d4 	bne.w	14a4 <Heap_Size+0x4a4>
    10fc:	9a16      	ldr	r2, [sp, #88]
    10fe:	2a00      	cmp	r2, #0
    1100:	f43f ac70 	beq.w	9e4 <ff_test_term+0x30>
    1104:	4621      	mov	r1, r4
    1106:	483d      	ldr	r0, [pc, #244]	(11fc <Heap_Size+0x1fc>)
    1108:	f7ff fbbe 	bl	888 <put_dump>
    110c:	3410      	adds	r4, #16
    110e:	9a1b      	ldr	r2, [sp, #108]
    1110:	2a00      	cmp	r2, #0
    1112:	d1e0      	bne.n	10d6 <Heap_Size+0xd6>
    1114:	e466      	b.n	9e4 <ff_test_term+0x30>
    1116:	a81c      	add	r0, sp, #112
    1118:	a91b      	add	r1, sp, #108
    111a:	f7ff fa53 	bl	5c4 <xatoi>
    111e:	2800      	cmp	r0, #0
    1120:	f43f ac60 	beq.w	9e4 <ff_test_term+0x30>
    1124:	4b36      	ldr	r3, [pc, #216]	(1200 <Heap_Size+0x200>)
    1126:	2200      	movs	r2, #0
    1128:	921a      	str	r2, [sp, #104]
    112a:	601a      	str	r2, [r3, #0]
    112c:	e019      	b.n	1162 <Heap_Size+0x162>
    112e:	455b      	cmp	r3, fp
    1130:	bf2b      	itete	cs
    1132:	ebcb 0303 	rsbcs	r3, fp, r3
    1136:	9316      	strcc	r3, [sp, #88]
    1138:	f8cd b058 	strcs.w	fp, [sp, #88]
    113c:	2300      	movcc	r3, #0
    113e:	931b      	str	r3, [sp, #108]
    1140:	482c      	ldr	r0, [pc, #176]	(11f4 <Heap_Size+0x1f4>)
    1142:	492e      	ldr	r1, [pc, #184]	(11fc <Heap_Size+0x1fc>)
    1144:	9a16      	ldr	r2, [sp, #88]
    1146:	ab17      	add	r3, sp, #92
    1148:	f001 f986 	bl	2458 <f_read>
    114c:	b110      	cbz	r0, 1154 <Heap_Size+0x154>
    114e:	f7ff fbcd 	bl	8ec <put_rc>
    1152:	e009      	b.n	1168 <Heap_Size+0x168>
    1154:	9b17      	ldr	r3, [sp, #92]
    1156:	9a1a      	ldr	r2, [sp, #104]
    1158:	18d2      	adds	r2, r2, r3
    115a:	921a      	str	r2, [sp, #104]
    115c:	9a16      	ldr	r2, [sp, #88]
    115e:	429a      	cmp	r2, r3
    1160:	d102      	bne.n	1168 <Heap_Size+0x168>
    1162:	9b1b      	ldr	r3, [sp, #108]
    1164:	2b00      	cmp	r3, #0
    1166:	d1e2      	bne.n	112e <Heap_Size+0x12e>
    1168:	4b25      	ldr	r3, [pc, #148]	(1200 <Heap_Size+0x200>)
    116a:	991a      	ldr	r1, [sp, #104]
    116c:	681a      	ldr	r2, [r3, #0]
    116e:	b112      	cbz	r2, 1176 <Heap_Size+0x176>
    1170:	681b      	ldr	r3, [r3, #0]
    1172:	fbb1 f2f3 	udiv	r2, r1, r3
    1176:	4823      	ldr	r0, [pc, #140]	(1204 <Heap_Size+0x204>)
    1178:	f7ff facc 	bl	714 <xprintf>
    117c:	e432      	b.n	9e4 <ff_test_term+0x30>
    117e:	ac1c      	add	r4, sp, #112
    1180:	4620      	mov	r0, r4
    1182:	a91b      	add	r1, sp, #108
    1184:	f7ff fa1e 	bl	5c4 <xatoi>
    1188:	2800      	cmp	r0, #0
    118a:	f43f ac2b 	beq.w	9e4 <ff_test_term+0x30>
    118e:	4620      	mov	r0, r4
    1190:	a91a      	add	r1, sp, #104
    1192:	f7ff fa17 	bl	5c4 <xatoi>
    1196:	2800      	cmp	r0, #0
    1198:	f43f ac24 	beq.w	9e4 <ff_test_term+0x30>
    119c:	465a      	mov	r2, fp
    119e:	4817      	ldr	r0, [pc, #92]	(11fc <Heap_Size+0x1fc>)
    11a0:	f89d 1068 	ldrb.w	r1, [sp, #104]
    11a4:	f7ff faa4 	bl	6f0 <xmemset>
    11a8:	4b15      	ldr	r3, [pc, #84]	(1200 <Heap_Size+0x200>)
    11aa:	2200      	movs	r2, #0
    11ac:	921a      	str	r2, [sp, #104]
    11ae:	601a      	str	r2, [r3, #0]
    11b0:	e031      	b.n	1216 <Heap_Size+0x216>
    11b2:	455b      	cmp	r3, fp
    11b4:	bf2b      	itete	cs
    11b6:	ebcb 0303 	rsbcs	r3, fp, r3
    11ba:	9316      	strcc	r3, [sp, #88]
    11bc:	f8cd b058 	strcs.w	fp, [sp, #88]
    11c0:	2300      	movcc	r3, #0
    11c2:	931b      	str	r3, [sp, #108]
    11c4:	480b      	ldr	r0, [pc, #44]	(11f4 <Heap_Size+0x1f4>)
    11c6:	490d      	ldr	r1, [pc, #52]	(11fc <Heap_Size+0x1fc>)
    11c8:	9a16      	ldr	r2, [sp, #88]
    11ca:	ab17      	add	r3, sp, #92
    11cc:	f001 fb40 	bl	2850 <f_write>
    11d0:	b1d0      	cbz	r0, 1208 <Heap_Size+0x208>
    11d2:	f7ff fb8b 	bl	8ec <put_rc>
    11d6:	e021      	b.n	121c <Heap_Size+0x21c>
    11d8:	10001e98 	.word	0x10001e98
    11dc:	10000b4c 	.word	0x10000b4c
    11e0:	000064ab 	.word	0x000064ab
    11e4:	00005e71 	.word	0x00005e71
    11e8:	10001d98 	.word	0x10001d98
    11ec:	000064d6 	.word	0x000064d6
    11f0:	000064ff 	.word	0x000064ff
    11f4:	10000928 	.word	0x10000928
    11f8:	00006513 	.word	0x00006513
    11fc:	10000b74 	.word	0x10000b74
    1200:	10000b70 	.word	0x10000b70
    1204:	00006524 	.word	0x00006524
    1208:	9b17      	ldr	r3, [sp, #92]
    120a:	9a1a      	ldr	r2, [sp, #104]
    120c:	18d2      	adds	r2, r2, r3
    120e:	921a      	str	r2, [sp, #104]
    1210:	9a16      	ldr	r2, [sp, #88]
    1212:	429a      	cmp	r2, r3
    1214:	d102      	bne.n	121c <Heap_Size+0x21c>
    1216:	9b1b      	ldr	r3, [sp, #108]
    1218:	2b00      	cmp	r3, #0
    121a:	d1ca      	bne.n	11b2 <Heap_Size+0x1b2>
    121c:	4ba3      	ldr	r3, [pc, #652]	(14ac <Heap_Size+0x4ac>)
    121e:	991a      	ldr	r1, [sp, #104]
    1220:	681a      	ldr	r2, [r3, #0]
    1222:	b112      	cbz	r2, 122a <Heap_Size+0x22a>
    1224:	681b      	ldr	r3, [r3, #0]
    1226:	fbb1 f2f3 	udiv	r2, r1, r3
    122a:	48a1      	ldr	r0, [pc, #644]	(14b0 <Heap_Size+0x4b0>)
    122c:	e7a4      	b.n	1178 <Heap_Size+0x178>
    122e:	1c43      	adds	r3, r0, #1
    1230:	931c      	str	r3, [sp, #112]
    1232:	981c      	ldr	r0, [sp, #112]
    1234:	7803      	ldrb	r3, [r0, #0]
    1236:	2b20      	cmp	r3, #32
    1238:	d0f9      	beq.n	122e <Heap_Size+0x22e>
    123a:	2120      	movs	r1, #32
    123c:	f7ff fa60 	bl	700 <xstrchr>
    1240:	4601      	mov	r1, r0
    1242:	2800      	cmp	r0, #0
    1244:	f43f abce 	beq.w	9e4 <ff_test_term+0x30>
    1248:	2300      	movs	r3, #0
    124a:	f801 3b01 	strb.w	r3, [r1], #1
    124e:	e000      	b.n	1252 <Heap_Size+0x252>
    1250:	3101      	adds	r1, #1
    1252:	780b      	ldrb	r3, [r1, #0]
    1254:	2b20      	cmp	r3, #32
    1256:	d0fb      	beq.n	1250 <Heap_Size+0x250>
    1258:	981c      	ldr	r0, [sp, #112]
    125a:	f002 fafb 	bl	3854 <f_rename>
    125e:	e121      	b.n	14a4 <Heap_Size+0x4a4>
    1260:	1c43      	adds	r3, r0, #1
    1262:	931c      	str	r3, [sp, #112]
    1264:	981c      	ldr	r0, [sp, #112]
    1266:	7803      	ldrb	r3, [r0, #0]
    1268:	2b20      	cmp	r3, #32
    126a:	d0f9      	beq.n	1260 <Heap_Size+0x260>
    126c:	f002 f932 	bl	34d4 <f_unlink>
    1270:	e118      	b.n	14a4 <Heap_Size+0x4a4>
    1272:	4890      	ldr	r0, [pc, #576]	(14b4 <Heap_Size+0x4b4>)
    1274:	f001 fd18 	bl	2ca8 <f_truncate>
    1278:	e114      	b.n	14a4 <Heap_Size+0x4a4>
    127a:	1c43      	adds	r3, r0, #1
    127c:	931c      	str	r3, [sp, #112]
    127e:	981c      	ldr	r0, [sp, #112]
    1280:	7803      	ldrb	r3, [r0, #0]
    1282:	2b20      	cmp	r3, #32
    1284:	d0f9      	beq.n	127a <Heap_Size+0x27a>
    1286:	f002 fb7d 	bl	3984 <f_mkdir>
    128a:	e10b      	b.n	14a4 <Heap_Size+0x4a4>
    128c:	ac1c      	add	r4, sp, #112
    128e:	4620      	mov	r0, r4
    1290:	a91b      	add	r1, sp, #108
    1292:	f7ff f997 	bl	5c4 <xatoi>
    1296:	2800      	cmp	r0, #0
    1298:	f43f aba4 	beq.w	9e4 <ff_test_term+0x30>
    129c:	4620      	mov	r0, r4
    129e:	a91a      	add	r1, sp, #104
    12a0:	f7ff f990 	bl	5c4 <xatoi>
    12a4:	2800      	cmp	r0, #0
    12a6:	f43f ab9d 	beq.w	9e4 <ff_test_term+0x30>
    12aa:	e001      	b.n	12b0 <Heap_Size+0x2b0>
    12ac:	1c43      	adds	r3, r0, #1
    12ae:	931c      	str	r3, [sp, #112]
    12b0:	981c      	ldr	r0, [sp, #112]
    12b2:	7803      	ldrb	r3, [r0, #0]
    12b4:	2b20      	cmp	r3, #32
    12b6:	d0f9      	beq.n	12ac <Heap_Size+0x2ac>
    12b8:	f89d 106c 	ldrb.w	r1, [sp, #108]
    12bc:	f89d 2068 	ldrb.w	r2, [sp, #104]
    12c0:	f002 f8d4 	bl	346c <f_chmod>
    12c4:	e0ee      	b.n	14a4 <Heap_Size+0x4a4>
    12c6:	ac1c      	add	r4, sp, #112
    12c8:	f10d 086c 	add.w	r8, sp, #108	; 0x6c
    12cc:	4620      	mov	r0, r4
    12ce:	4641      	mov	r1, r8
    12d0:	f7ff f978 	bl	5c4 <xatoi>
    12d4:	2800      	cmp	r0, #0
    12d6:	f43f ab85 	beq.w	9e4 <ff_test_term+0x30>
    12da:	af1a      	add	r7, sp, #104
    12dc:	4620      	mov	r0, r4
    12de:	4639      	mov	r1, r7
    12e0:	f7ff f970 	bl	5c4 <xatoi>
    12e4:	2800      	cmp	r0, #0
    12e6:	f43f ab7d 	beq.w	9e4 <ff_test_term+0x30>
    12ea:	ae19      	add	r6, sp, #100
    12ec:	4620      	mov	r0, r4
    12ee:	4631      	mov	r1, r6
    12f0:	f7ff f968 	bl	5c4 <xatoi>
    12f4:	2800      	cmp	r0, #0
    12f6:	f43f ab75 	beq.w	9e4 <ff_test_term+0x30>
    12fa:	9b1b      	ldr	r3, [sp, #108]
    12fc:	9a1a      	ldr	r2, [sp, #104]
    12fe:	f5a3 63f6 	sub.w	r3, r3, #1968	; 0x7b0
    1302:	f002 020f 	and.w	r2, r2, #15	; 0xf
    1306:	3b0c      	subs	r3, #12
    1308:	0152      	lsls	r2, r2, #5
    130a:	ea42 2243 	orr.w	r2, r2, r3, lsl #9
    130e:	9b19      	ldr	r3, [sp, #100]
    1310:	4d69      	ldr	r5, [pc, #420]	(14b8 <Heap_Size+0x4b8>)
    1312:	f003 031f 	and.w	r3, r3, #31	; 0x1f
    1316:	431a      	orrs	r2, r3
    1318:	80aa      	strh	r2, [r5, #4]
    131a:	4620      	mov	r0, r4
    131c:	4641      	mov	r1, r8
    131e:	f7ff f951 	bl	5c4 <xatoi>
    1322:	2800      	cmp	r0, #0
    1324:	f43f ab5e 	beq.w	9e4 <ff_test_term+0x30>
    1328:	4620      	mov	r0, r4
    132a:	4639      	mov	r1, r7
    132c:	f7ff f94a 	bl	5c4 <xatoi>
    1330:	2800      	cmp	r0, #0
    1332:	f43f ab57 	beq.w	9e4 <ff_test_term+0x30>
    1336:	4620      	mov	r0, r4
    1338:	4631      	mov	r1, r6
    133a:	f7ff f943 	bl	5c4 <xatoi>
    133e:	2800      	cmp	r0, #0
    1340:	f43f ab50 	beq.w	9e4 <ff_test_term+0x30>
    1344:	9a1b      	ldr	r2, [sp, #108]
    1346:	9b1a      	ldr	r3, [sp, #104]
    1348:	f002 021f 	and.w	r2, r2, #31	; 0x1f
    134c:	f003 033f 	and.w	r3, r3, #63	; 0x3f
    1350:	02d2      	lsls	r2, r2, #11
    1352:	ea42 1243 	orr.w	r2, r2, r3, lsl #5
    1356:	9b19      	ldr	r3, [sp, #100]
    1358:	981c      	ldr	r0, [sp, #112]
    135a:	f3c3 0344 	ubfx	r3, r3, #1, #5
    135e:	431a      	orrs	r2, r3
    1360:	80ea      	strh	r2, [r5, #6]
    1362:	4629      	mov	r1, r5
    1364:	f002 f84c 	bl	3400 <f_utime>
    1368:	e09c      	b.n	14a4 <Heap_Size+0x4a4>
    136a:	1c43      	adds	r3, r0, #1
    136c:	931c      	str	r3, [sp, #112]
    136e:	981c      	ldr	r0, [sp, #112]
    1370:	7803      	ldrb	r3, [r0, #0]
    1372:	2b20      	cmp	r3, #32
    1374:	d0f9      	beq.n	136a <Heap_Size+0x36a>
    1376:	2120      	movs	r1, #32
    1378:	f7ff f9c2 	bl	700 <xstrchr>
    137c:	4601      	mov	r1, r0
    137e:	2800      	cmp	r0, #0
    1380:	f43f ab30 	beq.w	9e4 <ff_test_term+0x30>
    1384:	2300      	movs	r3, #0
    1386:	f801 3b01 	strb.w	r3, [r1], #1
    138a:	460d      	mov	r5, r1
    138c:	e000      	b.n	1390 <Heap_Size+0x390>
    138e:	3501      	adds	r5, #1
    1390:	782b      	ldrb	r3, [r5, #0]
    1392:	2b20      	cmp	r3, #32
    1394:	d0fb      	beq.n	138e <Heap_Size+0x38e>
    1396:	4849      	ldr	r0, [pc, #292]	(14bc <Heap_Size+0x4bc>)
    1398:	991c      	ldr	r1, [sp, #112]
    139a:	f7ff f9bb 	bl	714 <xprintf>
    139e:	4845      	ldr	r0, [pc, #276]	(14b4 <Heap_Size+0x4b4>)
    13a0:	991c      	ldr	r1, [sp, #112]
    13a2:	2201      	movs	r2, #1
    13a4:	f002 fbce 	bl	3b44 <f_open>
    13a8:	4604      	mov	r4, r0
    13aa:	200a      	movs	r0, #10
    13ac:	f7ff f8f0 	bl	590 <xputc>
    13b0:	b10c      	cbz	r4, 13b6 <Heap_Size+0x3b6>
    13b2:	4620      	mov	r0, r4
    13b4:	e076      	b.n	14a4 <Heap_Size+0x4a4>
    13b6:	4842      	ldr	r0, [pc, #264]	(14c0 <Heap_Size+0x4c0>)
    13b8:	4629      	mov	r1, r5
    13ba:	f7ff f9ab 	bl	714 <xprintf>
    13be:	4841      	ldr	r0, [pc, #260]	(14c4 <Heap_Size+0x4c4>)
    13c0:	4629      	mov	r1, r5
    13c2:	220a      	movs	r2, #10
    13c4:	f002 fbbe 	bl	3b44 <f_open>
    13c8:	4604      	mov	r4, r0
    13ca:	200a      	movs	r0, #10
    13cc:	f7ff f8e0 	bl	590 <xputc>
    13d0:	b124      	cbz	r4, 13dc <Heap_Size+0x3dc>
    13d2:	4620      	mov	r0, r4
    13d4:	f7ff fa8a 	bl	8ec <put_rc>
    13d8:	4836      	ldr	r0, [pc, #216]	(14b4 <Heap_Size+0x4b4>)
    13da:	e027      	b.n	142c <Heap_Size+0x42c>
    13dc:	483a      	ldr	r0, [pc, #232]	(14c8 <Heap_Size+0x4c8>)
    13de:	f7ff f999 	bl	714 <xprintf>
    13e2:	4b32      	ldr	r3, [pc, #200]	(14ac <Heap_Size+0x4ac>)
    13e4:	941b      	str	r4, [sp, #108]
    13e6:	601c      	str	r4, [r3, #0]
    13e8:	4832      	ldr	r0, [pc, #200]	(14b4 <Heap_Size+0x4b4>)
    13ea:	4938      	ldr	r1, [pc, #224]	(14cc <Heap_Size+0x4cc>)
    13ec:	465a      	mov	r2, fp
    13ee:	ab18      	add	r3, sp, #96
    13f0:	f001 f832 	bl	2458 <f_read>
    13f4:	b970      	cbnz	r0, 1414 <Heap_Size+0x414>
    13f6:	9a18      	ldr	r2, [sp, #96]
    13f8:	b162      	cbz	r2, 1414 <Heap_Size+0x414>
    13fa:	ab17      	add	r3, sp, #92
    13fc:	4831      	ldr	r0, [pc, #196]	(14c4 <Heap_Size+0x4c4>)
    13fe:	4933      	ldr	r1, [pc, #204]	(14cc <Heap_Size+0x4cc>)
    1400:	f001 fa26 	bl	2850 <f_write>
    1404:	9b1b      	ldr	r3, [sp, #108]
    1406:	9a17      	ldr	r2, [sp, #92]
    1408:	189b      	adds	r3, r3, r2
    140a:	931b      	str	r3, [sp, #108]
    140c:	b910      	cbnz	r0, 1414 <Heap_Size+0x414>
    140e:	9b18      	ldr	r3, [sp, #96]
    1410:	429a      	cmp	r2, r3
    1412:	d2e9      	bcs.n	13e8 <Heap_Size+0x3e8>
    1414:	4b25      	ldr	r3, [pc, #148]	(14ac <Heap_Size+0x4ac>)
    1416:	991b      	ldr	r1, [sp, #108]
    1418:	681a      	ldr	r2, [r3, #0]
    141a:	482d      	ldr	r0, [pc, #180]	(14d0 <Heap_Size+0x4d0>)
    141c:	fbb1 f2f2 	udiv	r2, r1, r2
    1420:	f7ff f978 	bl	714 <xprintf>
    1424:	4823      	ldr	r0, [pc, #140]	(14b4 <Heap_Size+0x4b4>)
    1426:	f001 fd3f 	bl	2ea8 <f_close>
    142a:	4826      	ldr	r0, [pc, #152]	(14c4 <Heap_Size+0x4c4>)
    142c:	f001 fd3c 	bl	2ea8 <f_close>
    1430:	f7ff bad8 	b.w	9e4 <ff_test_term+0x30>
    1434:	1c43      	adds	r3, r0, #1
    1436:	931c      	str	r3, [sp, #112]
    1438:	981c      	ldr	r0, [sp, #112]
    143a:	7803      	ldrb	r3, [r0, #0]
    143c:	2b20      	cmp	r3, #32
    143e:	d0f9      	beq.n	1434 <Heap_Size+0x434>
    1440:	f002 f8f0 	bl	3624 <f_chdir>
    1444:	e02e      	b.n	14a4 <Heap_Size+0x4a4>
    1446:	a81c      	add	r0, sp, #112
    1448:	a91b      	add	r1, sp, #108
    144a:	f7ff f8bb 	bl	5c4 <xatoi>
    144e:	2800      	cmp	r0, #0
    1450:	f43f aac8 	beq.w	9e4 <ff_test_term+0x30>
    1454:	f89d 006c 	ldrb.w	r0, [sp, #108]
    1458:	f000 f99c 	bl	1794 <f_chdrive>
    145c:	e022      	b.n	14a4 <Heap_Size+0x4a4>
    145e:	ac1c      	add	r4, sp, #112
    1460:	4620      	mov	r0, r4
    1462:	a91a      	add	r1, sp, #104
    1464:	f7ff f8ae 	bl	5c4 <xatoi>
    1468:	2800      	cmp	r0, #0
    146a:	f43f aabb 	beq.w	9e4 <ff_test_term+0x30>
    146e:	4620      	mov	r0, r4
    1470:	a919      	add	r1, sp, #100
    1472:	f7ff f8a7 	bl	5c4 <xatoi>
    1476:	2800      	cmp	r0, #0
    1478:	f43f aab4 	beq.w	9e4 <ff_test_term+0x30>
    147c:	4815      	ldr	r0, [pc, #84]	(14d4 <Heap_Size+0x4d4>)
    147e:	f7ff f949 	bl	714 <xprintf>
    1482:	981c      	ldr	r0, [sp, #112]
    1484:	f44f 6180 	mov.w	r1, #1024	; 0x400
    1488:	f7ff f8f6 	bl	678 <get_line>
    148c:	9b1c      	ldr	r3, [sp, #112]
    148e:	781b      	ldrb	r3, [r3, #0]
    1490:	2b59      	cmp	r3, #89
    1492:	f47f aaa7 	bne.w	9e4 <ff_test_term+0x30>
    1496:	2000      	movs	r0, #0
    1498:	f89d 1068 	ldrb.w	r1, [sp, #104]
    149c:	f8bd 2064 	ldrh.w	r2, [sp, #100]
    14a0:	f000 f982 	bl	17a8 <f_mkfs>
    14a4:	f7ff fa22 	bl	8ec <put_rc>
    14a8:	f7ff ba9c 	b.w	9e4 <ff_test_term+0x30>
    14ac:	10000b70 	.word	0x10000b70
    14b0:	00006545 	.word	0x00006545
    14b4:	10000928 	.word	0x10000928
    14b8:	10000b4c 	.word	0x10000b4c
    14bc:	00006569 	.word	0x00006569
    14c0:	00006576 	.word	0x00006576
    14c4:	10001b74 	.word	0x10001b74
    14c8:	00006584 	.word	0x00006584
    14cc:	10000b74 	.word	0x10000b74
    14d0:	00006594 	.word	0x00006594
    14d4:	000065b7 	.word	0x000065b7
    14d8:	a81c      	add	r0, sp, #112
    14da:	a91b      	add	r1, sp, #108
    14dc:	f7ff f872 	bl	5c4 <xatoi>
    14e0:	b130      	cbz	r0, 14f0 <Heap_Size+0x4f0>
    14e2:	9b1b      	ldr	r3, [sp, #108]
    14e4:	2b00      	cmp	r3, #0
    14e6:	dd03      	ble.n	14f0 <Heap_Size+0x4f0>
    14e8:	f5b3 5f80 	cmp.w	r3, #4096	; 0x1000
    14ec:	bf98      	it	ls
    14ee:	469b      	movls	fp, r3
    14f0:	4823      	ldr	r0, [pc, #140]	(1580 <Heap_Size+0x580>)
    14f2:	4659      	mov	r1, fp
    14f4:	f7ff bb0a 	b.w	b0c <ff_test_term+0x158>
    14f8:	ac1c      	add	r4, sp, #112
    14fa:	ad1b      	add	r5, sp, #108
    14fc:	4620      	mov	r0, r4
    14fe:	4629      	mov	r1, r5
    1500:	f7ff f860 	bl	5c4 <xatoi>
    1504:	b358      	cbz	r0, 155e <Heap_Size+0x55e>
    1506:	f8bd 306c 	ldrh.w	r3, [sp, #108]
    150a:	4629      	mov	r1, r5
    150c:	4620      	mov	r0, r4
    150e:	9314      	str	r3, [sp, #80]
    1510:	f7ff f858 	bl	5c4 <xatoi>
    1514:	f89d 306c 	ldrb.w	r3, [sp, #108]
    1518:	4629      	mov	r1, r5
    151a:	4620      	mov	r0, r4
    151c:	9313      	str	r3, [sp, #76]
    151e:	f7ff f851 	bl	5c4 <xatoi>
    1522:	f89d 306c 	ldrb.w	r3, [sp, #108]
    1526:	4629      	mov	r1, r5
    1528:	4620      	mov	r0, r4
    152a:	9310      	str	r3, [sp, #64]
    152c:	f7ff f84a 	bl	5c4 <xatoi>
    1530:	f89d 306c 	ldrb.w	r3, [sp, #108]
    1534:	4629      	mov	r1, r5
    1536:	4620      	mov	r0, r4
    1538:	930f      	str	r3, [sp, #60]
    153a:	f7ff f843 	bl	5c4 <xatoi>
    153e:	f89d 306c 	ldrb.w	r3, [sp, #108]
    1542:	4620      	mov	r0, r4
    1544:	4629      	mov	r1, r5
    1546:	930e      	str	r3, [sp, #56]
    1548:	f7ff f83c 	bl	5c4 <xatoi>
    154c:	2800      	cmp	r0, #0
    154e:	f43f aa49 	beq.w	9e4 <ff_test_term+0x30>
    1552:	f89d 306c 	ldrb.w	r3, [sp, #108]
    1556:	a80d      	add	r0, sp, #52
    1558:	930d      	str	r3, [sp, #52]
    155a:	f000 f839 	bl	15d0 <rtc_cal_settime>
    155e:	a80d      	add	r0, sp, #52
    1560:	f000 f812 	bl	1588 <rtc_cal_gettime>
    1564:	9b0f      	ldr	r3, [sp, #60]
    1566:	4807      	ldr	r0, [pc, #28]	(1584 <Heap_Size+0x584>)
    1568:	9300      	str	r3, [sp, #0]
    156a:	9b0e      	ldr	r3, [sp, #56]
    156c:	9914      	ldr	r1, [sp, #80]
    156e:	9301      	str	r3, [sp, #4]
    1570:	9b0d      	ldr	r3, [sp, #52]
    1572:	9a13      	ldr	r2, [sp, #76]
    1574:	9302      	str	r3, [sp, #8]
    1576:	9b10      	ldr	r3, [sp, #64]
    1578:	f7ff f8cc 	bl	714 <xprintf>
    157c:	f7ff ba32 	b.w	9e4 <ff_test_term+0x30>
    1580:	000065e8 	.word	0x000065e8
    1584:	000065f1 	.word	0x000065f1

00001588 <rtc_cal_gettime>:
    1588:	b510      	push	{r4, lr}
    158a:	4c10      	ldr	r4, [pc, #64]	(15cc <rtc_cal_gettime+0x44>)
    158c:	6962      	ldr	r2, [r4, #20]
    158e:	69a1      	ldr	r1, [r4, #24]
    1590:	6963      	ldr	r3, [r4, #20]
    1592:	429a      	cmp	r2, r3
    1594:	d1f9      	bne.n	158a <rtc_cal_gettime+0x2>
    1596:	69a3      	ldr	r3, [r4, #24]
    1598:	4299      	cmp	r1, r3
    159a:	d1f6      	bne.n	158a <rtc_cal_gettime+0x2>
    159c:	f002 033f 	and.w	r3, r2, #63	; 0x3f
    15a0:	6003      	str	r3, [r0, #0]
    15a2:	f3c2 2305 	ubfx	r3, r2, #8, #6
    15a6:	6043      	str	r3, [r0, #4]
    15a8:	f3c2 4304 	ubfx	r3, r2, #16, #5
    15ac:	6083      	str	r3, [r0, #8]
    15ae:	f001 031f 	and.w	r3, r1, #31	; 0x1f
    15b2:	60c3      	str	r3, [r0, #12]
    15b4:	f3c1 2303 	ubfx	r3, r1, #8, #4
    15b8:	6183      	str	r3, [r0, #24]
    15ba:	f3c1 430b 	ubfx	r3, r1, #16, #12
    15be:	61c3      	str	r3, [r0, #28]
    15c0:	f894 005c 	ldrb.w	r0, [r4, #92]
    15c4:	f3c0 1000 	ubfx	r0, r0, #4, #1
    15c8:	bd10      	pop	{r4, pc}
    15ca:	46c0      	nop			(mov r8, r8)
    15cc:	40024000 	.word	0x40024000

000015d0 <rtc_cal_settime>:
    15d0:	b570      	push	{r4, r5, r6, lr}
    15d2:	4c07      	ldr	r4, [pc, #28]	(15f0 <rtc_cal_settime+0x20>)
    15d4:	4605      	mov	r5, r0
    15d6:	2100      	movs	r1, #0
    15d8:	4620      	mov	r0, r4
    15da:	f003 fdc3 	bl	5164 <RTC_Cmd>
    15de:	4620      	mov	r0, r4
    15e0:	4629      	mov	r1, r5
    15e2:	f003 fdc9 	bl	5178 <RTC_SetFullTime>
    15e6:	4620      	mov	r0, r4
    15e8:	2101      	movs	r1, #1
    15ea:	f003 fdbb 	bl	5164 <RTC_Cmd>
    15ee:	bd70      	pop	{r4, r5, r6, pc}
    15f0:	40024000 	.word	0x40024000

000015f4 <rtc_cal_config>:
    15f4:	b570      	push	{r4, r5, r6, lr}
    15f6:	2100      	movs	r1, #0
    15f8:	f1c0 74fa 	rsb	r4, r0, #32768000	; 0x1f40000
    15fc:	4605      	mov	r5, r0
    15fe:	4811      	ldr	r0, [pc, #68]	(1644 <rtc_cal_config+0x50>)
    1600:	f003 fde2 	bl	51c8 <RTC_CalibCounterCmd>
    1604:	f104 03fa 	add.w	r3, r4, #250	; 0xfa
    1608:	f5b3 7ffa 	cmp.w	r3, #500	; 0x1f4
    160c:	d802      	bhi.n	1614 <rtc_cal_config+0x20>
    160e:	480d      	ldr	r0, [pc, #52]	(1644 <rtc_cal_config+0x50>)
    1610:	2100      	movs	r1, #0
    1612:	e014      	b.n	163e <rtc_cal_config+0x4a>
    1614:	2cfa      	cmp	r4, #250
    1616:	dd06      	ble.n	1626 <rtc_cal_config+0x32>
    1618:	f04f 71fa 	mov.w	r1, #32768000	; 0x1f40000
    161c:	4809      	ldr	r0, [pc, #36]	(1644 <rtc_cal_config+0x50>)
    161e:	fbb1 f1f4 	udiv	r1, r1, r4
    1622:	2200      	movs	r2, #0
    1624:	e007      	b.n	1636 <rtc_cal_config+0x42>
    1626:	f1a5 73fa 	sub.w	r3, r5, #32768000	; 0x1f40000
    162a:	f04f 71fa 	mov.w	r1, #32768000	; 0x1f40000
    162e:	4805      	ldr	r0, [pc, #20]	(1644 <rtc_cal_config+0x50>)
    1630:	fbb1 f1f3 	udiv	r1, r1, r3
    1634:	2201      	movs	r2, #1
    1636:	f003 fdd1 	bl	51dc <RTC_CalibConfig>
    163a:	4802      	ldr	r0, [pc, #8]	(1644 <rtc_cal_config+0x50>)
    163c:	2101      	movs	r1, #1
    163e:	f003 fdc3 	bl	51c8 <RTC_CalibCounterCmd>
    1642:	bd70      	pop	{r4, r5, r6, pc}
    1644:	40024000 	.word	0x40024000

00001648 <rtc_cal_init>:
    1648:	b570      	push	{r4, r5, r6, lr}
    164a:	4c0a      	ldr	r4, [pc, #40]	(1674 <rtc_cal_init+0x2c>)
    164c:	4605      	mov	r5, r0
    164e:	4620      	mov	r0, r4
    1650:	f003 fdd2 	bl	51f8 <RTC_Init>
    1654:	2310      	movs	r3, #16
    1656:	f884 305c 	strb.w	r3, [r4, #92]
    165a:	f04f 70fa 	mov.w	r0, #32768000	; 0x1f40000
    165e:	f7ff ffc9 	bl	15f4 <rtc_cal_config>
    1662:	4620      	mov	r0, r4
    1664:	4629      	mov	r1, r5
    1666:	f003 fd87 	bl	5178 <RTC_SetFullTime>
    166a:	4620      	mov	r0, r4
    166c:	2101      	movs	r1, #1
    166e:	f003 fd79 	bl	5164 <RTC_Cmd>
    1672:	bd70      	pop	{r4, r5, r6, pc}
    1674:	40024000 	.word	0x40024000

00001678 <mem_cpy>:
    1678:	b500      	push	{lr}
    167a:	f04f 0e00 	mov.w	lr, #0	; 0x0
    167e:	e005      	b.n	168c <mem_cpy+0x14>
    1680:	f81e 3001 	ldrb.w	r3, [lr, r1]
    1684:	f80e 3000 	strb.w	r3, [lr, r0]
    1688:	f10e 0e01 	add.w	lr, lr, #1	; 0x1
    168c:	3a01      	subs	r2, #1
    168e:	d2f7      	bcs.n	1680 <mem_cpy+0x8>
    1690:	bd00      	pop	{pc}
    1692:	46c0      	nop			(mov r8, r8)

00001694 <mem_set>:
    1694:	2300      	movs	r3, #0
    1696:	e001      	b.n	169c <mem_set+0x8>
    1698:	5419      	strb	r1, [r3, r0]
    169a:	3301      	adds	r3, #1
    169c:	3a01      	subs	r2, #1
    169e:	d2fb      	bcs.n	1698 <mem_set+0x4>
    16a0:	4770      	bx	lr
    16a2:	46c0      	nop			(mov r8, r8)

000016a4 <chk_chr>:
    16a4:	4603      	mov	r3, r0
    16a6:	e000      	b.n	16aa <chk_chr+0x6>
    16a8:	3301      	adds	r3, #1
    16aa:	7818      	ldrb	r0, [r3, #0]
    16ac:	b108      	cbz	r0, 16b2 <chk_chr+0xe>
    16ae:	4288      	cmp	r0, r1
    16b0:	d1fa      	bne.n	16a8 <chk_chr+0x4>
    16b2:	4770      	bx	lr

000016b4 <clust2sect>:
    16b4:	69c3      	ldr	r3, [r0, #28]
    16b6:	3902      	subs	r1, #2
    16b8:	3b02      	subs	r3, #2
    16ba:	4299      	cmp	r1, r3
    16bc:	d301      	bcc.n	16c2 <clust2sect+0xe>
    16be:	2000      	movs	r0, #0
    16c0:	e003      	b.n	16ca <clust2sect+0x16>
    16c2:	7882      	ldrb	r2, [r0, #2]
    16c4:	6ac3      	ldr	r3, [r0, #44]
    16c6:	fb02 3001 	mla	r0, r2, r1, r3
    16ca:	4770      	bx	lr

000016cc <gen_numname>:
    16cc:	b573      	push	{r0, r1, r4, r5, r6, lr}
    16ce:	461c      	mov	r4, r3
    16d0:	4615      	mov	r5, r2
    16d2:	220b      	movs	r2, #11
    16d4:	4606      	mov	r6, r0
    16d6:	f7ff ffcf 	bl	1678 <mem_cpy>
    16da:	2c05      	cmp	r4, #5
    16dc:	d90a      	bls.n	16f4 <gen_numname+0x28>
    16de:	4629      	mov	r1, r5
    16e0:	03e3      	lsls	r3, r4, #15
    16e2:	880a      	ldrh	r2, [r1, #0]
    16e4:	ea43 0354 	orr.w	r3, r3, r4, lsr #1
    16e8:	189b      	adds	r3, r3, r2
    16ea:	b29c      	uxth	r4, r3
    16ec:	f831 3f02 	ldrh.w	r3, [r1, #2]!
    16f0:	2b00      	cmp	r3, #0
    16f2:	d1f5      	bne.n	16e0 <gen_numname+0x14>
    16f4:	2107      	movs	r1, #7
    16f6:	f004 030f 	and.w	r3, r4, #15	; 0xf
    16fa:	f103 0230 	add.w	r2, r3, #48	; 0x30
    16fe:	2a39      	cmp	r2, #57
    1700:	bf88      	it	hi
    1702:	3207      	addhi	r2, #7
    1704:	f80d 2001 	strb.w	r2, [sp, r1]
    1708:	3901      	subs	r1, #1
    170a:	0924      	lsrs	r4, r4, #4
    170c:	d1f3      	bne.n	16f6 <gen_numname+0x2a>
    170e:	ab02      	add	r3, sp, #8
    1710:	185a      	adds	r2, r3, r1
    1712:	237e      	movs	r3, #126
    1714:	f802 3c08 	strb.w	r3, [r2, #-8]
    1718:	4622      	mov	r2, r4
    171a:	e000      	b.n	171e <gen_numname+0x52>
    171c:	3201      	adds	r2, #1
    171e:	428a      	cmp	r2, r1
    1720:	db01      	blt.n	1726 <gen_numname+0x5a>
    1722:	18b0      	adds	r0, r6, r2
    1724:	e003      	b.n	172e <gen_numname+0x62>
    1726:	5d93      	ldrb	r3, [r2, r6]
    1728:	2b20      	cmp	r3, #32
    172a:	d1f7      	bne.n	171c <gen_numname+0x50>
    172c:	e7f9      	b.n	1722 <gen_numname+0x56>
    172e:	2907      	cmp	r1, #7
    1730:	dd01      	ble.n	1736 <gen_numname+0x6a>
    1732:	2320      	movs	r3, #32
    1734:	e004      	b.n	1740 <gen_numname+0x74>
    1736:	ac02      	add	r4, sp, #8
    1738:	1863      	adds	r3, r4, r1
    173a:	f813 3c08 	ldrb.w	r3, [r3, #-8]
    173e:	3101      	adds	r1, #1
    1740:	3201      	adds	r2, #1
    1742:	2a07      	cmp	r2, #7
    1744:	f800 3b01 	strb.w	r3, [r0], #1
    1748:	ddf1      	ble.n	172e <gen_numname+0x62>
    174a:	bd7c      	pop	{r2, r3, r4, r5, r6, pc}

0000174c <sum_sfn>:
    174c:	b510      	push	{r4, lr}
    174e:	210b      	movs	r1, #11
    1750:	4604      	mov	r4, r0
    1752:	2000      	movs	r0, #0
    1754:	01c3      	lsls	r3, r0, #7
    1756:	f814 2b01 	ldrb.w	r2, [r4], #1
    175a:	ea43 0350 	orr.w	r3, r3, r0, lsr #1
    175e:	189b      	adds	r3, r3, r2
    1760:	f111 31ff 	adds.w	r1, r1, #4294967295	; 0xffffffff
    1764:	b2d8      	uxtb	r0, r3
    1766:	d1f5      	bne.n	1754 <sum_sfn+0x8>
    1768:	bd10      	pop	{r4, pc}
    176a:	46c0      	nop			(mov r8, r8)

0000176c <f_mount>:
    176c:	2801      	cmp	r0, #1
    176e:	b510      	push	{r4, lr}
    1770:	d901      	bls.n	1776 <f_mount+0xa>
    1772:	200b      	movs	r0, #11
    1774:	e00b      	b.n	178e <f_mount+0x22>
    1776:	4c06      	ldr	r4, [pc, #24]	(1790 <f_mount+0x24>)
    1778:	f854 2020 	ldr.w	r2, [r4, r0, lsl #2]
    177c:	b10a      	cbz	r2, 1782 <f_mount+0x16>
    177e:	2300      	movs	r3, #0
    1780:	7013      	strb	r3, [r2, #0]
    1782:	b109      	cbz	r1, 1788 <f_mount+0x1c>
    1784:	2300      	movs	r3, #0
    1786:	700b      	strb	r3, [r1, #0]
    1788:	f844 1020 	str.w	r1, [r4, r0, lsl #2]
    178c:	2000      	movs	r0, #0
    178e:	bd10      	pop	{r4, pc}
    1790:	10000434 	.word	0x10000434

00001794 <f_chdrive>:
    1794:	2801      	cmp	r0, #1
    1796:	d901      	bls.n	179c <f_chdrive+0x8>
    1798:	200b      	movs	r0, #11
    179a:	e002      	b.n	17a2 <f_chdrive+0xe>
    179c:	4b01      	ldr	r3, [pc, #4]	(17a4 <f_chdrive+0x10>)
    179e:	7018      	strb	r0, [r3, #0]
    17a0:	2000      	movs	r0, #0
    17a2:	4770      	bx	lr
    17a4:	10000232 	.word	0x10000232

000017a8 <f_mkfs>:
    17a8:	e92d 4ff0 	stmdb	sp!, {r4, r5, r6, r7, r8, r9, sl, fp, lr}
    17ac:	2801      	cmp	r0, #1
    17ae:	b089      	sub	sp, #36
    17b0:	4681      	mov	r9, r0
    17b2:	460f      	mov	r7, r1
    17b4:	4615      	mov	r5, r2
    17b6:	d901      	bls.n	17bc <f_mkfs+0x14>
    17b8:	200b      	movs	r0, #11
    17ba:	e2c1      	b.n	1d40 <f_mkfs+0x598>
    17bc:	4ba4      	ldr	r3, [pc, #656]	(1a50 <f_mkfs+0x2a8>)
    17be:	f853 4020 	ldr.w	r4, [r3, r0, lsl #2]
    17c2:	b90c      	cbnz	r4, 17c8 <f_mkfs+0x20>
    17c4:	200c      	movs	r0, #12
    17c6:	e2bb      	b.n	1d40 <f_mkfs+0x598>
    17c8:	2300      	movs	r3, #0
    17ca:	7023      	strb	r3, [r4, #0]
    17cc:	f002 fb18 	bl	3e00 <disk_initialize>
    17d0:	f010 0f01 	tst.w	r0, #1	; 0x1
    17d4:	d001      	beq.n	17da <f_mkfs+0x32>
    17d6:	2003      	movs	r0, #3
    17d8:	e2b2      	b.n	1d40 <f_mkfs+0x598>
    17da:	f010 0f04 	tst.w	r0, #4	; 0x4
    17de:	d001      	beq.n	17e4 <f_mkfs+0x3c>
    17e0:	200a      	movs	r0, #10
    17e2:	e2ad      	b.n	1d40 <f_mkfs+0x598>
    17e4:	4648      	mov	r0, r9
    17e6:	2101      	movs	r1, #1
    17e8:	aa06      	add	r2, sp, #24
    17ea:	f002 fa8f 	bl	3d0c <disk_ioctl>
    17ee:	4606      	mov	r6, r0
    17f0:	2800      	cmp	r0, #0
    17f2:	f040 8299 	bne.w	1d28 <f_mkfs+0x580>
    17f6:	9b06      	ldr	r3, [sp, #24]
    17f8:	2b7f      	cmp	r3, #127
    17fa:	f240 8295 	bls.w	1d28 <f_mkfs+0x580>
    17fe:	2f01      	cmp	r7, #1
    1800:	bf14      	ite	ne
    1802:	f04f 0b3f 	movne.w	fp, #63	; 0x3f
    1806:	f04f 0b00 	moveq.w	fp, #0	; 0x0
    180a:	ebcb 0103 	rsb	r1, fp, r3
    180e:	1e6b      	subs	r3, r5, #1
    1810:	422b      	tst	r3, r5
    1812:	9106      	str	r1, [sp, #24]
    1814:	d100      	bne.n	1818 <f_mkfs+0x70>
    1816:	b975      	cbnz	r5, 1836 <f_mkfs+0x8e>
    1818:	f44f 63fa 	mov.w	r3, #2000	; 0x7d0
    181c:	fbb1 f2f3 	udiv	r2, r1, r3
    1820:	4630      	mov	r0, r6
    1822:	e000      	b.n	1826 <f_mkfs+0x7e>
    1824:	3001      	adds	r0, #1
    1826:	4b8b      	ldr	r3, [pc, #556]	(1a54 <f_mkfs+0x2ac>)
    1828:	f833 3010 	ldrh.w	r3, [r3, r0, lsl #1]
    182c:	429a      	cmp	r2, r3
    182e:	d3f9      	bcc.n	1824 <f_mkfs+0x7c>
    1830:	4b89      	ldr	r3, [pc, #548]	(1a58 <f_mkfs+0x2b0>)
    1832:	f833 5010 	ldrh.w	r5, [r3, r0, lsl #1]
    1836:	0a6e      	lsrs	r6, r5, #9
    1838:	d101      	bne.n	183e <f_mkfs+0x96>
    183a:	2601      	movs	r6, #1
    183c:	e002      	b.n	1844 <f_mkfs+0x9c>
    183e:	2e80      	cmp	r6, #128
    1840:	bf28      	it	cs
    1842:	2680      	movcs	r6, #128
    1844:	fbb1 f2f6 	udiv	r2, r1, r6
    1848:	f640 73f5 	movw	r3, #4085	; 0xff5
    184c:	429a      	cmp	r2, r3
    184e:	d904      	bls.n	185a <f_mkfs+0xb2>
    1850:	f503 4370 	add.w	r3, r3, #61440	; 0xf000
    1854:	429a      	cmp	r2, r3
    1856:	d808      	bhi.n	186a <f_mkfs+0xc2>
    1858:	e26e      	b.n	1d38 <f_mkfs+0x590>
    185a:	2303      	movs	r3, #3
    185c:	fb02 f303 	mul.w	r3, r2, r3
    1860:	3301      	adds	r3, #1
    1862:	085b      	lsrs	r3, r3, #1
    1864:	3303      	adds	r3, #3
    1866:	2201      	movs	r2, #1
    1868:	e00c      	b.n	1884 <f_mkfs+0xdc>
    186a:	0093      	lsls	r3, r2, #2
    186c:	f503 7300 	add.w	r3, r3, #512	; 0x200
    1870:	3307      	adds	r3, #7
    1872:	ea4f 2853 	mov.w	r8, r3, lsr #9
    1876:	2203      	movs	r2, #3
    1878:	2300      	movs	r3, #0
    187a:	f04f 0a20 	mov.w	sl, #32	; 0x20
    187e:	9304      	str	r3, [sp, #16]
    1880:	9201      	str	r2, [sp, #4]
    1882:	e009      	b.n	1898 <f_mkfs+0xf0>
    1884:	f503 73fe 	add.w	r3, r3, #508	; 0x1fc
    1888:	3303      	adds	r3, #3
    188a:	ea4f 2853 	mov.w	r8, r3, lsr #9
    188e:	2320      	movs	r3, #32
    1890:	9201      	str	r2, [sp, #4]
    1892:	f04f 0a01 	mov.w	sl, #1	; 0x1
    1896:	9304      	str	r3, [sp, #16]
    1898:	eb0a 020b 	add.w	r2, sl, fp
    189c:	9203      	str	r2, [sp, #12]
    189e:	9a04      	ldr	r2, [sp, #16]
    18a0:	eb02 0308 	add.w	r3, r2, r8
    18a4:	9a03      	ldr	r2, [sp, #12]
    18a6:	189d      	adds	r5, r3, r2
    18a8:	19ab      	adds	r3, r5, r6
    18aa:	4299      	cmp	r1, r3
    18ac:	f0c0 823e 	bcc.w	1d2c <f_mkfs+0x584>
    18b0:	4648      	mov	r0, r9
    18b2:	2103      	movs	r1, #3
    18b4:	aa07      	add	r2, sp, #28
    18b6:	f002 fa29 	bl	3d0c <disk_ioctl>
    18ba:	2800      	cmp	r0, #0
    18bc:	f040 8234 	bne.w	1d28 <f_mkfs+0x580>
    18c0:	9a07      	ldr	r2, [sp, #28]
    18c2:	1e53      	subs	r3, r2, #1
    18c4:	f5b3 4f00 	cmp.w	r3, #32768	; 0x8000
    18c8:	f080 8230 	bcs.w	1d2c <f_mkfs+0x584>
    18cc:	4252      	negs	r2, r2
    18ce:	195b      	adds	r3, r3, r5
    18d0:	4013      	ands	r3, r2
    18d2:	1b5a      	subs	r2, r3, r5
    18d4:	9b01      	ldr	r3, [sp, #4]
    18d6:	9207      	str	r2, [sp, #28]
    18d8:	2b03      	cmp	r3, #3
    18da:	d104      	bne.n	18e6 <f_mkfs+0x13e>
    18dc:	9903      	ldr	r1, [sp, #12]
    18de:	4492      	add	sl, r2
    18e0:	1889      	adds	r1, r1, r2
    18e2:	9103      	str	r1, [sp, #12]
    18e4:	e000      	b.n	18e8 <f_mkfs+0x140>
    18e6:	4490      	add	r8, r2
    18e8:	9a06      	ldr	r2, [sp, #24]
    18ea:	9904      	ldr	r1, [sp, #16]
    18ec:	ebca 0302 	rsb	r3, sl, r2
    18f0:	ebc8 0303 	rsb	r3, r8, r3
    18f4:	1a5b      	subs	r3, r3, r1
    18f6:	fbb3 f3f6 	udiv	r3, r3, r6
    18fa:	9305      	str	r3, [sp, #20]
    18fc:	9b01      	ldr	r3, [sp, #4]
    18fe:	2b02      	cmp	r3, #2
    1900:	d102      	bne.n	1908 <f_mkfs+0x160>
    1902:	f640 73f5 	movw	r3, #4085	; 0xff5
    1906:	e004      	b.n	1912 <f_mkfs+0x16a>
    1908:	9b01      	ldr	r3, [sp, #4]
    190a:	2b03      	cmp	r3, #3
    190c:	d105      	bne.n	191a <f_mkfs+0x172>
    190e:	f64f 73f5 	movw	r3, #65525	; 0xfff5
    1912:	9905      	ldr	r1, [sp, #20]
    1914:	4299      	cmp	r1, r3
    1916:	f240 8209 	bls.w	1d2c <f_mkfs+0x584>
    191a:	2f01      	cmp	r7, #1
    191c:	d102      	bne.n	1924 <f_mkfs+0x17c>
    191e:	22f0      	movs	r2, #240
    1920:	9202      	str	r2, [sp, #8]
    1922:	e058      	b.n	19d6 <f_mkfs+0x22e>
    1924:	f104 0734 	add.w	r7, r4, #52	; 0x34
    1928:	eb0b 0502 	add.w	r5, fp, r2
    192c:	4638      	mov	r0, r7
    192e:	2100      	movs	r1, #0
    1930:	f44f 7200 	mov.w	r2, #512	; 0x200
    1934:	f7ff feae 	bl	1694 <mem_set>
    1938:	f06f 037f 	mvn.w	r3, #127	; 0x7f
    193c:	f884 31f2 	strb.w	r3, [r4, #498]
    1940:	f504 70f9 	add.w	r0, r4, #498	; 0x1f2
    1944:	3381      	adds	r3, #129
    1946:	f884 31f3 	strb.w	r3, [r4, #499]
    194a:	7083      	strb	r3, [r0, #2]
    194c:	3b01      	subs	r3, #1
    194e:	f884 31f5 	strb.w	r3, [r4, #501]
    1952:	4b42      	ldr	r3, [pc, #264]	(1a5c <f_mkfs+0x2b4>)
    1954:	429d      	cmp	r5, r3
    1956:	d80a      	bhi.n	196e <f_mkfs+0x1c6>
    1958:	f643 63c1 	movw	r3, #16065	; 0x3ec1
    195c:	fbb5 f3f3 	udiv	r3, r5, r3
    1960:	f884 31f9 	strb.w	r3, [r4, #505]
    1964:	089b      	lsrs	r3, r3, #2
    1966:	f043 033f 	orr.w	r3, r3, #63	; 0x3f
    196a:	7183      	strb	r3, [r0, #6]
    196c:	e004      	b.n	1978 <f_mkfs+0x1d0>
    196e:	f04f 33ff 	mov.w	r3, #4294967295	; 0xffffffff
    1972:	7183      	strb	r3, [r0, #6]
    1974:	f884 31f9 	strb.w	r3, [r4, #505]
    1978:	f06f 0301 	mvn.w	r3, #1	; 0x1
    197c:	7143      	strb	r3, [r0, #5]
    197e:	9b01      	ldr	r3, [sp, #4]
    1980:	2b03      	cmp	r3, #3
    1982:	d006      	beq.n	1992 <f_mkfs+0x1ea>
    1984:	9b06      	ldr	r3, [sp, #24]
    1986:	f5b3 3f80 	cmp.w	r3, #65536	; 0x10000
    198a:	bf2c      	ite	cs
    198c:	2306      	movcs	r3, #6
    198e:	2304      	movcc	r3, #4
    1990:	e000      	b.n	1994 <f_mkfs+0x1ec>
    1992:	230c      	movs	r3, #12
    1994:	7103      	strb	r3, [r0, #4]
    1996:	2200      	movs	r2, #0
    1998:	233f      	movs	r3, #63
    199a:	7203      	strb	r3, [r0, #8]
    199c:	7242      	strb	r2, [r0, #9]
    199e:	7282      	strb	r2, [r0, #10]
    19a0:	72c2      	strb	r2, [r0, #11]
    19a2:	9b06      	ldr	r3, [sp, #24]
    19a4:	f3c3 2107 	ubfx	r1, r3, #8, #8
    19a8:	7303      	strb	r3, [r0, #12]
    19aa:	7341      	strb	r1, [r0, #13]
    19ac:	0c19      	lsrs	r1, r3, #16
    19ae:	0e1b      	lsrs	r3, r3, #24
    19b0:	73c3      	strb	r3, [r0, #15]
    19b2:	2355      	movs	r3, #85
    19b4:	f880 3040 	strb.w	r3, [r0, #64]
    19b8:	f06f 0355 	mvn.w	r3, #85	; 0x55
    19bc:	7381      	strb	r1, [r0, #14]
    19be:	f880 3041 	strb.w	r3, [r0, #65]
    19c2:	4639      	mov	r1, r7
    19c4:	4648      	mov	r0, r9
    19c6:	3357      	adds	r3, #87
    19c8:	f002 f9cc 	bl	3d64 <disk_write>
    19cc:	2800      	cmp	r0, #0
    19ce:	f040 81ab 	bne.w	1d28 <f_mkfs+0x580>
    19d2:	21f8      	movs	r1, #248
    19d4:	9102      	str	r1, [sp, #8]
    19d6:	f104 0734 	add.w	r7, r4, #52	; 0x34
    19da:	2100      	movs	r1, #0
    19dc:	f44f 7200 	mov.w	r2, #512	; 0x200
    19e0:	4638      	mov	r0, r7
    19e2:	f7ff fe57 	bl	1694 <mem_set>
    19e6:	f06f 0314 	mvn.w	r3, #20	; 0x14
    19ea:	f884 3034 	strb.w	r3, [r4, #52]
    19ee:	3313      	adds	r3, #19
    19f0:	f884 3035 	strb.w	r3, [r4, #53]
    19f4:	f06f 036f 	mvn.w	r3, #111	; 0x6f
    19f8:	f884 3036 	strb.w	r3, [r4, #54]
    19fc:	3370      	adds	r3, #112
    19fe:	f884 3037 	strb.w	r3, [r4, #55]
    1a02:	f884 303f 	strb.w	r3, [r4, #63]
    1a06:	3302      	adds	r3, #2
    1a08:	f884 3040 	strb.w	r3, [r4, #64]
    1a0c:	f3ca 2307 	ubfx	r3, sl, #8, #8
    1a10:	f884 3043 	strb.w	r3, [r4, #67]
    1a14:	2301      	movs	r3, #1
    1a16:	f884 6041 	strb.w	r6, [r4, #65]
    1a1a:	f884 3044 	strb.w	r3, [r4, #68]
    1a1e:	f884 a042 	strb.w	sl, [r4, #66]
    1a22:	9a01      	ldr	r2, [sp, #4]
    1a24:	2a03      	cmp	r2, #3
    1a26:	bf14      	ite	ne
    1a28:	f44f 7600 	movne.w	r6, #512	; 0x200
    1a2c:	2600      	moveq	r6, #0
    1a2e:	0a33      	lsrs	r3, r6, #8
    1a30:	f884 3046 	strb.w	r3, [r4, #70]
    1a34:	f884 6045 	strb.w	r6, [r4, #69]
    1a38:	9a06      	ldr	r2, [sp, #24]
    1a3a:	f5b2 3f80 	cmp.w	r2, #65536	; 0x10000
    1a3e:	b293      	uxth	r3, r2
    1a40:	d20e      	bcs.n	1a60 <f_mkfs+0x2b8>
    1a42:	0a1b      	lsrs	r3, r3, #8
    1a44:	f884 2047 	strb.w	r2, [r4, #71]
    1a48:	f884 3048 	strb.w	r3, [r4, #72]
    1a4c:	e013      	b.n	1a76 <f_mkfs+0x2ce>
    1a4e:	46c0      	nop			(mov r8, r8)
    1a50:	10000434 	.word	0x10000434
    1a54:	000066ea 	.word	0x000066ea
    1a58:	0000660e 	.word	0x0000660e
    1a5c:	00fb03ff 	.word	0x00fb03ff
    1a60:	0a1b      	lsrs	r3, r3, #8
    1a62:	f884 3055 	strb.w	r3, [r4, #85]
    1a66:	0c13      	lsrs	r3, r2, #16
    1a68:	f884 3056 	strb.w	r3, [r4, #86]
    1a6c:	0e13      	lsrs	r3, r2, #24
    1a6e:	f884 2054 	strb.w	r2, [r4, #84]
    1a72:	f884 3057 	strb.w	r3, [r4, #87]
    1a76:	9b02      	ldr	r3, [sp, #8]
    1a78:	2500      	movs	r5, #0
    1a7a:	f884 3049 	strb.w	r3, [r4, #73]
    1a7e:	233f      	movs	r3, #63
    1a80:	f884 304c 	strb.w	r3, [r4, #76]
    1a84:	f04f 33ff 	mov.w	r3, #4294967295	; 0xffffffff
    1a88:	f884 304e 	strb.w	r3, [r4, #78]
    1a8c:	ea4f 431b 	mov.w	r3, fp, lsr #16
    1a90:	f884 3052 	strb.w	r3, [r4, #82]
    1a94:	ea4f 631b 	mov.w	r3, fp, lsr #24
    1a98:	f884 3053 	strb.w	r3, [r4, #83]
    1a9c:	f884 504d 	strb.w	r5, [r4, #77]
    1aa0:	f884 504f 	strb.w	r5, [r4, #79]
    1aa4:	f884 b050 	strb.w	fp, [r4, #80]
    1aa8:	f884 5051 	strb.w	r5, [r4, #81]
    1aac:	f002 fe12 	bl	46d4 <get_fattime>
    1ab0:	9901      	ldr	r1, [sp, #4]
    1ab2:	9007      	str	r0, [sp, #28]
    1ab4:	2903      	cmp	r1, #3
    1ab6:	b283      	uxth	r3, r0
    1ab8:	ea4f 4210 	mov.w	r2, r0, lsr #16
    1abc:	ea4f 6110 	mov.w	r1, r0, lsr #24
    1ac0:	fa1f fe88 	uxth.w	lr, r8
    1ac4:	d134      	bne.n	1b30 <f_mkfs+0x388>
    1ac6:	0a1b      	lsrs	r3, r3, #8
    1ac8:	f884 3078 	strb.w	r3, [r4, #120]
    1acc:	ea4f 231e 	mov.w	r3, lr, lsr #8
    1ad0:	f884 3059 	strb.w	r3, [r4, #89]
    1ad4:	ea4f 4318 	mov.w	r3, r8, lsr #16
    1ad8:	f884 305a 	strb.w	r3, [r4, #90]
    1adc:	ea4f 6318 	mov.w	r3, r8, lsr #24
    1ae0:	f884 305b 	strb.w	r3, [r4, #91]
    1ae4:	2302      	movs	r3, #2
    1ae6:	f884 3060 	strb.w	r3, [r4, #96]
    1aea:	3b01      	subs	r3, #1
    1aec:	f884 3064 	strb.w	r3, [r4, #100]
    1af0:	3305      	adds	r3, #5
    1af2:	f884 3066 	strb.w	r3, [r4, #102]
    1af6:	f06f 037f 	mvn.w	r3, #127	; 0x7f
    1afa:	f884 3074 	strb.w	r3, [r4, #116]
    1afe:	33a9      	adds	r3, #169
    1b00:	f884 0077 	strb.w	r0, [r4, #119]
    1b04:	f884 107a 	strb.w	r1, [r4, #122]
    1b08:	f884 2079 	strb.w	r2, [r4, #121]
    1b0c:	f884 8058 	strb.w	r8, [r4, #88]
    1b10:	f884 5061 	strb.w	r5, [r4, #97]
    1b14:	f884 5062 	strb.w	r5, [r4, #98]
    1b18:	f884 5063 	strb.w	r5, [r4, #99]
    1b1c:	f884 5065 	strb.w	r5, [r4, #101]
    1b20:	f884 5067 	strb.w	r5, [r4, #103]
    1b24:	f884 3076 	strb.w	r3, [r4, #118]
    1b28:	f104 007b 	add.w	r0, r4, #123	; 0x7b
    1b2c:	4986      	ldr	r1, [pc, #536]	(1d48 <f_mkfs+0x5a0>)
    1b2e:	e018      	b.n	1b62 <f_mkfs+0x3ba>
    1b30:	0a1b      	lsrs	r3, r3, #8
    1b32:	f884 305c 	strb.w	r3, [r4, #92]
    1b36:	ea4f 231e 	mov.w	r3, lr, lsr #8
    1b3a:	f884 304b 	strb.w	r3, [r4, #75]
    1b3e:	f06f 037f 	mvn.w	r3, #127	; 0x7f
    1b42:	f884 105e 	strb.w	r1, [r4, #94]
    1b46:	f884 3058 	strb.w	r3, [r4, #88]
    1b4a:	4980      	ldr	r1, [pc, #512]	(1d4c <f_mkfs+0x5a4>)
    1b4c:	33a9      	adds	r3, #169
    1b4e:	f884 005b 	strb.w	r0, [r4, #91]
    1b52:	f884 205d 	strb.w	r2, [r4, #93]
    1b56:	f884 804a 	strb.w	r8, [r4, #74]
    1b5a:	f884 305a 	strb.w	r3, [r4, #90]
    1b5e:	f104 005f 	add.w	r0, r4, #95	; 0x5f
    1b62:	2213      	movs	r2, #19
    1b64:	f7ff fd88 	bl	1678 <mem_cpy>
    1b68:	2355      	movs	r3, #85
    1b6a:	f884 3232 	strb.w	r3, [r4, #562]
    1b6e:	f06f 0355 	mvn.w	r3, #85	; 0x55
    1b72:	f884 3233 	strb.w	r3, [r4, #563]
    1b76:	4648      	mov	r0, r9
    1b78:	4639      	mov	r1, r7
    1b7a:	465a      	mov	r2, fp
    1b7c:	3357      	adds	r3, #87
    1b7e:	f002 f8f1 	bl	3d64 <disk_write>
    1b82:	2800      	cmp	r0, #0
    1b84:	f040 80d0 	bne.w	1d28 <f_mkfs+0x580>
    1b88:	9a01      	ldr	r2, [sp, #4]
    1b8a:	2a03      	cmp	r2, #3
    1b8c:	d009      	beq.n	1ba2 <f_mkfs+0x3fa>
    1b8e:	2100      	movs	r1, #0
    1b90:	4638      	mov	r0, r7
    1b92:	f44f 7200 	mov.w	r2, #512	; 0x200
    1b96:	f7ff fd7d 	bl	1694 <mem_set>
    1b9a:	9b01      	ldr	r3, [sp, #4]
    1b9c:	2b03      	cmp	r3, #3
    1b9e:	d108      	bne.n	1bb2 <f_mkfs+0x40a>
    1ba0:	e01d      	b.n	1bde <f_mkfs+0x436>
    1ba2:	4648      	mov	r0, r9
    1ba4:	4639      	mov	r1, r7
    1ba6:	f10b 0206 	add.w	r2, fp, #6	; 0x6
    1baa:	2301      	movs	r3, #1
    1bac:	f002 f8da 	bl	3d64 <disk_write>
    1bb0:	e7ed      	b.n	1b8e <f_mkfs+0x3e6>
    1bb2:	9901      	ldr	r1, [sp, #4]
    1bb4:	4b66      	ldr	r3, [pc, #408]	(1d50 <f_mkfs+0x5a8>)
    1bb6:	9a02      	ldr	r2, [sp, #8]
    1bb8:	2901      	cmp	r1, #1
    1bba:	bf18      	it	ne
    1bbc:	f06f 03ff 	mvnne.w	r3, #255	; 0xff
    1bc0:	4313      	orrs	r3, r2
    1bc2:	f3c3 2207 	ubfx	r2, r3, #8, #8
    1bc6:	9307      	str	r3, [sp, #28]
    1bc8:	f884 3034 	strb.w	r3, [r4, #52]
    1bcc:	f884 2035 	strb.w	r2, [r4, #53]
    1bd0:	0c1a      	lsrs	r2, r3, #16
    1bd2:	0e1b      	lsrs	r3, r3, #24
    1bd4:	f884 2036 	strb.w	r2, [r4, #54]
    1bd8:	f884 3037 	strb.w	r3, [r4, #55]
    1bdc:	e023      	b.n	1c26 <f_mkfs+0x47e>
    1bde:	9902      	ldr	r1, [sp, #8]
    1be0:	4b5c      	ldr	r3, [pc, #368]	(1d54 <f_mkfs+0x5ac>)
    1be2:	ea41 0303 	orr.w	r3, r1, r3
    1be6:	f3c3 2207 	ubfx	r2, r3, #8, #8
    1bea:	9307      	str	r3, [sp, #28]
    1bec:	f884 3034 	strb.w	r3, [r4, #52]
    1bf0:	f884 2035 	strb.w	r2, [r4, #53]
    1bf4:	0c1a      	lsrs	r2, r3, #16
    1bf6:	0e1b      	lsrs	r3, r3, #24
    1bf8:	f884 2036 	strb.w	r2, [r4, #54]
    1bfc:	f884 3037 	strb.w	r3, [r4, #55]
    1c00:	220f      	movs	r2, #15
    1c02:	f04f 33ff 	mov.w	r3, #4294967295	; 0xffffffff
    1c06:	f884 3038 	strb.w	r3, [r4, #56]
    1c0a:	f884 3039 	strb.w	r3, [r4, #57]
    1c0e:	f884 303a 	strb.w	r3, [r4, #58]
    1c12:	f884 203b 	strb.w	r2, [r4, #59]
    1c16:	f884 303c 	strb.w	r3, [r4, #60]
    1c1a:	f884 303d 	strb.w	r3, [r4, #61]
    1c1e:	f884 303e 	strb.w	r3, [r4, #62]
    1c22:	f884 203f 	strb.w	r2, [r4, #63]
    1c26:	4639      	mov	r1, r7
    1c28:	4648      	mov	r0, r9
    1c2a:	9a03      	ldr	r2, [sp, #12]
    1c2c:	2301      	movs	r3, #1
    1c2e:	f002 f899 	bl	3d64 <disk_write>
    1c32:	4601      	mov	r1, r0
    1c34:	2800      	cmp	r0, #0
    1c36:	d177      	bne.n	1d28 <f_mkfs+0x580>
    1c38:	9a03      	ldr	r2, [sp, #12]
    1c3a:	4638      	mov	r0, r7
    1c3c:	1c55      	adds	r5, r2, #1
    1c3e:	f44f 7200 	mov.w	r2, #512	; 0x200
    1c42:	f7ff fd27 	bl	1694 <mem_set>
    1c46:	2301      	movs	r3, #1
    1c48:	e00a      	b.n	1c60 <f_mkfs+0x4b8>
    1c4a:	4648      	mov	r0, r9
    1c4c:	4639      	mov	r1, r7
    1c4e:	462a      	mov	r2, r5
    1c50:	2301      	movs	r3, #1
    1c52:	f002 f887 	bl	3d64 <disk_write>
    1c56:	2800      	cmp	r0, #0
    1c58:	d166      	bne.n	1d28 <f_mkfs+0x580>
    1c5a:	9b07      	ldr	r3, [sp, #28]
    1c5c:	3501      	adds	r5, #1
    1c5e:	3301      	adds	r3, #1
    1c60:	9307      	str	r3, [sp, #28]
    1c62:	9b07      	ldr	r3, [sp, #28]
    1c64:	4543      	cmp	r3, r8
    1c66:	d3f0      	bcc.n	1c4a <f_mkfs+0x4a2>
    1c68:	e062      	b.n	1d30 <f_mkfs+0x588>
    1c6a:	9604      	str	r6, [sp, #16]
    1c6c:	9b04      	ldr	r3, [sp, #16]
    1c6e:	9307      	str	r3, [sp, #28]
    1c70:	e008      	b.n	1c84 <f_mkfs+0x4dc>
    1c72:	4648      	mov	r0, r9
    1c74:	4639      	mov	r1, r7
    1c76:	462a      	mov	r2, r5
    1c78:	2301      	movs	r3, #1
    1c7a:	f002 f873 	bl	3d64 <disk_write>
    1c7e:	2800      	cmp	r0, #0
    1c80:	d152      	bne.n	1d28 <f_mkfs+0x580>
    1c82:	3501      	adds	r5, #1
    1c84:	9e07      	ldr	r6, [sp, #28]
    1c86:	1e73      	subs	r3, r6, #1
    1c88:	9307      	str	r3, [sp, #28]
    1c8a:	2e00      	cmp	r6, #0
    1c8c:	d1f1      	bne.n	1c72 <f_mkfs+0x4ca>
    1c8e:	9901      	ldr	r1, [sp, #4]
    1c90:	2903      	cmp	r1, #3
    1c92:	d140      	bne.n	1d16 <f_mkfs+0x56e>
    1c94:	2355      	movs	r3, #85
    1c96:	f884 3232 	strb.w	r3, [r4, #562]
    1c9a:	f06f 0355 	mvn.w	r3, #85	; 0x55
    1c9e:	f884 3233 	strb.w	r3, [r4, #563]
    1ca2:	33a8      	adds	r3, #168
    1ca4:	f884 3034 	strb.w	r3, [r4, #52]
    1ca8:	f884 3035 	strb.w	r3, [r4, #53]
    1cac:	315e      	adds	r1, #94
    1cae:	2241      	movs	r2, #65
    1cb0:	3320      	adds	r3, #32
    1cb2:	f884 1036 	strb.w	r1, [r4, #54]
    1cb6:	f884 3218 	strb.w	r3, [r4, #536]
    1cba:	f884 3219 	strb.w	r3, [r4, #537]
    1cbe:	f884 121b 	strb.w	r1, [r4, #539]
    1cc2:	f884 2037 	strb.w	r2, [r4, #55]
    1cc6:	f884 221a 	strb.w	r2, [r4, #538]
    1cca:	9a05      	ldr	r2, [sp, #20]
    1ccc:	4639      	mov	r1, r7
    1cce:	1e53      	subs	r3, r2, #1
    1cd0:	f3c3 2207 	ubfx	r2, r3, #8, #8
    1cd4:	f884 321c 	strb.w	r3, [r4, #540]
    1cd8:	f884 221d 	strb.w	r2, [r4, #541]
    1cdc:	0c1a      	lsrs	r2, r3, #16
    1cde:	0e1b      	lsrs	r3, r3, #24
    1ce0:	f884 321f 	strb.w	r3, [r4, #543]
    1ce4:	f04f 33ff 	mov.w	r3, #4294967295	; 0xffffffff
    1ce8:	f884 221e 	strb.w	r2, [r4, #542]
    1cec:	f884 3220 	strb.w	r3, [r4, #544]
    1cf0:	f884 3221 	strb.w	r3, [r4, #545]
    1cf4:	f884 3222 	strb.w	r3, [r4, #546]
    1cf8:	f884 3223 	strb.w	r3, [r4, #547]
    1cfc:	f10b 0201 	add.w	r2, fp, #1	; 0x1
    1d00:	3302      	adds	r3, #2
    1d02:	4648      	mov	r0, r9
    1d04:	f002 f82e 	bl	3d64 <disk_write>
    1d08:	4648      	mov	r0, r9
    1d0a:	4639      	mov	r1, r7
    1d0c:	f10b 0207 	add.w	r2, fp, #7	; 0x7
    1d10:	2301      	movs	r3, #1
    1d12:	f002 f827 	bl	3d64 <disk_write>
    1d16:	4648      	mov	r0, r9
    1d18:	4631      	mov	r1, r6
    1d1a:	4632      	mov	r2, r6
    1d1c:	f001 fff6 	bl	3d0c <disk_ioctl>
    1d20:	3800      	subs	r0, #0
    1d22:	bf18      	it	ne
    1d24:	2001      	movne	r0, #1
    1d26:	e00b      	b.n	1d40 <f_mkfs+0x598>
    1d28:	2001      	movs	r0, #1
    1d2a:	e009      	b.n	1d40 <f_mkfs+0x598>
    1d2c:	200e      	movs	r0, #14
    1d2e:	e007      	b.n	1d40 <f_mkfs+0x598>
    1d30:	9b01      	ldr	r3, [sp, #4]
    1d32:	2b03      	cmp	r3, #3
    1d34:	d099      	beq.n	1c6a <f_mkfs+0x4c2>
    1d36:	e799      	b.n	1c6c <f_mkfs+0x4c4>
    1d38:	0053      	lsls	r3, r2, #1
    1d3a:	3304      	adds	r3, #4
    1d3c:	2202      	movs	r2, #2
    1d3e:	e5a1      	b.n	1884 <f_mkfs+0xdc>
    1d40:	b009      	add	sp, #36
    1d42:	e8bd 8ff0 	ldmia.w	sp!, {r4, r5, r6, r7, r8, r9, sl, fp, pc}
    1d46:	46c0      	nop			(mov r8, r8)
    1d48:	000066a4 	.word	0x000066a4
    1d4c:	000066b8 	.word	0x000066b8
    1d50:	00ffff00 	.word	0x00ffff00
    1d54:	0fffff00 	.word	0x0fffff00

00001d58 <validate>:
    1d58:	b510      	push	{r4, lr}
    1d5a:	b160      	cbz	r0, 1d76 <validate+0x1e>
    1d5c:	7803      	ldrb	r3, [r0, #0]
    1d5e:	b153      	cbz	r3, 1d76 <validate+0x1e>
    1d60:	88c3      	ldrh	r3, [r0, #6]
    1d62:	428b      	cmp	r3, r1
    1d64:	d107      	bne.n	1d76 <validate+0x1e>
    1d66:	7840      	ldrb	r0, [r0, #1]
    1d68:	f002 f83c 	bl	3de4 <disk_status>
    1d6c:	f010 0001 	ands.w	r0, r0, #1	; 0x1
    1d70:	bf18      	it	ne
    1d72:	2003      	movne	r0, #3
    1d74:	e000      	b.n	1d78 <validate+0x20>
    1d76:	2009      	movs	r0, #9
    1d78:	bd10      	pop	{r4, pc}
    1d7a:	46c0      	nop			(mov r8, r8)

00001d7c <check_fs>:
    1d7c:	b510      	push	{r4, lr}
    1d7e:	4604      	mov	r4, r0
    1d80:	460a      	mov	r2, r1
    1d82:	7840      	ldrb	r0, [r0, #1]
    1d84:	f104 0134 	add.w	r1, r4, #52	; 0x34
    1d88:	2301      	movs	r3, #1
    1d8a:	f002 f80b 	bl	3da4 <disk_read>
    1d8e:	4601      	mov	r1, r0
    1d90:	b108      	cbz	r0, 1d96 <check_fs+0x1a>
    1d92:	2003      	movs	r0, #3
    1d94:	e033      	b.n	1dfe <check_fs+0x82>
    1d96:	f894 3233 	ldrb.w	r3, [r4, #563]
    1d9a:	f894 2232 	ldrb.w	r2, [r4, #562]
    1d9e:	ea42 2203 	orr.w	r2, r2, r3, lsl #8
    1da2:	f64a 2355 	movw	r3, #43605	; 0xaa55
    1da6:	429a      	cmp	r2, r3
    1da8:	d001      	beq.n	1dae <check_fs+0x32>
    1daa:	2002      	movs	r0, #2
    1dac:	e027      	b.n	1dfe <check_fs+0x82>
    1dae:	f894 306c 	ldrb.w	r3, [r4, #108]
    1db2:	f894 206d 	ldrb.w	r2, [r4, #109]
    1db6:	041b      	lsls	r3, r3, #16
    1db8:	ea43 6302 	orr.w	r3, r3, r2, lsl #24
    1dbc:	f894 206a 	ldrb.w	r2, [r4, #106]
    1dc0:	480f      	ldr	r0, [pc, #60]	(1e00 <check_fs+0x84>)
    1dc2:	4313      	orrs	r3, r2
    1dc4:	f894 206b 	ldrb.w	r2, [r4, #107]
    1dc8:	ea43 2302 	orr.w	r3, r3, r2, lsl #8
    1dcc:	f023 437f 	bic.w	r3, r3, #4278190080	; 0xff000000
    1dd0:	4283      	cmp	r3, r0
    1dd2:	d101      	bne.n	1dd8 <check_fs+0x5c>
    1dd4:	4608      	mov	r0, r1
    1dd6:	e012      	b.n	1dfe <check_fs+0x82>
    1dd8:	f894 3088 	ldrb.w	r3, [r4, #136]
    1ddc:	f894 2089 	ldrb.w	r2, [r4, #137]
    1de0:	041b      	lsls	r3, r3, #16
    1de2:	ea43 6302 	orr.w	r3, r3, r2, lsl #24
    1de6:	f894 2086 	ldrb.w	r2, [r4, #134]
    1dea:	4313      	orrs	r3, r2
    1dec:	f894 2087 	ldrb.w	r2, [r4, #135]
    1df0:	ea43 2302 	orr.w	r3, r3, r2, lsl #8
    1df4:	f023 437f 	bic.w	r3, r3, #4278190080	; 0xff000000
    1df8:	1a18      	subs	r0, r3, r0
    1dfa:	bf18      	it	ne
    1dfc:	2001      	movne	r0, #1
    1dfe:	bd10      	pop	{r4, pc}
    1e00:	00544146 	.word	0x00544146

00001e04 <chk_mounted>:
    1e04:	e92d 41f0 	stmdb	sp!, {r4, r5, r6, r7, r8, lr}
    1e08:	4616      	mov	r6, r2
    1e0a:	6802      	ldr	r2, [r0, #0]
    1e0c:	7813      	ldrb	r3, [r2, #0]
    1e0e:	f1a3 0530 	sub.w	r5, r3, #48	; 0x30
    1e12:	2d09      	cmp	r5, #9
    1e14:	d805      	bhi.n	1e22 <chk_mounted+0x1e>
    1e16:	7853      	ldrb	r3, [r2, #1]
    1e18:	2b3a      	cmp	r3, #58
    1e1a:	d102      	bne.n	1e22 <chk_mounted+0x1e>
    1e1c:	1c93      	adds	r3, r2, #2
    1e1e:	6003      	str	r3, [r0, #0]
    1e20:	e001      	b.n	1e26 <chk_mounted+0x22>
    1e22:	4bba      	ldr	r3, [pc, #744]	(210c <chk_mounted+0x308>)
    1e24:	781d      	ldrb	r5, [r3, #0]
    1e26:	2d01      	cmp	r5, #1
    1e28:	d901      	bls.n	1e2e <chk_mounted+0x2a>
    1e2a:	200b      	movs	r0, #11
    1e2c:	e179      	b.n	2122 <chk_mounted+0x31e>
    1e2e:	4bb8      	ldr	r3, [pc, #736]	(2110 <chk_mounted+0x30c>)
    1e30:	f853 4025 	ldr.w	r4, [r3, r5, lsl #2]
    1e34:	600c      	str	r4, [r1, #0]
    1e36:	b90c      	cbnz	r4, 1e3c <chk_mounted+0x38>
    1e38:	200c      	movs	r0, #12
    1e3a:	e172      	b.n	2122 <chk_mounted+0x31e>
    1e3c:	7823      	ldrb	r3, [r4, #0]
    1e3e:	b16b      	cbz	r3, 1e5c <chk_mounted+0x58>
    1e40:	7860      	ldrb	r0, [r4, #1]
    1e42:	f001 ffcf 	bl	3de4 <disk_status>
    1e46:	f010 0f01 	tst.w	r0, #1	; 0x1
    1e4a:	d107      	bne.n	1e5c <chk_mounted+0x58>
    1e4c:	2e00      	cmp	r6, #0
    1e4e:	f000 815b 	beq.w	2108 <chk_mounted+0x304>
    1e52:	f010 0f04 	tst.w	r0, #4	; 0x4
    1e56:	f040 8155 	bne.w	2104 <chk_mounted+0x300>
    1e5a:	e155      	b.n	2108 <chk_mounted+0x304>
    1e5c:	2300      	movs	r3, #0
    1e5e:	b2e8      	uxtb	r0, r5
    1e60:	7023      	strb	r3, [r4, #0]
    1e62:	7060      	strb	r0, [r4, #1]
    1e64:	f001 ffcc 	bl	3e00 <disk_initialize>
    1e68:	f010 0501 	ands.w	r5, r0, #1	; 0x1
    1e6c:	d001      	beq.n	1e72 <chk_mounted+0x6e>
    1e6e:	2003      	movs	r0, #3
    1e70:	e157      	b.n	2122 <chk_mounted+0x31e>
    1e72:	b11e      	cbz	r6, 1e7c <chk_mounted+0x78>
    1e74:	f010 0f04 	tst.w	r0, #4	; 0x4
    1e78:	f040 8144 	bne.w	2104 <chk_mounted+0x300>
    1e7c:	4620      	mov	r0, r4
    1e7e:	4629      	mov	r1, r5
    1e80:	f7ff ff7c 	bl	1d7c <check_fs>
    1e84:	2801      	cmp	r0, #1
    1e86:	d001      	beq.n	1e8c <chk_mounted+0x88>
    1e88:	46a8      	mov	r8, r5
    1e8a:	e015      	b.n	1eb8 <chk_mounted+0xb4>
    1e8c:	f504 71f9 	add.w	r1, r4, #498	; 0x1f2
    1e90:	790b      	ldrb	r3, [r1, #4]
    1e92:	2b00      	cmp	r3, #0
    1e94:	f000 8144 	beq.w	2120 <chk_mounted+0x31c>
    1e98:	7a8b      	ldrb	r3, [r1, #10]
    1e9a:	f894 21fd 	ldrb.w	r2, [r4, #509]
    1e9e:	041b      	lsls	r3, r3, #16
    1ea0:	ea43 6302 	orr.w	r3, r3, r2, lsl #24
    1ea4:	7a0a      	ldrb	r2, [r1, #8]
    1ea6:	4620      	mov	r0, r4
    1ea8:	4313      	orrs	r3, r2
    1eaa:	f894 21fb 	ldrb.w	r2, [r4, #507]
    1eae:	ea43 2802 	orr.w	r8, r3, r2, lsl #8
    1eb2:	4641      	mov	r1, r8
    1eb4:	f7ff ff62 	bl	1d7c <check_fs>
    1eb8:	2803      	cmp	r0, #3
    1eba:	d101      	bne.n	1ec0 <chk_mounted+0xbc>
    1ebc:	2001      	movs	r0, #1
    1ebe:	e130      	b.n	2122 <chk_mounted+0x31e>
    1ec0:	2800      	cmp	r0, #0
    1ec2:	f040 812d 	bne.w	2120 <chk_mounted+0x31c>
    1ec6:	f894 2040 	ldrb.w	r2, [r4, #64]
    1eca:	f894 303f 	ldrb.w	r3, [r4, #63]
    1ece:	ea43 2302 	orr.w	r3, r3, r2, lsl #8
    1ed2:	f5b3 7f00 	cmp.w	r3, #512	; 0x200
    1ed6:	f040 8123 	bne.w	2120 <chk_mounted+0x31c>
    1eda:	f894 204b 	ldrb.w	r2, [r4, #75]
    1ede:	f894 304a 	ldrb.w	r3, [r4, #74]
    1ee2:	ea53 2302 	orrs.w	r3, r3, r2, lsl #8
    1ee6:	d001      	beq.n	1eec <chk_mounted+0xe8>
    1ee8:	b29e      	uxth	r6, r3
    1eea:	e00d      	b.n	1f08 <chk_mounted+0x104>
    1eec:	f894 305a 	ldrb.w	r3, [r4, #90]
    1ef0:	f894 205b 	ldrb.w	r2, [r4, #91]
    1ef4:	041b      	lsls	r3, r3, #16
    1ef6:	ea43 6302 	orr.w	r3, r3, r2, lsl #24
    1efa:	f894 2058 	ldrb.w	r2, [r4, #88]
    1efe:	4313      	orrs	r3, r2
    1f00:	f894 2059 	ldrb.w	r2, [r4, #89]
    1f04:	ea43 2602 	orr.w	r6, r3, r2, lsl #8
    1f08:	f894 5044 	ldrb.w	r5, [r4, #68]
    1f0c:	6226      	str	r6, [r4, #32]
    1f0e:	1e6b      	subs	r3, r5, #1
    1f10:	b2db      	uxtb	r3, r3
    1f12:	2b01      	cmp	r3, #1
    1f14:	70e5      	strb	r5, [r4, #3]
    1f16:	f200 8103 	bhi.w	2120 <chk_mounted+0x31c>
    1f1a:	f894 2041 	ldrb.w	r2, [r4, #65]
    1f1e:	70a2      	strb	r2, [r4, #2]
    1f20:	2a00      	cmp	r2, #0
    1f22:	f000 80fd 	beq.w	2120 <chk_mounted+0x31c>
    1f26:	1e53      	subs	r3, r2, #1
    1f28:	4213      	tst	r3, r2
    1f2a:	f040 80f9 	bne.w	2120 <chk_mounted+0x31c>
    1f2e:	f894 2046 	ldrb.w	r2, [r4, #70]
    1f32:	f894 3045 	ldrb.w	r3, [r4, #69]
    1f36:	ea43 2002 	orr.w	r0, r3, r2, lsl #8
    1f3a:	f010 0f0f 	tst.w	r0, #15	; 0xf
    1f3e:	8120      	strh	r0, [r4, #8]
    1f40:	f040 80ee 	bne.w	2120 <chk_mounted+0x31c>
    1f44:	f894 2048 	ldrb.w	r2, [r4, #72]
    1f48:	f894 3047 	ldrb.w	r3, [r4, #71]
    1f4c:	ea53 2202 	orrs.w	r2, r3, r2, lsl #8
    1f50:	d001      	beq.n	1f56 <chk_mounted+0x152>
    1f52:	b291      	uxth	r1, r2
    1f54:	e00d      	b.n	1f72 <chk_mounted+0x16e>
    1f56:	f894 3056 	ldrb.w	r3, [r4, #86]
    1f5a:	f894 2057 	ldrb.w	r2, [r4, #87]
    1f5e:	041b      	lsls	r3, r3, #16
    1f60:	ea43 6302 	orr.w	r3, r3, r2, lsl #24
    1f64:	f894 2054 	ldrb.w	r2, [r4, #84]
    1f68:	4313      	orrs	r3, r2
    1f6a:	f894 2055 	ldrb.w	r2, [r4, #85]
    1f6e:	ea43 2102 	orr.w	r1, r3, r2, lsl #8
    1f72:	f894 2043 	ldrb.w	r2, [r4, #67]
    1f76:	f894 3042 	ldrb.w	r3, [r4, #66]
    1f7a:	ea53 2302 	orrs.w	r3, r3, r2, lsl #8
    1f7e:	f000 80cf 	beq.w	2120 <chk_mounted+0x31c>
    1f82:	fb05 f606 	mul.w	r6, r5, r6
    1f86:	b29d      	uxth	r5, r3
    1f88:	eb05 1310 	add.w	r3, r5, r0, lsr #4
    1f8c:	1998      	adds	r0, r3, r6
    1f8e:	4281      	cmp	r1, r0
    1f90:	f0c0 80c6 	bcc.w	2120 <chk_mounted+0x31c>
    1f94:	78a3      	ldrb	r3, [r4, #2]
    1f96:	1a0a      	subs	r2, r1, r0
    1f98:	fbb2 f2f3 	udiv	r2, r2, r3
    1f9c:	2a00      	cmp	r2, #0
    1f9e:	f000 80bf 	beq.w	2120 <chk_mounted+0x31c>
    1fa2:	f640 73f5 	movw	r3, #4085	; 0xff5
    1fa6:	429a      	cmp	r2, r3
    1fa8:	d801      	bhi.n	1fae <chk_mounted+0x1aa>
    1faa:	2701      	movs	r7, #1
    1fac:	e005      	b.n	1fba <chk_mounted+0x1b6>
    1fae:	f64f 73f5 	movw	r3, #65525	; 0xfff5
    1fb2:	429a      	cmp	r2, r3
    1fb4:	bf94      	ite	ls
    1fb6:	2702      	movls	r7, #2
    1fb8:	2703      	movhi	r7, #3
    1fba:	eb00 0308 	add.w	r3, r0, r8
    1fbe:	1c91      	adds	r1, r2, #2
    1fc0:	62e3      	str	r3, [r4, #44]
    1fc2:	2f03      	cmp	r7, #3
    1fc4:	eb08 0305 	add.w	r3, r8, r5
    1fc8:	61e1      	str	r1, [r4, #28]
    1fca:	6263      	str	r3, [r4, #36]
    1fcc:	8922      	ldrh	r2, [r4, #8]
    1fce:	d113      	bne.n	1ff8 <chk_mounted+0x1f4>
    1fd0:	2a00      	cmp	r2, #0
    1fd2:	f040 80a5 	bne.w	2120 <chk_mounted+0x31c>
    1fd6:	f894 3062 	ldrb.w	r3, [r4, #98]
    1fda:	f894 2063 	ldrb.w	r2, [r4, #99]
    1fde:	041b      	lsls	r3, r3, #16
    1fe0:	ea43 6302 	orr.w	r3, r3, r2, lsl #24
    1fe4:	f894 2060 	ldrb.w	r2, [r4, #96]
    1fe8:	4313      	orrs	r3, r2
    1fea:	f894 2061 	ldrb.w	r2, [r4, #97]
    1fee:	ea43 2302 	orr.w	r3, r3, r2, lsl #8
    1ff2:	62a3      	str	r3, [r4, #40]
    1ff4:	008a      	lsls	r2, r1, #2
    1ff6:	e00f      	b.n	2018 <chk_mounted+0x214>
    1ff8:	2a00      	cmp	r2, #0
    1ffa:	f000 8091 	beq.w	2120 <chk_mounted+0x31c>
    1ffe:	18f3      	adds	r3, r6, r3
    2000:	2f02      	cmp	r7, #2
    2002:	62a3      	str	r3, [r4, #40]
    2004:	d101      	bne.n	200a <chk_mounted+0x206>
    2006:	004a      	lsls	r2, r1, #1
    2008:	e006      	b.n	2018 <chk_mounted+0x214>
    200a:	2303      	movs	r3, #3
    200c:	fb01 f303 	mul.w	r3, r1, r3
    2010:	f001 0201 	and.w	r2, r1, #1	; 0x1
    2014:	eb02 0253 	add.w	r2, r2, r3, lsr #1
    2018:	f502 73fe 	add.w	r3, r2, #508	; 0x1fc
    201c:	6a22      	ldr	r2, [r4, #32]
    201e:	3303      	adds	r3, #3
    2020:	ebb2 2f53 	cmp.w	r2, r3, lsr #9
    2024:	d37c      	bcc.n	2120 <chk_mounted+0x31c>
    2026:	f04f 33ff 	mov.w	r3, #4294967295	; 0xffffffff
    202a:	6123      	str	r3, [r4, #16]
    202c:	3301      	adds	r3, #1
    202e:	2f03      	cmp	r7, #3
    2030:	60e3      	str	r3, [r4, #12]
    2032:	d15a      	bne.n	20ea <chk_mounted+0x2e6>
    2034:	7163      	strb	r3, [r4, #5]
    2036:	f894 2064 	ldrb.w	r2, [r4, #100]
    203a:	f894 3065 	ldrb.w	r3, [r4, #101]
    203e:	7860      	ldrb	r0, [r4, #1]
    2040:	ea42 2203 	orr.w	r2, r2, r3, lsl #8
    2044:	4442      	add	r2, r8
    2046:	6162      	str	r2, [r4, #20]
    2048:	f104 0134 	add.w	r1, r4, #52	; 0x34
    204c:	2301      	movs	r3, #1
    204e:	f001 fea9 	bl	3da4 <disk_read>
    2052:	2800      	cmp	r0, #0
    2054:	d149      	bne.n	20ea <chk_mounted+0x2e6>
    2056:	f894 3233 	ldrb.w	r3, [r4, #563]
    205a:	f894 2232 	ldrb.w	r2, [r4, #562]
    205e:	ea42 2203 	orr.w	r2, r2, r3, lsl #8
    2062:	f64a 2355 	movw	r3, #43605	; 0xaa55
    2066:	429a      	cmp	r2, r3
    2068:	d13f      	bne.n	20ea <chk_mounted+0x2e6>
    206a:	f894 3036 	ldrb.w	r3, [r4, #54]
    206e:	f894 2037 	ldrb.w	r2, [r4, #55]
    2072:	041b      	lsls	r3, r3, #16
    2074:	ea43 6302 	orr.w	r3, r3, r2, lsl #24
    2078:	f894 2034 	ldrb.w	r2, [r4, #52]
    207c:	4313      	orrs	r3, r2
    207e:	f894 2035 	ldrb.w	r2, [r4, #53]
    2082:	ea43 2302 	orr.w	r3, r3, r2, lsl #8
    2086:	4a23      	ldr	r2, [pc, #140]	(2114 <chk_mounted+0x310>)
    2088:	4293      	cmp	r3, r2
    208a:	d12e      	bne.n	20ea <chk_mounted+0x2e6>
    208c:	f894 321a 	ldrb.w	r3, [r4, #538]
    2090:	f894 221b 	ldrb.w	r2, [r4, #539]
    2094:	041b      	lsls	r3, r3, #16
    2096:	ea43 6302 	orr.w	r3, r3, r2, lsl #24
    209a:	f894 2218 	ldrb.w	r2, [r4, #536]
    209e:	4313      	orrs	r3, r2
    20a0:	f894 2219 	ldrb.w	r2, [r4, #537]
    20a4:	ea43 2302 	orr.w	r3, r3, r2, lsl #8
    20a8:	4a1b      	ldr	r2, [pc, #108]	(2118 <chk_mounted+0x314>)
    20aa:	4293      	cmp	r3, r2
    20ac:	d11d      	bne.n	20ea <chk_mounted+0x2e6>
    20ae:	f894 3222 	ldrb.w	r3, [r4, #546]
    20b2:	f894 2223 	ldrb.w	r2, [r4, #547]
    20b6:	041b      	lsls	r3, r3, #16
    20b8:	ea43 6302 	orr.w	r3, r3, r2, lsl #24
    20bc:	f894 2220 	ldrb.w	r2, [r4, #544]
    20c0:	4313      	orrs	r3, r2
    20c2:	f894 2221 	ldrb.w	r2, [r4, #545]
    20c6:	ea43 2302 	orr.w	r3, r3, r2, lsl #8
    20ca:	60e3      	str	r3, [r4, #12]
    20cc:	f894 321e 	ldrb.w	r3, [r4, #542]
    20d0:	f894 221f 	ldrb.w	r2, [r4, #543]
    20d4:	041b      	lsls	r3, r3, #16
    20d6:	ea43 6302 	orr.w	r3, r3, r2, lsl #24
    20da:	f894 221c 	ldrb.w	r2, [r4, #540]
    20de:	4313      	orrs	r3, r2
    20e0:	f894 221d 	ldrb.w	r2, [r4, #541]
    20e4:	ea43 2302 	orr.w	r3, r3, r2, lsl #8
    20e8:	6123      	str	r3, [r4, #16]
    20ea:	4b0c      	ldr	r3, [pc, #48]	(211c <chk_mounted+0x318>)
    20ec:	7027      	strb	r7, [r4, #0]
    20ee:	881a      	ldrh	r2, [r3, #0]
    20f0:	3201      	adds	r2, #1
    20f2:	b292      	uxth	r2, r2
    20f4:	801a      	strh	r2, [r3, #0]
    20f6:	2300      	movs	r3, #0
    20f8:	80e2      	strh	r2, [r4, #6]
    20fa:	6323      	str	r3, [r4, #48]
    20fc:	7123      	strb	r3, [r4, #4]
    20fe:	61a3      	str	r3, [r4, #24]
    2100:	4618      	mov	r0, r3
    2102:	e00e      	b.n	2122 <chk_mounted+0x31e>
    2104:	200a      	movs	r0, #10
    2106:	e00c      	b.n	2122 <chk_mounted+0x31e>
    2108:	2000      	movs	r0, #0
    210a:	e00a      	b.n	2122 <chk_mounted+0x31e>
    210c:	10000232 	.word	0x10000232
    2110:	10000434 	.word	0x10000434
    2114:	41615252 	.word	0x41615252
    2118:	61417272 	.word	0x61417272
    211c:	10000230 	.word	0x10000230
    2120:	200d      	movs	r0, #13
    2122:	e8bd 81f0 	ldmia.w	sp!, {r4, r5, r6, r7, r8, pc}
    2126:	46c0      	nop			(mov r8, r8)

00002128 <move_window>:
    2128:	e92d 41f0 	stmdb	sp!, {r4, r5, r6, r7, r8, lr}
    212c:	6b06      	ldr	r6, [r0, #48]
    212e:	4604      	mov	r4, r0
    2130:	428e      	cmp	r6, r1
    2132:	460f      	mov	r7, r1
    2134:	d02b      	beq.n	218e <move_window+0x66>
    2136:	7903      	ldrb	r3, [r0, #4]
    2138:	b1e3      	cbz	r3, 2174 <move_window+0x4c>
    213a:	f100 0834 	add.w	r8, r0, #52	; 0x34
    213e:	4641      	mov	r1, r8
    2140:	7840      	ldrb	r0, [r0, #1]
    2142:	4632      	mov	r2, r6
    2144:	2301      	movs	r3, #1
    2146:	f001 fe0d 	bl	3d64 <disk_write>
    214a:	b9f0      	cbnz	r0, 218a <move_window+0x62>
    214c:	6a23      	ldr	r3, [r4, #32]
    214e:	6a62      	ldr	r2, [r4, #36]
    2150:	7120      	strb	r0, [r4, #4]
    2152:	189b      	adds	r3, r3, r2
    2154:	429e      	cmp	r6, r3
    2156:	d20d      	bcs.n	2174 <move_window+0x4c>
    2158:	78e5      	ldrb	r5, [r4, #3]
    215a:	e009      	b.n	2170 <move_window+0x48>
    215c:	6a23      	ldr	r3, [r4, #32]
    215e:	7860      	ldrb	r0, [r4, #1]
    2160:	18f6      	adds	r6, r6, r3
    2162:	4641      	mov	r1, r8
    2164:	2301      	movs	r3, #1
    2166:	4632      	mov	r2, r6
    2168:	f001 fdfc 	bl	3d64 <disk_write>
    216c:	1e6b      	subs	r3, r5, #1
    216e:	b2dd      	uxtb	r5, r3
    2170:	2d01      	cmp	r5, #1
    2172:	d8f3      	bhi.n	215c <move_window+0x34>
    2174:	b15f      	cbz	r7, 218e <move_window+0x66>
    2176:	7860      	ldrb	r0, [r4, #1]
    2178:	f104 0134 	add.w	r1, r4, #52	; 0x34
    217c:	463a      	mov	r2, r7
    217e:	2301      	movs	r3, #1
    2180:	f001 fe10 	bl	3da4 <disk_read>
    2184:	b908      	cbnz	r0, 218a <move_window+0x62>
    2186:	6327      	str	r7, [r4, #48]
    2188:	e002      	b.n	2190 <move_window+0x68>
    218a:	2001      	movs	r0, #1
    218c:	e000      	b.n	2190 <move_window+0x68>
    218e:	2000      	movs	r0, #0
    2190:	e8bd 81f0 	ldmia.w	sp!, {r4, r5, r6, r7, r8, pc}

00002194 <put_fat>:
    2194:	2901      	cmp	r1, #1
    2196:	e92d 47f0 	stmdb	sp!, {r4, r5, r6, r7, r8, r9, sl, lr}
    219a:	4605      	mov	r5, r0
    219c:	460c      	mov	r4, r1
    219e:	4690      	mov	r8, r2
    21a0:	d978      	bls.n	2294 <put_fat+0x100>
    21a2:	69c3      	ldr	r3, [r0, #28]
    21a4:	4299      	cmp	r1, r3
    21a6:	d275      	bcs.n	2294 <put_fat+0x100>
    21a8:	7803      	ldrb	r3, [r0, #0]
    21aa:	2b02      	cmp	r3, #2
    21ac:	d041      	beq.n	2232 <put_fat+0x9e>
    21ae:	2b03      	cmp	r3, #3
    21b0:	d052      	beq.n	2258 <put_fat+0xc4>
    21b2:	2b01      	cmp	r3, #1
    21b4:	d002      	beq.n	21bc <put_fat+0x28>
    21b6:	f04f 0e02 	mov.w	lr, #2	; 0x2
    21ba:	e068      	b.n	228e <put_fat+0xfa>
    21bc:	eb01 0651 	add.w	r6, r1, r1, lsr #1
    21c0:	6a41      	ldr	r1, [r0, #36]
    21c2:	eb01 2156 	add.w	r1, r1, r6, lsr #9
    21c6:	f7ff ffaf 	bl	2128 <move_window>
    21ca:	4686      	mov	lr, r0
    21cc:	2800      	cmp	r0, #0
    21ce:	d15e      	bne.n	228e <put_fat+0xfa>
    21d0:	05f3      	lsls	r3, r6, #23
    21d2:	0ddb      	lsrs	r3, r3, #23
    21d4:	f105 0734 	add.w	r7, r5, #52	; 0x34
    21d8:	18f9      	adds	r1, r7, r3
    21da:	f014 0901 	ands.w	r9, r4, #1	; 0x1
    21de:	fa5f f288 	uxtb.w	r2, r8
    21e2:	d006      	beq.n	21f2 <put_fat+0x5e>
    21e4:	5cfb      	ldrb	r3, [r7, r3]
    21e6:	f003 030f 	and.w	r3, r3, #15	; 0xf
    21ea:	ea43 1302 	orr.w	r3, r3, r2, lsl #4
    21ee:	b2db      	uxtb	r3, r3
    21f0:	e000      	b.n	21f4 <put_fat+0x60>
    21f2:	4613      	mov	r3, r2
    21f4:	700b      	strb	r3, [r1, #0]
    21f6:	6a69      	ldr	r1, [r5, #36]
    21f8:	2301      	movs	r3, #1
    21fa:	1c74      	adds	r4, r6, #1
    21fc:	712b      	strb	r3, [r5, #4]
    21fe:	4628      	mov	r0, r5
    2200:	eb01 2154 	add.w	r1, r1, r4, lsr #9
    2204:	f7ff ff90 	bl	2128 <move_window>
    2208:	4686      	mov	lr, r0
    220a:	2800      	cmp	r0, #0
    220c:	d13f      	bne.n	228e <put_fat+0xfa>
    220e:	05e3      	lsls	r3, r4, #23
    2210:	0ddb      	lsrs	r3, r3, #23
    2212:	18f9      	adds	r1, r7, r3
    2214:	f1b9 0f00 	cmp.w	r9, #0	; 0x0
    2218:	d002      	beq.n	2220 <put_fat+0x8c>
    221a:	f3c8 1207 	ubfx	r2, r8, #4, #8
    221e:	e006      	b.n	222e <put_fat+0x9a>
    2220:	5cfb      	ldrb	r3, [r7, r3]
    2222:	f3c8 2203 	ubfx	r2, r8, #8, #4
    2226:	f023 030f 	bic.w	r3, r3, #15	; 0xf
    222a:	ea43 0202 	orr.w	r2, r3, r2
    222e:	700a      	strb	r2, [r1, #0]
    2230:	e02d      	b.n	228e <put_fat+0xfa>
    2232:	6a41      	ldr	r1, [r0, #36]
    2234:	eb01 2114 	add.w	r1, r1, r4, lsr #8
    2238:	f7ff ff76 	bl	2128 <move_window>
    223c:	4686      	mov	lr, r0
    223e:	bb30      	cbnz	r0, 228e <put_fat+0xfa>
    2240:	0063      	lsls	r3, r4, #1
    2242:	05db      	lsls	r3, r3, #23
    2244:	0ddb      	lsrs	r3, r3, #23
    2246:	f105 0134 	add.w	r1, r5, #52	; 0x34
    224a:	18ca      	adds	r2, r1, r3
    224c:	f801 8003 	strb.w	r8, [r1, r3]
    2250:	f3c8 2307 	ubfx	r3, r8, #8, #8
    2254:	7053      	strb	r3, [r2, #1]
    2256:	e01a      	b.n	228e <put_fat+0xfa>
    2258:	6a41      	ldr	r1, [r0, #36]
    225a:	eb01 11d4 	add.w	r1, r1, r4, lsr #7
    225e:	f7ff ff63 	bl	2128 <move_window>
    2262:	4686      	mov	lr, r0
    2264:	b998      	cbnz	r0, 228e <put_fat+0xfa>
    2266:	00a2      	lsls	r2, r4, #2
    2268:	05d2      	lsls	r2, r2, #23
    226a:	0dd2      	lsrs	r2, r2, #23
    226c:	f105 0034 	add.w	r0, r5, #52	; 0x34
    2270:	1881      	adds	r1, r0, r2
    2272:	78cb      	ldrb	r3, [r1, #3]
    2274:	061b      	lsls	r3, r3, #24
    2276:	f003 4370 	and.w	r3, r3, #4026531840	; 0xf0000000
    227a:	ea43 0308 	orr.w	r3, r3, r8
    227e:	5483      	strb	r3, [r0, r2]
    2280:	f3c3 2207 	ubfx	r2, r3, #8, #8
    2284:	704a      	strb	r2, [r1, #1]
    2286:	0c1a      	lsrs	r2, r3, #16
    2288:	0e1b      	lsrs	r3, r3, #24
    228a:	708a      	strb	r2, [r1, #2]
    228c:	70cb      	strb	r3, [r1, #3]
    228e:	2301      	movs	r3, #1
    2290:	712b      	strb	r3, [r5, #4]
    2292:	e001      	b.n	2298 <put_fat+0x104>
    2294:	f04f 0e02 	mov.w	lr, #2	; 0x2
    2298:	4670      	mov	r0, lr
    229a:	e8bd 87f0 	ldmia.w	sp!, {r4, r5, r6, r7, r8, r9, sl, pc}
    229e:	46c0      	nop			(mov r8, r8)

000022a0 <get_fat>:
    22a0:	2901      	cmp	r1, #1
    22a2:	e92d 41f0 	stmdb	sp!, {r4, r5, r6, r7, r8, lr}
    22a6:	4604      	mov	r4, r0
    22a8:	460e      	mov	r6, r1
    22aa:	d958      	bls.n	235e <__cs3_region_zero_size_ram+0x4e>
    22ac:	69c3      	ldr	r3, [r0, #28]
    22ae:	4299      	cmp	r1, r3
    22b0:	d255      	bcs.n	235e <__cs3_region_zero_size_ram+0x4e>
    22b2:	7803      	ldrb	r3, [r0, #0]
    22b4:	2b02      	cmp	r3, #2
    22b6:	d029      	beq.n	230c <get_fat+0x6c>
    22b8:	2b03      	cmp	r3, #3
    22ba:	d038      	beq.n	232e <__cs3_region_zero_size_ram+0x1e>
    22bc:	2b01      	cmp	r3, #1
    22be:	d150      	bne.n	2362 <__cs3_region_zero_size_ram+0x52>
    22c0:	eb01 0551 	add.w	r5, r1, r1, lsr #1
    22c4:	6a41      	ldr	r1, [r0, #36]
    22c6:	eb01 2155 	add.w	r1, r1, r5, lsr #9
    22ca:	f7ff ff2d 	bl	2128 <move_window>
    22ce:	2800      	cmp	r0, #0
    22d0:	d147      	bne.n	2362 <__cs3_region_zero_size_ram+0x52>
    22d2:	05eb      	lsls	r3, r5, #23
    22d4:	6a61      	ldr	r1, [r4, #36]
    22d6:	0ddb      	lsrs	r3, r3, #23
    22d8:	3501      	adds	r5, #1
    22da:	18e3      	adds	r3, r4, r3
    22dc:	4620      	mov	r0, r4
    22de:	eb01 2155 	add.w	r1, r1, r5, lsr #9
    22e2:	f893 7034 	ldrb.w	r7, [r3, #52]
    22e6:	f7ff ff1f 	bl	2128 <move_window>
    22ea:	2800      	cmp	r0, #0
    22ec:	d139      	bne.n	2362 <__cs3_region_zero_size_ram+0x52>
    22ee:	05eb      	lsls	r3, r5, #23
    22f0:	0ddb      	lsrs	r3, r3, #23
    22f2:	18e3      	adds	r3, r4, r3
    22f4:	f893 3034 	ldrb.w	r3, [r3, #52]
    22f8:	f016 0f01 	tst.w	r6, #1	; 0x1
    22fc:	ea47 2003 	orr.w	r0, r7, r3, lsl #8
    2300:	d001      	beq.n	2306 <get_fat+0x66>
    2302:	0900      	lsrs	r0, r0, #4
    2304:	e02f      	b.n	2366 <__cs3_region_zero_size_ram+0x56>
    2306:	0500      	lsls	r0, r0, #20
    2308:	0d00      	lsrs	r0, r0, #20
    230a:	e02c      	b.n	2366 <__cs3_region_zero_size_ram+0x56>
    230c:	6a41      	ldr	r1, [r0, #36]
    230e:	eb01 2116 	add.w	r1, r1, r6, lsr #8
    2312:	f7ff ff09 	bl	2128 <move_window>
    2316:	bb20      	cbnz	r0, 2362 <__cs3_region_zero_size_ram+0x52>
    2318:	0073      	lsls	r3, r6, #1
    231a:	05db      	lsls	r3, r3, #23
    231c:	f104 0134 	add.w	r1, r4, #52	; 0x34
    2320:	0ddb      	lsrs	r3, r3, #23
    2322:	18ca      	adds	r2, r1, r3
    2324:	7852      	ldrb	r2, [r2, #1]
    2326:	5ccb      	ldrb	r3, [r1, r3]
    2328:	ea43 2002 	orr.w	r0, r3, r2, lsl #8
    232c:	e01b      	b.n	2366 <__cs3_region_zero_size_ram+0x56>
    232e:	6a41      	ldr	r1, [r0, #36]
    2330:	eb01 11d6 	add.w	r1, r1, r6, lsr #7
    2334:	f7ff fef8 	bl	2128 <move_window>
    2338:	b998      	cbnz	r0, 2362 <__cs3_region_zero_size_ram+0x52>
    233a:	00b2      	lsls	r2, r6, #2
    233c:	05d2      	lsls	r2, r2, #23
    233e:	3434      	adds	r4, #52
    2340:	0dd2      	lsrs	r2, r2, #23
    2342:	18a1      	adds	r1, r4, r2
    2344:	788b      	ldrb	r3, [r1, #2]
    2346:	78c8      	ldrb	r0, [r1, #3]
    2348:	5ca2      	ldrb	r2, [r4, r2]
    234a:	041b      	lsls	r3, r3, #16
    234c:	ea43 6300 	orr.w	r3, r3, r0, lsl #24
    2350:	4313      	orrs	r3, r2
    2352:	784a      	ldrb	r2, [r1, #1]
    2354:	ea43 2302 	orr.w	r3, r3, r2, lsl #8
    2358:	f023 4070 	bic.w	r0, r3, #4026531840	; 0xf0000000
    235c:	e003      	b.n	2366 <__cs3_region_zero_size_ram+0x56>
    235e:	2001      	movs	r0, #1
    2360:	e001      	b.n	2366 <__cs3_region_zero_size_ram+0x56>
    2362:	f04f 30ff 	mov.w	r0, #4294967295	; 0xffffffff
    2366:	e8bd 81f0 	ldmia.w	sp!, {r4, r5, r6, r7, r8, pc}
    236a:	46c0      	nop			(mov r8, r8)

0000236c <f_getfree>:
    236c:	e92d 4ff7 	stmdb	sp!, {r0, r1, r2, r4, r5, r6, r7, r8, r9, sl, fp, lr}
    2370:	ab02      	add	r3, sp, #8
    2372:	f843 0d04 	str.w	r0, [r3, #-4]!
    2376:	468b      	mov	fp, r1
    2378:	4615      	mov	r5, r2
    237a:	4611      	mov	r1, r2
    237c:	4618      	mov	r0, r3
    237e:	2200      	movs	r2, #0
    2380:	f7ff fd40 	bl	1e04 <chk_mounted>
    2384:	4604      	mov	r4, r0
    2386:	2800      	cmp	r0, #0
    2388:	d163      	bne.n	2452 <f_getfree+0xe6>
    238a:	6829      	ldr	r1, [r5, #0]
    238c:	69cf      	ldr	r7, [r1, #28]
    238e:	690a      	ldr	r2, [r1, #16]
    2390:	1ebb      	subs	r3, r7, #2
    2392:	429a      	cmp	r2, r3
    2394:	d802      	bhi.n	239c <f_getfree+0x30>
    2396:	f8cb 2000 	str.w	r2, [fp]
    239a:	e05a      	b.n	2452 <f_getfree+0xe6>
    239c:	f891 a000 	ldrb.w	sl, [r1]
    23a0:	f1ba 0f01 	cmp.w	sl, #1	; 0x1
    23a4:	d117      	bne.n	23d6 <f_getfree+0x6a>
    23a6:	4680      	mov	r8, r0
    23a8:	2602      	movs	r6, #2
    23aa:	6828      	ldr	r0, [r5, #0]
    23ac:	4631      	mov	r1, r6
    23ae:	f7ff ff77 	bl	22a0 <get_fat>
    23b2:	f1b0 3fff 	cmp.w	r0, #4294967295	; 0xffffffff
    23b6:	d101      	bne.n	23bc <f_getfree+0x50>
    23b8:	2401      	movs	r4, #1
    23ba:	e040      	b.n	243e <f_getfree+0xd2>
    23bc:	2801      	cmp	r0, #1
    23be:	d101      	bne.n	23c4 <f_getfree+0x58>
    23c0:	2402      	movs	r4, #2
    23c2:	e03c      	b.n	243e <f_getfree+0xd2>
    23c4:	b908      	cbnz	r0, 23ca <f_getfree+0x5e>
    23c6:	f108 0801 	add.w	r8, r8, #1	; 0x1
    23ca:	682b      	ldr	r3, [r5, #0]
    23cc:	3601      	adds	r6, #1
    23ce:	69db      	ldr	r3, [r3, #28]
    23d0:	429e      	cmp	r6, r3
    23d2:	d3ea      	bcc.n	23aa <f_getfree+0x3e>
    23d4:	e033      	b.n	243e <f_getfree+0xd2>
    23d6:	f8d1 9024 	ldr.w	r9, [r1, #36]
    23da:	4680      	mov	r8, r0
    23dc:	4606      	mov	r6, r0
    23de:	4601      	mov	r1, r0
    23e0:	b96e      	cbnz	r6, 23fe <f_getfree+0x92>
    23e2:	6828      	ldr	r0, [r5, #0]
    23e4:	4649      	mov	r1, r9
    23e6:	f7ff fe9f 	bl	2128 <move_window>
    23ea:	b108      	cbz	r0, 23f0 <f_getfree+0x84>
    23ec:	4604      	mov	r4, r0
    23ee:	e026      	b.n	243e <f_getfree+0xd2>
    23f0:	682b      	ldr	r3, [r5, #0]
    23f2:	f109 0901 	add.w	r9, r9, #1	; 0x1
    23f6:	f103 0134 	add.w	r1, r3, #52	; 0x34
    23fa:	f44f 7600 	mov.w	r6, #512	; 0x200
    23fe:	f1ba 0f02 	cmp.w	sl, #2	; 0x2
    2402:	f891 e001 	ldrb.w	lr, [r1, #1]
    2406:	7808      	ldrb	r0, [r1, #0]
    2408:	d107      	bne.n	241a <f_getfree+0xae>
    240a:	ea50 2e0e 	orrs.w	lr, r0, lr, lsl #8
    240e:	bf08      	it	eq
    2410:	f108 0801 	addeq.w	r8, r8, #1	; 0x1
    2414:	3102      	adds	r1, #2
    2416:	3e02      	subs	r6, #2
    2418:	e00e      	b.n	2438 <f_getfree+0xcc>
    241a:	788b      	ldrb	r3, [r1, #2]
    241c:	78ca      	ldrb	r2, [r1, #3]
    241e:	041b      	lsls	r3, r3, #16
    2420:	ea43 6302 	orr.w	r3, r3, r2, lsl #24
    2424:	4303      	orrs	r3, r0
    2426:	ea43 230e 	orr.w	r3, r3, lr, lsl #8
    242a:	f023 4370 	bic.w	r3, r3, #4026531840	; 0xf0000000
    242e:	b90b      	cbnz	r3, 2434 <f_getfree+0xc8>
    2430:	f108 0801 	add.w	r8, r8, #1	; 0x1
    2434:	3104      	adds	r1, #4
    2436:	3e04      	subs	r6, #4
    2438:	f117 37ff 	adds.w	r7, r7, #4294967295	; 0xffffffff
    243c:	d1d0      	bne.n	23e0 <f_getfree+0x74>
    243e:	6828      	ldr	r0, [r5, #0]
    2440:	f1ba 0f03 	cmp.w	sl, #3	; 0x3
    2444:	f8c0 8010 	str.w	r8, [r0, #16]
    2448:	d101      	bne.n	244e <f_getfree+0xe2>
    244a:	2301      	movs	r3, #1
    244c:	7143      	strb	r3, [r0, #5]
    244e:	f8cb 8000 	str.w	r8, [fp]
    2452:	4620      	mov	r0, r4
    2454:	e8bd 8ffe 	ldmia.w	sp!, {r1, r2, r3, r4, r5, r6, r7, r8, r9, sl, fp, pc}

00002458 <f_read>:
    2458:	e92d 4ff8 	stmdb	sp!, {r3, r4, r5, r6, r7, r8, r9, sl, fp, lr}
    245c:	4604      	mov	r4, r0
    245e:	469b      	mov	fp, r3
    2460:	2300      	movs	r3, #0
    2462:	460d      	mov	r5, r1
    2464:	f8cb 3000 	str.w	r3, [fp]
    2468:	6800      	ldr	r0, [r0, #0]
    246a:	88a1      	ldrh	r1, [r4, #4]
    246c:	4616      	mov	r6, r2
    246e:	f7ff fc73 	bl	1d58 <validate>
    2472:	2800      	cmp	r0, #0
    2474:	f040 80ab 	bne.w	25ce <f_read+0x176>
    2478:	79a3      	ldrb	r3, [r4, #6]
    247a:	f013 0f80 	tst.w	r3, #128	; 0x80
    247e:	d127      	bne.n	24d0 <f_read+0x78>
    2480:	f013 0f01 	tst.w	r3, #1	; 0x1
    2484:	d101      	bne.n	248a <f_read+0x32>
    2486:	2007      	movs	r0, #7
    2488:	e0a1      	b.n	25ce <f_read+0x176>
    248a:	68e3      	ldr	r3, [r4, #12]
    248c:	68a2      	ldr	r2, [r4, #8]
    248e:	46aa      	mov	sl, r5
    2490:	1a9b      	subs	r3, r3, r2
    2492:	429e      	cmp	r6, r3
    2494:	bf34      	ite	cc
    2496:	46b1      	movcc	r9, r6
    2498:	4699      	movcs	r9, r3
    249a:	e093      	b.n	25c4 <f_read+0x16c>
    249c:	68a2      	ldr	r2, [r4, #8]
    249e:	05d3      	lsls	r3, r2, #23
    24a0:	0ddb      	lsrs	r3, r3, #23
    24a2:	2b00      	cmp	r3, #0
    24a4:	d173      	bne.n	258e <f_read+0x136>
    24a6:	6820      	ldr	r0, [r4, #0]
    24a8:	7883      	ldrb	r3, [r0, #2]
    24aa:	3b01      	subs	r3, #1
    24ac:	ea03 2352 	and.w	r3, r3, r2, lsr #9
    24b0:	b2df      	uxtb	r7, r3
    24b2:	b99f      	cbnz	r7, 24dc <f_read+0x84>
    24b4:	b90a      	cbnz	r2, 24ba <f_read+0x62>
    24b6:	6920      	ldr	r0, [r4, #16]
    24b8:	e002      	b.n	24c0 <f_read+0x68>
    24ba:	6961      	ldr	r1, [r4, #20]
    24bc:	f7ff fef0 	bl	22a0 <get_fat>
    24c0:	2801      	cmp	r0, #1
    24c2:	d807      	bhi.n	24d4 <f_read+0x7c>
    24c4:	79a3      	ldrb	r3, [r4, #6]
    24c6:	ea6f 6343 	mvn.w	r3, r3, lsl #25
    24ca:	ea6f 6353 	mvn.w	r3, r3, lsr #25
    24ce:	71a3      	strb	r3, [r4, #6]
    24d0:	2002      	movs	r0, #2
    24d2:	e07c      	b.n	25ce <f_read+0x176>
    24d4:	f1b0 3fff 	cmp.w	r0, #4294967295	; 0xffffffff
    24d8:	d006      	beq.n	24e8 <f_read+0x90>
    24da:	6160      	str	r0, [r4, #20]
    24dc:	6825      	ldr	r5, [r4, #0]
    24de:	6961      	ldr	r1, [r4, #20]
    24e0:	4628      	mov	r0, r5
    24e2:	f7ff f8e7 	bl	16b4 <clust2sect>
    24e6:	b938      	cbnz	r0, 24f8 <f_read+0xa0>
    24e8:	79a3      	ldrb	r3, [r4, #6]
    24ea:	3002      	adds	r0, #2
    24ec:	ea6f 6343 	mvn.w	r3, r3, lsl #25
    24f0:	ea6f 6353 	mvn.w	r3, r3, lsr #25
    24f4:	71a3      	strb	r3, [r4, #6]
    24f6:	e06a      	b.n	25ce <f_read+0x176>
    24f8:	ea5f 2659 	movs.w	r6, r9, lsr #9
    24fc:	eb07 0800 	add.w	r8, r7, r0
    2500:	d01f      	beq.n	2542 <f_read+0xea>
    2502:	78aa      	ldrb	r2, [r5, #2]
    2504:	19f3      	adds	r3, r6, r7
    2506:	4293      	cmp	r3, r2
    2508:	bf88      	it	hi
    250a:	1bd6      	subhi	r6, r2, r7
    250c:	b2f3      	uxtb	r3, r6
    250e:	7868      	ldrb	r0, [r5, #1]
    2510:	4651      	mov	r1, sl
    2512:	4642      	mov	r2, r8
    2514:	f001 fc46 	bl	3da4 <disk_read>
    2518:	79a3      	ldrb	r3, [r4, #6]
    251a:	2800      	cmp	r0, #0
    251c:	d12e      	bne.n	257c <f_read+0x124>
    251e:	f013 0f40 	tst.w	r3, #64	; 0x40
    2522:	d00c      	beq.n	253e <f_read+0xe6>
    2524:	69a3      	ldr	r3, [r4, #24]
    2526:	ebc8 0003 	rsb	r0, r8, r3
    252a:	42b0      	cmp	r0, r6
    252c:	d207      	bcs.n	253e <f_read+0xe6>
    252e:	eb0a 2040 	add.w	r0, sl, r0, lsl #9
    2532:	f104 0124 	add.w	r1, r4, #36	; 0x24
    2536:	f44f 7200 	mov.w	r2, #512	; 0x200
    253a:	f7ff f89d 	bl	1678 <mem_cpy>
    253e:	0275      	lsls	r5, r6, #9
    2540:	e035      	b.n	25ae <f_read+0x156>
    2542:	79a3      	ldrb	r3, [r4, #6]
    2544:	f013 0f40 	tst.w	r3, #64	; 0x40
    2548:	d00b      	beq.n	2562 <f_read+0x10a>
    254a:	2301      	movs	r3, #1
    254c:	7868      	ldrb	r0, [r5, #1]
    254e:	f104 0124 	add.w	r1, r4, #36	; 0x24
    2552:	69a2      	ldr	r2, [r4, #24]
    2554:	f001 fc06 	bl	3d64 <disk_write>
    2558:	79a3      	ldrb	r3, [r4, #6]
    255a:	b978      	cbnz	r0, 257c <f_read+0x124>
    255c:	f023 0340 	bic.w	r3, r3, #64	; 0x40
    2560:	71a3      	strb	r3, [r4, #6]
    2562:	69a3      	ldr	r3, [r4, #24]
    2564:	4543      	cmp	r3, r8
    2566:	d010      	beq.n	258a <f_read+0x132>
    2568:	6823      	ldr	r3, [r4, #0]
    256a:	f104 0124 	add.w	r1, r4, #36	; 0x24
    256e:	7858      	ldrb	r0, [r3, #1]
    2570:	4642      	mov	r2, r8
    2572:	2301      	movs	r3, #1
    2574:	f001 fc16 	bl	3da4 <disk_read>
    2578:	b138      	cbz	r0, 258a <f_read+0x132>
    257a:	79a3      	ldrb	r3, [r4, #6]
    257c:	ea6f 6343 	mvn.w	r3, r3, lsl #25
    2580:	ea6f 6353 	mvn.w	r3, r3, lsr #25
    2584:	71a3      	strb	r3, [r4, #6]
    2586:	2001      	movs	r0, #1
    2588:	e021      	b.n	25ce <f_read+0x176>
    258a:	f8c4 8018 	str.w	r8, [r4, #24]
    258e:	68a1      	ldr	r1, [r4, #8]
    2590:	4650      	mov	r0, sl
    2592:	05c9      	lsls	r1, r1, #23
    2594:	0dc9      	lsrs	r1, r1, #23
    2596:	f5c1 7300 	rsb	r3, r1, #512	; 0x200
    259a:	4599      	cmp	r9, r3
    259c:	bf34      	ite	cc
    259e:	464d      	movcc	r5, r9
    25a0:	461d      	movcs	r5, r3
    25a2:	f104 0324 	add.w	r3, r4, #36	; 0x24
    25a6:	1859      	adds	r1, r3, r1
    25a8:	462a      	mov	r2, r5
    25aa:	f7ff f865 	bl	1678 <mem_cpy>
    25ae:	68a3      	ldr	r3, [r4, #8]
    25b0:	44aa      	add	sl, r5
    25b2:	195b      	adds	r3, r3, r5
    25b4:	60a3      	str	r3, [r4, #8]
    25b6:	f8db 3000 	ldr.w	r3, [fp]
    25ba:	ebc5 0909 	rsb	r9, r5, r9
    25be:	195b      	adds	r3, r3, r5
    25c0:	f8cb 3000 	str.w	r3, [fp]
    25c4:	f1b9 0f00 	cmp.w	r9, #0	; 0x0
    25c8:	f47f af68 	bne.w	249c <f_read+0x44>
    25cc:	4648      	mov	r0, r9
    25ce:	e8bd 8ff8 	ldmia.w	sp!, {r3, r4, r5, r6, r7, r8, r9, sl, fp, pc}
    25d2:	46c0      	nop			(mov r8, r8)

000025d4 <dir_sdi>:
    25d4:	b570      	push	{r4, r5, r6, lr}
    25d6:	4605      	mov	r5, r0
    25d8:	460e      	mov	r6, r1
    25da:	80e9      	strh	r1, [r5, #6]
    25dc:	6881      	ldr	r1, [r0, #8]
    25de:	2901      	cmp	r1, #1
    25e0:	d039      	beq.n	2656 <dir_sdi+0x82>
    25e2:	6802      	ldr	r2, [r0, #0]
    25e4:	69d3      	ldr	r3, [r2, #28]
    25e6:	4299      	cmp	r1, r3
    25e8:	d235      	bcs.n	2656 <dir_sdi+0x82>
    25ea:	b971      	cbnz	r1, 260a <dir_sdi+0x36>
    25ec:	7813      	ldrb	r3, [r2, #0]
    25ee:	2b03      	cmp	r3, #3
    25f0:	d101      	bne.n	25f6 <dir_sdi+0x22>
    25f2:	6a91      	ldr	r1, [r2, #40]
    25f4:	b949      	cbnz	r1, 260a <dir_sdi+0x36>
    25f6:	2300      	movs	r3, #0
    25f8:	60eb      	str	r3, [r5, #12]
    25fa:	8913      	ldrh	r3, [r2, #8]
    25fc:	42b3      	cmp	r3, r6
    25fe:	d92a      	bls.n	2656 <dir_sdi+0x82>
    2600:	6a93      	ldr	r3, [r2, #40]
    2602:	eb03 1316 	add.w	r3, r3, r6, lsr #4
    2606:	612b      	str	r3, [r5, #16]
    2608:	e01c      	b.n	2644 <dir_sdi+0x70>
    260a:	7893      	ldrb	r3, [r2, #2]
    260c:	011c      	lsls	r4, r3, #4
    260e:	e010      	b.n	2632 <dir_sdi+0x5e>
    2610:	6828      	ldr	r0, [r5, #0]
    2612:	f7ff fe45 	bl	22a0 <get_fat>
    2616:	f1b0 3fff 	cmp.w	r0, #4294967295	; 0xffffffff
    261a:	4601      	mov	r1, r0
    261c:	d101      	bne.n	2622 <dir_sdi+0x4e>
    261e:	2001      	movs	r0, #1
    2620:	e01a      	b.n	2658 <dir_sdi+0x84>
    2622:	2801      	cmp	r0, #1
    2624:	d917      	bls.n	2656 <dir_sdi+0x82>
    2626:	682b      	ldr	r3, [r5, #0]
    2628:	69db      	ldr	r3, [r3, #28]
    262a:	4298      	cmp	r0, r3
    262c:	d213      	bcs.n	2656 <dir_sdi+0x82>
    262e:	1b33      	subs	r3, r6, r4
    2630:	b29e      	uxth	r6, r3
    2632:	42a6      	cmp	r6, r4
    2634:	d2ec      	bcs.n	2610 <dir_sdi+0x3c>
    2636:	60e9      	str	r1, [r5, #12]
    2638:	6828      	ldr	r0, [r5, #0]
    263a:	f7ff f83b 	bl	16b4 <clust2sect>
    263e:	0934      	lsrs	r4, r6, #4
    2640:	1824      	adds	r4, r4, r0
    2642:	612c      	str	r4, [r5, #16]
    2644:	682b      	ldr	r3, [r5, #0]
    2646:	f006 020f 	and.w	r2, r6, #15	; 0xf
    264a:	3334      	adds	r3, #52
    264c:	eb03 1342 	add.w	r3, r3, r2, lsl #5
    2650:	616b      	str	r3, [r5, #20]
    2652:	2000      	movs	r0, #0
    2654:	e000      	b.n	2658 <dir_sdi+0x84>
    2656:	2002      	movs	r0, #2
    2658:	bd70      	pop	{r4, r5, r6, pc}
    265a:	46c0      	nop			(mov r8, r8)

0000265c <create_chain>:
    265c:	e92d 41f0 	stmdb	sp!, {r4, r5, r6, r7, r8, lr}
    2660:	4606      	mov	r6, r0
    2662:	460f      	mov	r7, r1
    2664:	b929      	cbnz	r1, 2672 <create_chain+0x16>
    2666:	68c5      	ldr	r5, [r0, #12]
    2668:	b17d      	cbz	r5, 268a <create_chain+0x2e>
    266a:	69c3      	ldr	r3, [r0, #28]
    266c:	429d      	cmp	r5, r3
    266e:	d20c      	bcs.n	268a <create_chain+0x2e>
    2670:	e00c      	b.n	268c <create_chain+0x30>
    2672:	f7ff fe15 	bl	22a0 <get_fat>
    2676:	2801      	cmp	r0, #1
    2678:	4602      	mov	r2, r0
    267a:	d801      	bhi.n	2680 <create_chain+0x24>
    267c:	2201      	movs	r2, #1
    267e:	e038      	b.n	26f2 <create_chain+0x96>
    2680:	69f3      	ldr	r3, [r6, #28]
    2682:	4298      	cmp	r0, r3
    2684:	d335      	bcc.n	26f2 <create_chain+0x96>
    2686:	463d      	mov	r5, r7
    2688:	e000      	b.n	268c <create_chain+0x30>
    268a:	2501      	movs	r5, #1
    268c:	462c      	mov	r4, r5
    268e:	69f3      	ldr	r3, [r6, #28]
    2690:	3401      	adds	r4, #1
    2692:	429c      	cmp	r4, r3
    2694:	d302      	bcc.n	269c <create_chain+0x40>
    2696:	2d01      	cmp	r5, #1
    2698:	d927      	bls.n	26ea <create_chain+0x8e>
    269a:	2402      	movs	r4, #2
    269c:	4630      	mov	r0, r6
    269e:	4621      	mov	r1, r4
    26a0:	f7ff fdfe 	bl	22a0 <get_fat>
    26a4:	4602      	mov	r2, r0
    26a6:	b138      	cbz	r0, 26b8 <create_chain+0x5c>
    26a8:	f1b0 3fff 	cmp.w	r0, #4294967295	; 0xffffffff
    26ac:	d021      	beq.n	26f2 <create_chain+0x96>
    26ae:	2801      	cmp	r0, #1
    26b0:	d01f      	beq.n	26f2 <create_chain+0x96>
    26b2:	42ac      	cmp	r4, r5
    26b4:	d019      	beq.n	26ea <create_chain+0x8e>
    26b6:	e7ea      	b.n	268e <create_chain+0x32>
    26b8:	4630      	mov	r0, r6
    26ba:	4621      	mov	r1, r4
    26bc:	f06f 4270 	mvn.w	r2, #4026531840	; 0xf0000000
    26c0:	f7ff fd68 	bl	2194 <put_fat>
    26c4:	b998      	cbnz	r0, 26ee <create_chain+0x92>
    26c6:	b12f      	cbz	r7, 26d4 <create_chain+0x78>
    26c8:	4630      	mov	r0, r6
    26ca:	4639      	mov	r1, r7
    26cc:	4622      	mov	r2, r4
    26ce:	f7ff fd61 	bl	2194 <put_fat>
    26d2:	b960      	cbnz	r0, 26ee <create_chain+0x92>
    26d4:	6933      	ldr	r3, [r6, #16]
    26d6:	60f4      	str	r4, [r6, #12]
    26d8:	f1b3 3fff 	cmp.w	r3, #4294967295	; 0xffffffff
    26dc:	d003      	beq.n	26e6 <create_chain+0x8a>
    26de:	3b01      	subs	r3, #1
    26e0:	6133      	str	r3, [r6, #16]
    26e2:	2301      	movs	r3, #1
    26e4:	7173      	strb	r3, [r6, #5]
    26e6:	4622      	mov	r2, r4
    26e8:	e003      	b.n	26f2 <create_chain+0x96>
    26ea:	2200      	movs	r2, #0
    26ec:	e001      	b.n	26f2 <create_chain+0x96>
    26ee:	f04f 32ff 	mov.w	r2, #4294967295	; 0xffffffff
    26f2:	4610      	mov	r0, r2
    26f4:	e8bd 81f0 	ldmia.w	sp!, {r4, r5, r6, r7, r8, pc}

000026f8 <f_lseek>:
    26f8:	b570      	push	{r4, r5, r6, lr}
    26fa:	4604      	mov	r4, r0
    26fc:	460d      	mov	r5, r1
    26fe:	6800      	ldr	r0, [r0, #0]
    2700:	88a1      	ldrh	r1, [r4, #4]
    2702:	f7ff fb29 	bl	1d58 <validate>
    2706:	4601      	mov	r1, r0
    2708:	2800      	cmp	r0, #0
    270a:	f040 809f 	bne.w	284c <f_lseek+0x154>
    270e:	79a2      	ldrb	r2, [r4, #6]
    2710:	f012 0f80 	tst.w	r2, #128	; 0x80
    2714:	d129      	bne.n	276a <f_lseek+0x72>
    2716:	68e3      	ldr	r3, [r4, #12]
    2718:	429d      	cmp	r5, r3
    271a:	d903      	bls.n	2724 <f_lseek+0x2c>
    271c:	f012 0f02 	tst.w	r2, #2	; 0x2
    2720:	bf08      	it	eq
    2722:	461d      	moveq	r5, r3
    2724:	68a2      	ldr	r2, [r4, #8]
    2726:	60a1      	str	r1, [r4, #8]
    2728:	2d00      	cmp	r5, #0
    272a:	d05b      	beq.n	27e4 <f_lseek+0xec>
    272c:	6820      	ldr	r0, [r4, #0]
    272e:	7883      	ldrb	r3, [r0, #2]
    2730:	025e      	lsls	r6, r3, #9
    2732:	b16a      	cbz	r2, 2750 <f_lseek+0x58>
    2734:	1e51      	subs	r1, r2, #1
    2736:	1e6b      	subs	r3, r5, #1
    2738:	fbb3 f3f6 	udiv	r3, r3, r6
    273c:	fbb1 f2f6 	udiv	r2, r1, r6
    2740:	4293      	cmp	r3, r2
    2742:	d305      	bcc.n	2750 <f_lseek+0x58>
    2744:	4273      	negs	r3, r6
    2746:	400b      	ands	r3, r1
    2748:	60a3      	str	r3, [r4, #8]
    274a:	1aed      	subs	r5, r5, r3
    274c:	6961      	ldr	r1, [r4, #20]
    274e:	e013      	b.n	2778 <f_lseek+0x80>
    2750:	6921      	ldr	r1, [r4, #16]
    2752:	b981      	cbnz	r1, 2776 <f_lseek+0x7e>
    2754:	f7ff ff82 	bl	265c <create_chain>
    2758:	2801      	cmp	r0, #1
    275a:	4601      	mov	r1, r0
    275c:	d107      	bne.n	276e <f_lseek+0x76>
    275e:	79a3      	ldrb	r3, [r4, #6]
    2760:	ea6f 6343 	mvn.w	r3, r3, lsl #25
    2764:	ea6f 6353 	mvn.w	r3, r3, lsr #25
    2768:	71a3      	strb	r3, [r4, #6]
    276a:	2002      	movs	r0, #2
    276c:	e06e      	b.n	284c <f_lseek+0x154>
    276e:	f1b0 3fff 	cmp.w	r0, #4294967295	; 0xffffffff
    2772:	d058      	beq.n	2826 <f_lseek+0x12e>
    2774:	6120      	str	r0, [r4, #16]
    2776:	6161      	str	r1, [r4, #20]
    2778:	b9e9      	cbnz	r1, 27b6 <f_lseek+0xbe>
    277a:	e033      	b.n	27e4 <f_lseek+0xec>
    277c:	79a3      	ldrb	r3, [r4, #6]
    277e:	f013 0f02 	tst.w	r3, #2	; 0x2
    2782:	d006      	beq.n	2792 <f_lseek+0x9a>
    2784:	6820      	ldr	r0, [r4, #0]
    2786:	f7ff ff69 	bl	265c <create_chain>
    278a:	4601      	mov	r1, r0
    278c:	b928      	cbnz	r0, 279a <f_lseek+0xa2>
    278e:	4635      	mov	r5, r6
    2790:	e013      	b.n	27ba <f_lseek+0xc2>
    2792:	6820      	ldr	r0, [r4, #0]
    2794:	f7ff fd84 	bl	22a0 <get_fat>
    2798:	4601      	mov	r1, r0
    279a:	f1b1 3fff 	cmp.w	r1, #4294967295	; 0xffffffff
    279e:	d042      	beq.n	2826 <f_lseek+0x12e>
    27a0:	2901      	cmp	r1, #1
    27a2:	d9dc      	bls.n	275e <f_lseek+0x66>
    27a4:	6823      	ldr	r3, [r4, #0]
    27a6:	69db      	ldr	r3, [r3, #28]
    27a8:	4299      	cmp	r1, r3
    27aa:	d2d8      	bcs.n	275e <f_lseek+0x66>
    27ac:	68a3      	ldr	r3, [r4, #8]
    27ae:	6161      	str	r1, [r4, #20]
    27b0:	199b      	adds	r3, r3, r6
    27b2:	60a3      	str	r3, [r4, #8]
    27b4:	1bad      	subs	r5, r5, r6
    27b6:	42b5      	cmp	r5, r6
    27b8:	d8e0      	bhi.n	277c <f_lseek+0x84>
    27ba:	68a3      	ldr	r3, [r4, #8]
    27bc:	195b      	adds	r3, r3, r5
    27be:	60a3      	str	r3, [r4, #8]
    27c0:	05eb      	lsls	r3, r5, #23
    27c2:	0ddb      	lsrs	r3, r3, #23
    27c4:	b173      	cbz	r3, 27e4 <f_lseek+0xec>
    27c6:	6820      	ldr	r0, [r4, #0]
    27c8:	f7fe ff74 	bl	16b4 <clust2sect>
    27cc:	b938      	cbnz	r0, 27de <f_lseek+0xe6>
    27ce:	79a3      	ldrb	r3, [r4, #6]
    27d0:	3002      	adds	r0, #2
    27d2:	ea6f 6343 	mvn.w	r3, r3, lsl #25
    27d6:	ea6f 6353 	mvn.w	r3, r3, lsr #25
    27da:	71a3      	strb	r3, [r4, #6]
    27dc:	e036      	b.n	284c <f_lseek+0x154>
    27de:	eb00 2555 	add.w	r5, r0, r5, lsr #9
    27e2:	e000      	b.n	27e6 <f_lseek+0xee>
    27e4:	2500      	movs	r5, #0
    27e6:	68a3      	ldr	r3, [r4, #8]
    27e8:	05db      	lsls	r3, r3, #23
    27ea:	0ddb      	lsrs	r3, r3, #23
    27ec:	b323      	cbz	r3, 2838 <f_lseek+0x140>
    27ee:	69a2      	ldr	r2, [r4, #24]
    27f0:	4295      	cmp	r5, r2
    27f2:	d021      	beq.n	2838 <f_lseek+0x140>
    27f4:	79a3      	ldrb	r3, [r4, #6]
    27f6:	f013 0f40 	tst.w	r3, #64	; 0x40
    27fa:	d00b      	beq.n	2814 <f_lseek+0x11c>
    27fc:	6823      	ldr	r3, [r4, #0]
    27fe:	f104 0124 	add.w	r1, r4, #36	; 0x24
    2802:	7858      	ldrb	r0, [r3, #1]
    2804:	2301      	movs	r3, #1
    2806:	f001 faad 	bl	3d64 <disk_write>
    280a:	79a3      	ldrb	r3, [r4, #6]
    280c:	b960      	cbnz	r0, 2828 <f_lseek+0x130>
    280e:	f023 0340 	bic.w	r3, r3, #64	; 0x40
    2812:	71a3      	strb	r3, [r4, #6]
    2814:	6823      	ldr	r3, [r4, #0]
    2816:	f104 0124 	add.w	r1, r4, #36	; 0x24
    281a:	7858      	ldrb	r0, [r3, #1]
    281c:	462a      	mov	r2, r5
    281e:	2301      	movs	r3, #1
    2820:	f001 fac0 	bl	3da4 <disk_read>
    2824:	b138      	cbz	r0, 2836 <f_lseek+0x13e>
    2826:	79a3      	ldrb	r3, [r4, #6]
    2828:	ea6f 6343 	mvn.w	r3, r3, lsl #25
    282c:	ea6f 6353 	mvn.w	r3, r3, lsr #25
    2830:	71a3      	strb	r3, [r4, #6]
    2832:	2001      	movs	r0, #1
    2834:	e00a      	b.n	284c <f_lseek+0x154>
    2836:	61a5      	str	r5, [r4, #24]
    2838:	68a2      	ldr	r2, [r4, #8]
    283a:	68e3      	ldr	r3, [r4, #12]
    283c:	429a      	cmp	r2, r3
    283e:	d904      	bls.n	284a <f_lseek+0x152>
    2840:	79a3      	ldrb	r3, [r4, #6]
    2842:	60e2      	str	r2, [r4, #12]
    2844:	f043 0320 	orr.w	r3, r3, #32	; 0x20
    2848:	71a3      	strb	r3, [r4, #6]
    284a:	2000      	movs	r0, #0
    284c:	bd70      	pop	{r4, r5, r6, pc}
    284e:	46c0      	nop			(mov r8, r8)

00002850 <f_write>:
    2850:	e92d 4ff8 	stmdb	sp!, {r3, r4, r5, r6, r7, r8, r9, sl, fp, lr}
    2854:	4604      	mov	r4, r0
    2856:	469b      	mov	fp, r3
    2858:	2300      	movs	r3, #0
    285a:	460d      	mov	r5, r1
    285c:	f8cb 3000 	str.w	r3, [fp]
    2860:	6800      	ldr	r0, [r0, #0]
    2862:	88a1      	ldrh	r1, [r4, #4]
    2864:	4690      	mov	r8, r2
    2866:	f7ff fa77 	bl	1d58 <validate>
    286a:	2800      	cmp	r0, #0
    286c:	f040 80c8 	bne.w	2a00 <f_write+0x1b0>
    2870:	79a3      	ldrb	r3, [r4, #6]
    2872:	f013 0f80 	tst.w	r3, #128	; 0x80
    2876:	d133      	bne.n	28e0 <f_write+0x90>
    2878:	f013 0f02 	tst.w	r3, #2	; 0x2
    287c:	d101      	bne.n	2882 <f_write+0x32>
    287e:	2007      	movs	r0, #7
    2880:	e0be      	b.n	2a00 <f_write+0x1b0>
    2882:	68e3      	ldr	r3, [r4, #12]
    2884:	46aa      	mov	sl, r5
    2886:	eb18 0f03 	cmn.w	r8, r3
    288a:	bf28      	it	cs
    288c:	f04f 0800 	movcs.w	r8, #0	; 0x0
    2890:	e0a8      	b.n	29e4 <f_write+0x194>
    2892:	68a2      	ldr	r2, [r4, #8]
    2894:	05d3      	lsls	r3, r2, #23
    2896:	0ddb      	lsrs	r3, r3, #23
    2898:	2b00      	cmp	r3, #0
    289a:	f040 8084 	bne.w	29a6 <f_write+0x156>
    289e:	6820      	ldr	r0, [r4, #0]
    28a0:	7883      	ldrb	r3, [r0, #2]
    28a2:	3b01      	subs	r3, #1
    28a4:	ea03 2352 	and.w	r3, r3, r2, lsr #9
    28a8:	fa5f f983 	uxtb.w	r9, r3
    28ac:	f1b9 0f00 	cmp.w	r9, #0	; 0x0
    28b0:	d11c      	bne.n	28ec <f_write+0x9c>
    28b2:	b932      	cbnz	r2, 28c2 <f_write+0x72>
    28b4:	6921      	ldr	r1, [r4, #16]
    28b6:	b959      	cbnz	r1, 28d0 <f_write+0x80>
    28b8:	f7ff fed0 	bl	265c <create_chain>
    28bc:	4601      	mov	r1, r0
    28be:	6120      	str	r0, [r4, #16]
    28c0:	e003      	b.n	28ca <f_write+0x7a>
    28c2:	6961      	ldr	r1, [r4, #20]
    28c4:	f7ff feca 	bl	265c <create_chain>
    28c8:	4601      	mov	r1, r0
    28ca:	2900      	cmp	r1, #0
    28cc:	f000 808e 	beq.w	29ec <f_write+0x19c>
    28d0:	2901      	cmp	r1, #1
    28d2:	d107      	bne.n	28e4 <f_write+0x94>
    28d4:	79a3      	ldrb	r3, [r4, #6]
    28d6:	ea6f 6343 	mvn.w	r3, r3, lsl #25
    28da:	ea6f 6353 	mvn.w	r3, r3, lsr #25
    28de:	71a3      	strb	r3, [r4, #6]
    28e0:	2002      	movs	r0, #2
    28e2:	e08d      	b.n	2a00 <f_write+0x1b0>
    28e4:	f1b1 3fff 	cmp.w	r1, #4294967295	; 0xffffffff
    28e8:	d054      	beq.n	2994 <f_write+0x144>
    28ea:	6161      	str	r1, [r4, #20]
    28ec:	79a3      	ldrb	r3, [r4, #6]
    28ee:	f013 0f40 	tst.w	r3, #64	; 0x40
    28f2:	d00d      	beq.n	2910 <f_write+0xc0>
    28f4:	6823      	ldr	r3, [r4, #0]
    28f6:	f104 0124 	add.w	r1, r4, #36	; 0x24
    28fa:	7858      	ldrb	r0, [r3, #1]
    28fc:	69a2      	ldr	r2, [r4, #24]
    28fe:	2301      	movs	r3, #1
    2900:	f001 fa30 	bl	3d64 <disk_write>
    2904:	79a3      	ldrb	r3, [r4, #6]
    2906:	2800      	cmp	r0, #0
    2908:	d145      	bne.n	2996 <f_write+0x146>
    290a:	f023 0340 	bic.w	r3, r3, #64	; 0x40
    290e:	71a3      	strb	r3, [r4, #6]
    2910:	6826      	ldr	r6, [r4, #0]
    2912:	6961      	ldr	r1, [r4, #20]
    2914:	4630      	mov	r0, r6
    2916:	f7fe fecd 	bl	16b4 <clust2sect>
    291a:	b938      	cbnz	r0, 292c <f_write+0xdc>
    291c:	79a3      	ldrb	r3, [r4, #6]
    291e:	3002      	adds	r0, #2
    2920:	ea6f 6343 	mvn.w	r3, r3, lsl #25
    2924:	ea6f 6353 	mvn.w	r3, r3, lsr #25
    2928:	71a3      	strb	r3, [r4, #6]
    292a:	e069      	b.n	2a00 <f_write+0x1b0>
    292c:	ea5f 2558 	movs.w	r5, r8, lsr #9
    2930:	eb09 0700 	add.w	r7, r9, r0
    2934:	d01f      	beq.n	2976 <f_write+0x126>
    2936:	78b2      	ldrb	r2, [r6, #2]
    2938:	eb05 0309 	add.w	r3, r5, r9
    293c:	4293      	cmp	r3, r2
    293e:	bf88      	it	hi
    2940:	ebc9 0502 	rsbhi	r5, r9, r2
    2944:	7870      	ldrb	r0, [r6, #1]
    2946:	4651      	mov	r1, sl
    2948:	463a      	mov	r2, r7
    294a:	b2eb      	uxtb	r3, r5
    294c:	f001 fa0a 	bl	3d64 <disk_write>
    2950:	bb00      	cbnz	r0, 2994 <f_write+0x144>
    2952:	69a3      	ldr	r3, [r4, #24]
    2954:	1bda      	subs	r2, r3, r7
    2956:	42aa      	cmp	r2, r5
    2958:	d20b      	bcs.n	2972 <f_write+0x122>
    295a:	eb0a 2142 	add.w	r1, sl, r2, lsl #9
    295e:	f104 0024 	add.w	r0, r4, #36	; 0x24
    2962:	f44f 7200 	mov.w	r2, #512	; 0x200
    2966:	f7fe fe87 	bl	1678 <mem_cpy>
    296a:	79a3      	ldrb	r3, [r4, #6]
    296c:	f023 0340 	bic.w	r3, r3, #64	; 0x40
    2970:	71a3      	strb	r3, [r4, #6]
    2972:	026d      	lsls	r5, r5, #9
    2974:	e02b      	b.n	29ce <f_write+0x17e>
    2976:	69a3      	ldr	r3, [r4, #24]
    2978:	42bb      	cmp	r3, r7
    297a:	d013      	beq.n	29a4 <f_write+0x154>
    297c:	68a2      	ldr	r2, [r4, #8]
    297e:	68e3      	ldr	r3, [r4, #12]
    2980:	429a      	cmp	r2, r3
    2982:	d20f      	bcs.n	29a4 <f_write+0x154>
    2984:	7870      	ldrb	r0, [r6, #1]
    2986:	f104 0124 	add.w	r1, r4, #36	; 0x24
    298a:	463a      	mov	r2, r7
    298c:	2301      	movs	r3, #1
    298e:	f001 fa09 	bl	3da4 <disk_read>
    2992:	b138      	cbz	r0, 29a4 <f_write+0x154>
    2994:	79a3      	ldrb	r3, [r4, #6]
    2996:	ea6f 6343 	mvn.w	r3, r3, lsl #25
    299a:	ea6f 6353 	mvn.w	r3, r3, lsr #25
    299e:	71a3      	strb	r3, [r4, #6]
    29a0:	2001      	movs	r0, #1
    29a2:	e02d      	b.n	2a00 <f_write+0x1b0>
    29a4:	61a7      	str	r7, [r4, #24]
    29a6:	68a0      	ldr	r0, [r4, #8]
    29a8:	4651      	mov	r1, sl
    29aa:	05c0      	lsls	r0, r0, #23
    29ac:	0dc0      	lsrs	r0, r0, #23
    29ae:	f5c0 7300 	rsb	r3, r0, #512	; 0x200
    29b2:	4598      	cmp	r8, r3
    29b4:	bf34      	ite	cc
    29b6:	4645      	movcc	r5, r8
    29b8:	461d      	movcs	r5, r3
    29ba:	f104 0324 	add.w	r3, r4, #36	; 0x24
    29be:	1818      	adds	r0, r3, r0
    29c0:	462a      	mov	r2, r5
    29c2:	f7fe fe59 	bl	1678 <mem_cpy>
    29c6:	79a3      	ldrb	r3, [r4, #6]
    29c8:	f043 0340 	orr.w	r3, r3, #64	; 0x40
    29cc:	71a3      	strb	r3, [r4, #6]
    29ce:	68a3      	ldr	r3, [r4, #8]
    29d0:	44aa      	add	sl, r5
    29d2:	195b      	adds	r3, r3, r5
    29d4:	60a3      	str	r3, [r4, #8]
    29d6:	f8db 3000 	ldr.w	r3, [fp]
    29da:	ebc5 0808 	rsb	r8, r5, r8
    29de:	195b      	adds	r3, r3, r5
    29e0:	f8cb 3000 	str.w	r3, [fp]
    29e4:	f1b8 0f00 	cmp.w	r8, #0	; 0x0
    29e8:	f47f af53 	bne.w	2892 <f_write+0x42>
    29ec:	68e3      	ldr	r3, [r4, #12]
    29ee:	68a2      	ldr	r2, [r4, #8]
    29f0:	429a      	cmp	r2, r3
    29f2:	79a3      	ldrb	r3, [r4, #6]
    29f4:	bf88      	it	hi
    29f6:	60e2      	strhi	r2, [r4, #12]
    29f8:	f043 0320 	orr.w	r3, r3, #32	; 0x20
    29fc:	71a3      	strb	r3, [r4, #6]
    29fe:	2000      	movs	r0, #0
    2a00:	e8bd 8ff8 	ldmia.w	sp!, {r3, r4, r5, r6, r7, r8, r9, sl, fp, pc}

00002a04 <dir_next>:
    2a04:	88c3      	ldrh	r3, [r0, #6]
    2a06:	e92d 41f0 	stmdb	sp!, {r4, r5, r6, r7, r8, lr}
    2a0a:	3301      	adds	r3, #1
    2a0c:	b29f      	uxth	r7, r3
    2a0e:	4605      	mov	r5, r0
    2a10:	460c      	mov	r4, r1
    2a12:	2f00      	cmp	r7, #0
    2a14:	d064      	beq.n	2ae0 <dir_next+0xdc>
    2a16:	6903      	ldr	r3, [r0, #16]
    2a18:	2b00      	cmp	r3, #0
    2a1a:	d061      	beq.n	2ae0 <dir_next+0xdc>
    2a1c:	f017 080f 	ands.w	r8, r7, #15	; 0xf
    2a20:	d156      	bne.n	2ad0 <dir_next+0xcc>
    2a22:	68c1      	ldr	r1, [r0, #12]
    2a24:	3301      	adds	r3, #1
    2a26:	6103      	str	r3, [r0, #16]
    2a28:	6800      	ldr	r0, [r0, #0]
    2a2a:	b919      	cbnz	r1, 2a34 <dir_next+0x30>
    2a2c:	8903      	ldrh	r3, [r0, #8]
    2a2e:	42bb      	cmp	r3, r7
    2a30:	d956      	bls.n	2ae0 <dir_next+0xdc>
    2a32:	e04d      	b.n	2ad0 <dir_next+0xcc>
    2a34:	7883      	ldrb	r3, [r0, #2]
    2a36:	3b01      	subs	r3, #1
    2a38:	ea13 1317 	ands.w	r3, r3, r7, lsr #4
    2a3c:	d148      	bne.n	2ad0 <dir_next+0xcc>
    2a3e:	f7ff fc2f 	bl	22a0 <get_fat>
    2a42:	2801      	cmp	r0, #1
    2a44:	4606      	mov	r6, r0
    2a46:	d94d      	bls.n	2ae4 <dir_next+0xe0>
    2a48:	f1b0 3fff 	cmp.w	r0, #4294967295	; 0xffffffff
    2a4c:	d04c      	beq.n	2ae8 <dir_next+0xe4>
    2a4e:	6828      	ldr	r0, [r5, #0]
    2a50:	69c3      	ldr	r3, [r0, #28]
    2a52:	429e      	cmp	r6, r3
    2a54:	d336      	bcc.n	2ac4 <dir_next+0xc0>
    2a56:	2c00      	cmp	r4, #0
    2a58:	d042      	beq.n	2ae0 <dir_next+0xdc>
    2a5a:	68e9      	ldr	r1, [r5, #12]
    2a5c:	f7ff fdfe 	bl	265c <create_chain>
    2a60:	4606      	mov	r6, r0
    2a62:	b908      	cbnz	r0, 2a68 <dir_next+0x64>
    2a64:	3007      	adds	r0, #7
    2a66:	e040      	b.n	2aea <dir_next+0xe6>
    2a68:	2801      	cmp	r0, #1
    2a6a:	d03b      	beq.n	2ae4 <dir_next+0xe0>
    2a6c:	f1b0 3fff 	cmp.w	r0, #4294967295	; 0xffffffff
    2a70:	d03a      	beq.n	2ae8 <dir_next+0xe4>
    2a72:	6828      	ldr	r0, [r5, #0]
    2a74:	4641      	mov	r1, r8
    2a76:	f7ff fb57 	bl	2128 <move_window>
    2a7a:	2800      	cmp	r0, #0
    2a7c:	d134      	bne.n	2ae8 <dir_next+0xe4>
    2a7e:	6828      	ldr	r0, [r5, #0]
    2a80:	4641      	mov	r1, r8
    2a82:	3034      	adds	r0, #52
    2a84:	f44f 7200 	mov.w	r2, #512	; 0x200
    2a88:	f7fe fe04 	bl	1694 <mem_set>
    2a8c:	682c      	ldr	r4, [r5, #0]
    2a8e:	4631      	mov	r1, r6
    2a90:	4620      	mov	r0, r4
    2a92:	f7fe fe0f 	bl	16b4 <clust2sect>
    2a96:	6320      	str	r0, [r4, #48]
    2a98:	4644      	mov	r4, r8
    2a9a:	e00b      	b.n	2ab4 <dir_next+0xb0>
    2a9c:	2301      	movs	r3, #1
    2a9e:	7113      	strb	r3, [r2, #4]
    2aa0:	6828      	ldr	r0, [r5, #0]
    2aa2:	2100      	movs	r1, #0
    2aa4:	f7ff fb40 	bl	2128 <move_window>
    2aa8:	3401      	adds	r4, #1
    2aaa:	b9e8      	cbnz	r0, 2ae8 <dir_next+0xe4>
    2aac:	682a      	ldr	r2, [r5, #0]
    2aae:	6b13      	ldr	r3, [r2, #48]
    2ab0:	3301      	adds	r3, #1
    2ab2:	6313      	str	r3, [r2, #48]
    2ab4:	682a      	ldr	r2, [r5, #0]
    2ab6:	b2e1      	uxtb	r1, r4
    2ab8:	7893      	ldrb	r3, [r2, #2]
    2aba:	428b      	cmp	r3, r1
    2abc:	d8ee      	bhi.n	2a9c <dir_next+0x98>
    2abe:	6b13      	ldr	r3, [r2, #48]
    2ac0:	1a5b      	subs	r3, r3, r1
    2ac2:	6313      	str	r3, [r2, #48]
    2ac4:	60ee      	str	r6, [r5, #12]
    2ac6:	6828      	ldr	r0, [r5, #0]
    2ac8:	4631      	mov	r1, r6
    2aca:	f7fe fdf3 	bl	16b4 <clust2sect>
    2ace:	6128      	str	r0, [r5, #16]
    2ad0:	682b      	ldr	r3, [r5, #0]
    2ad2:	80ef      	strh	r7, [r5, #6]
    2ad4:	3334      	adds	r3, #52
    2ad6:	eb03 1348 	add.w	r3, r3, r8, lsl #5
    2ada:	616b      	str	r3, [r5, #20]
    2adc:	2000      	movs	r0, #0
    2ade:	e004      	b.n	2aea <dir_next+0xe6>
    2ae0:	2004      	movs	r0, #4
    2ae2:	e002      	b.n	2aea <dir_next+0xe6>
    2ae4:	2002      	movs	r0, #2
    2ae6:	e000      	b.n	2aea <dir_next+0xe6>
    2ae8:	2001      	movs	r0, #1
    2aea:	e8bd 81f0 	ldmia.w	sp!, {r4, r5, r6, r7, r8, pc}
    2aee:	46c0      	nop			(mov r8, r8)

00002af0 <dir_remove>:
    2af0:	b570      	push	{r4, r5, r6, lr}
    2af2:	8c03      	ldrh	r3, [r0, #32]
    2af4:	88c5      	ldrh	r5, [r0, #6]
    2af6:	f64f 71ff 	movw	r1, #65535	; 0xffff
    2afa:	428b      	cmp	r3, r1
    2afc:	bf14      	ite	ne
    2afe:	4619      	movne	r1, r3
    2b00:	4629      	moveq	r1, r5
    2b02:	4604      	mov	r4, r0
    2b04:	f7ff fd66 	bl	25d4 <dir_sdi>
    2b08:	4601      	mov	r1, r0
    2b0a:	b9c0      	cbnz	r0, 2b3e <dir_remove+0x4e>
    2b0c:	6921      	ldr	r1, [r4, #16]
    2b0e:	6820      	ldr	r0, [r4, #0]
    2b10:	f7ff fb0a 	bl	2128 <move_window>
    2b14:	4601      	mov	r1, r0
    2b16:	b978      	cbnz	r0, 2b38 <dir_remove+0x48>
    2b18:	6962      	ldr	r2, [r4, #20]
    2b1a:	f06f 031a 	mvn.w	r3, #26	; 0x1a
    2b1e:	7013      	strb	r3, [r2, #0]
    2b20:	6822      	ldr	r2, [r4, #0]
    2b22:	331c      	adds	r3, #28
    2b24:	7113      	strb	r3, [r2, #4]
    2b26:	88e3      	ldrh	r3, [r4, #6]
    2b28:	42ab      	cmp	r3, r5
    2b2a:	d208      	bcs.n	2b3e <dir_remove+0x4e>
    2b2c:	4620      	mov	r0, r4
    2b2e:	f7ff ff69 	bl	2a04 <dir_next>
    2b32:	4601      	mov	r1, r0
    2b34:	2800      	cmp	r0, #0
    2b36:	d0e9      	beq.n	2b0c <dir_remove+0x1c>
    2b38:	2904      	cmp	r1, #4
    2b3a:	bf08      	it	eq
    2b3c:	2102      	moveq	r1, #2
    2b3e:	4608      	mov	r0, r1
    2b40:	bd70      	pop	{r4, r5, r6, pc}
    2b42:	46c0      	nop			(mov r8, r8)

00002b44 <dir_read>:
    2b44:	e92d 41f0 	stmdb	sp!, {r4, r5, r6, r7, r8, lr}
    2b48:	26ff      	movs	r6, #255
    2b4a:	4604      	mov	r4, r0
    2b4c:	2504      	movs	r5, #4
    2b4e:	46b0      	mov	r8, r6
    2b50:	e069      	b.n	2c26 <dir_read+0xe2>
    2b52:	6820      	ldr	r0, [r4, #0]
    2b54:	f7ff fae8 	bl	2128 <move_window>
    2b58:	4605      	mov	r5, r0
    2b5a:	2800      	cmp	r0, #0
    2b5c:	d167      	bne.n	2c2e <dir_read+0xea>
    2b5e:	6960      	ldr	r0, [r4, #20]
    2b60:	7803      	ldrb	r3, [r0, #0]
    2b62:	2b00      	cmp	r3, #0
    2b64:	d066      	beq.n	2c34 <dir_read+0xf0>
    2b66:	2be5      	cmp	r3, #229
    2b68:	7ac1      	ldrb	r1, [r0, #11]
    2b6a:	d055      	beq.n	2c18 <dir_read+0xd4>
    2b6c:	f011 0f08 	tst.w	r1, #8	; 0x8
    2b70:	f001 023f 	and.w	r2, r1, #63	; 0x3f
    2b74:	d002      	beq.n	2b7c <dir_read+0x38>
    2b76:	2a0f      	cmp	r2, #15
    2b78:	d14e      	bne.n	2c18 <dir_read+0xd4>
    2b7a:	e001      	b.n	2b80 <dir_read+0x3c>
    2b7c:	2a0f      	cmp	r2, #15
    2b7e:	d142      	bne.n	2c06 <dir_read+0xc2>
    2b80:	f013 0f40 	tst.w	r3, #64	; 0x40
    2b84:	d006      	beq.n	2b94 <dir_read+0x50>
    2b86:	f003 07bf 	and.w	r7, r3, #191	; 0xbf
    2b8a:	88e3      	ldrh	r3, [r4, #6]
    2b8c:	f890 800d 	ldrb.w	r8, [r0, #13]
    2b90:	8423      	strh	r3, [r4, #32]
    2b92:	e002      	b.n	2b9a <dir_read+0x56>
    2b94:	42b3      	cmp	r3, r6
    2b96:	d13f      	bne.n	2c18 <dir_read+0xd4>
    2b98:	4637      	mov	r7, r6
    2b9a:	7b43      	ldrb	r3, [r0, #13]
    2b9c:	4543      	cmp	r3, r8
    2b9e:	d13b      	bne.n	2c18 <dir_read+0xd4>
    2ba0:	7803      	ldrb	r3, [r0, #0]
    2ba2:	220d      	movs	r2, #13
    2ba4:	f003 033f 	and.w	r3, r3, #63	; 0x3f
    2ba8:	fb03 f302 	mul.w	r3, r3, r2
    2bac:	69e6      	ldr	r6, [r4, #28]
    2bae:	f1a3 0e0d 	sub.w	lr, r3, #13	; 0xd
    2bb2:	f04f 0c00 	mov.w	ip, #0	; 0x0
    2bb6:	2501      	movs	r5, #1
    2bb8:	4b22      	ldr	r3, [pc, #136]	(2c44 <dir_read+0x100>)
    2bba:	f81c 2003 	ldrb.w	r2, [ip, r3]
    2bbe:	1883      	adds	r3, r0, r2
    2bc0:	7859      	ldrb	r1, [r3, #1]
    2bc2:	5c83      	ldrb	r3, [r0, r2]
    2bc4:	ea43 2201 	orr.w	r2, r3, r1, lsl #8
    2bc8:	b145      	cbz	r5, 2bdc <dir_read+0x98>
    2bca:	f1be 0ffe 	cmp.w	lr, #254	; 0xfe
    2bce:	dc23      	bgt.n	2c18 <dir_read+0xd4>
    2bd0:	f826 201e 	strh.w	r2, [r6, lr, lsl #1]
    2bd4:	4615      	mov	r5, r2
    2bd6:	f10e 0e01 	add.w	lr, lr, #1	; 0x1
    2bda:	e003      	b.n	2be4 <dir_read+0xa0>
    2bdc:	f64f 73ff 	movw	r3, #65535	; 0xffff
    2be0:	429a      	cmp	r2, r3
    2be2:	d119      	bne.n	2c18 <dir_read+0xd4>
    2be4:	f10c 0c01 	add.w	ip, ip, #1	; 0x1
    2be8:	f1bc 0f0d 	cmp.w	ip, #13	; 0xd
    2bec:	d1e4      	bne.n	2bb8 <dir_read+0x74>
    2bee:	7803      	ldrb	r3, [r0, #0]
    2bf0:	f013 0f40 	tst.w	r3, #64	; 0x40
    2bf4:	d020      	beq.n	2c38 <dir_read+0xf4>
    2bf6:	f1be 0ffe 	cmp.w	lr, #254	; 0xfe
    2bfa:	dc0d      	bgt.n	2c18 <dir_read+0xd4>
    2bfc:	f04f 0300 	mov.w	r3, #0	; 0x0
    2c00:	f826 301e 	strh.w	r3, [r6, lr, lsl #1]
    2c04:	e018      	b.n	2c38 <dir_read+0xf4>
    2c06:	b91e      	cbnz	r6, 2c10 <dir_read+0xcc>
    2c08:	f7fe fda0 	bl	174c <sum_sfn>
    2c0c:	4580      	cmp	r8, r0
    2c0e:	d016      	beq.n	2c3e <dir_read+0xfa>
    2c10:	f04f 33ff 	mov.w	r3, #4294967295	; 0xffffffff
    2c14:	8423      	strh	r3, [r4, #32]
    2c16:	e012      	b.n	2c3e <dir_read+0xfa>
    2c18:	26ff      	movs	r6, #255
    2c1a:	4620      	mov	r0, r4
    2c1c:	2100      	movs	r1, #0
    2c1e:	f7ff fef1 	bl	2a04 <dir_next>
    2c22:	4605      	mov	r5, r0
    2c24:	b918      	cbnz	r0, 2c2e <dir_read+0xea>
    2c26:	6921      	ldr	r1, [r4, #16]
    2c28:	2900      	cmp	r1, #0
    2c2a:	d192      	bne.n	2b52 <dir_read+0xe>
    2c2c:	b13d      	cbz	r5, 2c3e <dir_read+0xfa>
    2c2e:	2300      	movs	r3, #0
    2c30:	6123      	str	r3, [r4, #16]
    2c32:	e004      	b.n	2c3e <dir_read+0xfa>
    2c34:	2504      	movs	r5, #4
    2c36:	e7fa      	b.n	2c2e <dir_read+0xea>
    2c38:	1e7b      	subs	r3, r7, #1
    2c3a:	b2de      	uxtb	r6, r3
    2c3c:	e7ed      	b.n	2c1a <dir_read+0xd6>
    2c3e:	4628      	mov	r0, r5
    2c40:	e8bd 81f0 	ldmia.w	sp!, {r4, r5, r6, r7, r8, pc}
    2c44:	000066dc 	.word	0x000066dc

00002c48 <remove_chain>:
    2c48:	2901      	cmp	r1, #1
    2c4a:	b570      	push	{r4, r5, r6, lr}
    2c4c:	4604      	mov	r4, r0
    2c4e:	460d      	mov	r5, r1
    2c50:	d924      	bls.n	2c9c <remove_chain+0x54>
    2c52:	69c3      	ldr	r3, [r0, #28]
    2c54:	4299      	cmp	r1, r3
    2c56:	d221      	bcs.n	2c9c <remove_chain+0x54>
    2c58:	e01c      	b.n	2c94 <remove_chain+0x4c>
    2c5a:	4620      	mov	r0, r4
    2c5c:	4629      	mov	r1, r5
    2c5e:	f7ff fb1f 	bl	22a0 <get_fat>
    2c62:	4606      	mov	r6, r0
    2c64:	b1e0      	cbz	r0, 2ca0 <remove_chain+0x58>
    2c66:	2801      	cmp	r0, #1
    2c68:	d018      	beq.n	2c9c <remove_chain+0x54>
    2c6a:	f1b0 3fff 	cmp.w	r0, #4294967295	; 0xffffffff
    2c6e:	d101      	bne.n	2c74 <remove_chain+0x2c>
    2c70:	2301      	movs	r3, #1
    2c72:	e016      	b.n	2ca2 <remove_chain+0x5a>
    2c74:	4620      	mov	r0, r4
    2c76:	4629      	mov	r1, r5
    2c78:	2200      	movs	r2, #0
    2c7a:	f7ff fa8b 	bl	2194 <put_fat>
    2c7e:	4603      	mov	r3, r0
    2c80:	b978      	cbnz	r0, 2ca2 <remove_chain+0x5a>
    2c82:	6923      	ldr	r3, [r4, #16]
    2c84:	f1b3 3fff 	cmp.w	r3, #4294967295	; 0xffffffff
    2c88:	d003      	beq.n	2c92 <remove_chain+0x4a>
    2c8a:	3301      	adds	r3, #1
    2c8c:	6123      	str	r3, [r4, #16]
    2c8e:	2301      	movs	r3, #1
    2c90:	7163      	strb	r3, [r4, #5]
    2c92:	4635      	mov	r5, r6
    2c94:	69e3      	ldr	r3, [r4, #28]
    2c96:	429d      	cmp	r5, r3
    2c98:	d3df      	bcc.n	2c5a <remove_chain+0x12>
    2c9a:	e001      	b.n	2ca0 <remove_chain+0x58>
    2c9c:	2302      	movs	r3, #2
    2c9e:	e000      	b.n	2ca2 <remove_chain+0x5a>
    2ca0:	2300      	movs	r3, #0
    2ca2:	4618      	mov	r0, r3
    2ca4:	bd70      	pop	{r4, r5, r6, pc}
    2ca6:	46c0      	nop			(mov r8, r8)

00002ca8 <f_truncate>:
    2ca8:	b570      	push	{r4, r5, r6, lr}
    2caa:	4604      	mov	r4, r0
    2cac:	88a1      	ldrh	r1, [r4, #4]
    2cae:	6800      	ldr	r0, [r0, #0]
    2cb0:	f7ff f852 	bl	1d58 <validate>
    2cb4:	4606      	mov	r6, r0
    2cb6:	2800      	cmp	r0, #0
    2cb8:	d140      	bne.n	2d3c <f_truncate+0x94>
    2cba:	79a2      	ldrb	r2, [r4, #6]
    2cbc:	f012 0f80 	tst.w	r2, #128	; 0x80
    2cc0:	d001      	beq.n	2cc6 <f_truncate+0x1e>
    2cc2:	2602      	movs	r6, #2
    2cc4:	e03a      	b.n	2d3c <f_truncate+0x94>
    2cc6:	f012 0f02 	tst.w	r2, #2	; 0x2
    2cca:	d033      	beq.n	2d34 <f_truncate+0x8c>
    2ccc:	68a5      	ldr	r5, [r4, #8]
    2cce:	68e3      	ldr	r3, [r4, #12]
    2cd0:	42ab      	cmp	r3, r5
    2cd2:	d933      	bls.n	2d3c <f_truncate+0x94>
    2cd4:	f042 0320 	orr.w	r3, r2, #32	; 0x20
    2cd8:	60e5      	str	r5, [r4, #12]
    2cda:	71a3      	strb	r3, [r4, #6]
    2cdc:	b935      	cbnz	r5, 2cec <f_truncate+0x44>
    2cde:	6820      	ldr	r0, [r4, #0]
    2ce0:	6921      	ldr	r1, [r4, #16]
    2ce2:	f7ff ffb1 	bl	2c48 <remove_chain>
    2ce6:	6125      	str	r5, [r4, #16]
    2ce8:	4606      	mov	r6, r0
    2cea:	e01b      	b.n	2d24 <f_truncate+0x7c>
    2cec:	6820      	ldr	r0, [r4, #0]
    2cee:	6961      	ldr	r1, [r4, #20]
    2cf0:	f7ff fad6 	bl	22a0 <get_fat>
    2cf4:	f1b0 3fff 	cmp.w	r0, #4294967295	; 0xffffffff
    2cf8:	4605      	mov	r5, r0
    2cfa:	d101      	bne.n	2d00 <f_truncate+0x58>
    2cfc:	2601      	movs	r6, #1
    2cfe:	e012      	b.n	2d26 <f_truncate+0x7e>
    2d00:	2801      	cmp	r0, #1
    2d02:	d019      	beq.n	2d38 <f_truncate+0x90>
    2d04:	6820      	ldr	r0, [r4, #0]
    2d06:	69c3      	ldr	r3, [r0, #28]
    2d08:	429d      	cmp	r5, r3
    2d0a:	d217      	bcs.n	2d3c <f_truncate+0x94>
    2d0c:	6961      	ldr	r1, [r4, #20]
    2d0e:	f06f 4270 	mvn.w	r2, #4026531840	; 0xf0000000
    2d12:	f7ff fa3f 	bl	2194 <put_fat>
    2d16:	4606      	mov	r6, r0
    2d18:	b928      	cbnz	r0, 2d26 <f_truncate+0x7e>
    2d1a:	6820      	ldr	r0, [r4, #0]
    2d1c:	4629      	mov	r1, r5
    2d1e:	f7ff ff93 	bl	2c48 <remove_chain>
    2d22:	4606      	mov	r6, r0
    2d24:	b156      	cbz	r6, 2d3c <f_truncate+0x94>
    2d26:	79a3      	ldrb	r3, [r4, #6]
    2d28:	ea6f 6343 	mvn.w	r3, r3, lsl #25
    2d2c:	ea6f 6353 	mvn.w	r3, r3, lsr #25
    2d30:	71a3      	strb	r3, [r4, #6]
    2d32:	e003      	b.n	2d3c <f_truncate+0x94>
    2d34:	2607      	movs	r6, #7
    2d36:	e001      	b.n	2d3c <f_truncate+0x94>
    2d38:	2602      	movs	r6, #2
    2d3a:	e7f4      	b.n	2d26 <f_truncate+0x7e>
    2d3c:	4630      	mov	r0, r6
    2d3e:	bd70      	pop	{r4, r5, r6, pc}

00002d40 <sync>:
    2d40:	b570      	push	{r4, r5, r6, lr}
    2d42:	2100      	movs	r1, #0
    2d44:	4605      	mov	r5, r0
    2d46:	f7ff f9ef 	bl	2128 <move_window>
    2d4a:	4606      	mov	r6, r0
    2d4c:	2800      	cmp	r0, #0
    2d4e:	d152      	bne.n	2df6 <sync+0xb6>
    2d50:	782b      	ldrb	r3, [r5, #0]
    2d52:	2b03      	cmp	r3, #3
    2d54:	d147      	bne.n	2de6 <sync+0xa6>
    2d56:	796b      	ldrb	r3, [r5, #5]
    2d58:	2b00      	cmp	r3, #0
    2d5a:	d044      	beq.n	2de6 <sync+0xa6>
    2d5c:	f105 0434 	add.w	r4, r5, #52	; 0x34
    2d60:	6328      	str	r0, [r5, #48]
    2d62:	4631      	mov	r1, r6
    2d64:	4620      	mov	r0, r4
    2d66:	f44f 7200 	mov.w	r2, #512	; 0x200
    2d6a:	f7fe fc93 	bl	1694 <mem_set>
    2d6e:	2355      	movs	r3, #85
    2d70:	f885 3232 	strb.w	r3, [r5, #562]
    2d74:	f06f 0355 	mvn.w	r3, #85	; 0x55
    2d78:	f885 3233 	strb.w	r3, [r5, #563]
    2d7c:	33a8      	adds	r3, #168
    2d7e:	f885 3034 	strb.w	r3, [r5, #52]
    2d82:	f885 3035 	strb.w	r3, [r5, #53]
    2d86:	3320      	adds	r3, #32
    2d88:	f885 3218 	strb.w	r3, [r5, #536]
    2d8c:	f885 3219 	strb.w	r3, [r5, #537]
    2d90:	692b      	ldr	r3, [r5, #16]
    2d92:	2241      	movs	r2, #65
    2d94:	f885 2037 	strb.w	r2, [r5, #55]
    2d98:	f885 221a 	strb.w	r2, [r5, #538]
    2d9c:	f3c3 2207 	ubfx	r2, r3, #8, #8
    2da0:	f885 321c 	strb.w	r3, [r5, #540]
    2da4:	f885 221d 	strb.w	r2, [r5, #541]
    2da8:	0c1a      	lsrs	r2, r3, #16
    2daa:	0e1b      	lsrs	r3, r3, #24
    2dac:	f885 321f 	strb.w	r3, [r5, #543]
    2db0:	68eb      	ldr	r3, [r5, #12]
    2db2:	f885 221e 	strb.w	r2, [r5, #542]
    2db6:	f3c3 2207 	ubfx	r2, r3, #8, #8
    2dba:	2161      	movs	r1, #97
    2dbc:	f885 3220 	strb.w	r3, [r5, #544]
    2dc0:	f885 2221 	strb.w	r2, [r5, #545]
    2dc4:	0c1a      	lsrs	r2, r3, #16
    2dc6:	0e1b      	lsrs	r3, r3, #24
    2dc8:	f885 1036 	strb.w	r1, [r5, #54]
    2dcc:	f885 121b 	strb.w	r1, [r5, #539]
    2dd0:	f885 2222 	strb.w	r2, [r5, #546]
    2dd4:	f885 3223 	strb.w	r3, [r5, #547]
    2dd8:	7868      	ldrb	r0, [r5, #1]
    2dda:	4621      	mov	r1, r4
    2ddc:	696a      	ldr	r2, [r5, #20]
    2dde:	2301      	movs	r3, #1
    2de0:	f000 ffc0 	bl	3d64 <disk_write>
    2de4:	716e      	strb	r6, [r5, #5]
    2de6:	2100      	movs	r1, #0
    2de8:	7868      	ldrb	r0, [r5, #1]
    2dea:	460a      	mov	r2, r1
    2dec:	f000 ff8e 	bl	3d0c <disk_ioctl>
    2df0:	1e06      	subs	r6, r0, #0
    2df2:	bf18      	it	ne
    2df4:	2601      	movne	r6, #1
    2df6:	4630      	mov	r0, r6
    2df8:	bd70      	pop	{r4, r5, r6, pc}
    2dfa:	46c0      	nop			(mov r8, r8)

00002dfc <f_sync>:
    2dfc:	b570      	push	{r4, r5, r6, lr}
    2dfe:	4605      	mov	r5, r0
    2e00:	88a9      	ldrh	r1, [r5, #4]
    2e02:	6800      	ldr	r0, [r0, #0]
    2e04:	f7fe ffa8 	bl	1d58 <validate>
    2e08:	4603      	mov	r3, r0
    2e0a:	2800      	cmp	r0, #0
    2e0c:	d149      	bne.n	2ea2 <f_sync+0xa6>
    2e0e:	79aa      	ldrb	r2, [r5, #6]
    2e10:	f012 0f20 	tst.w	r2, #32	; 0x20
    2e14:	d045      	beq.n	2ea2 <f_sync+0xa6>
    2e16:	f012 0f40 	tst.w	r2, #64	; 0x40
    2e1a:	d00e      	beq.n	2e3a <f_sync+0x3e>
    2e1c:	682b      	ldr	r3, [r5, #0]
    2e1e:	f105 0124 	add.w	r1, r5, #36	; 0x24
    2e22:	7858      	ldrb	r0, [r3, #1]
    2e24:	69aa      	ldr	r2, [r5, #24]
    2e26:	2301      	movs	r3, #1
    2e28:	f000 ff9c 	bl	3d64 <disk_write>
    2e2c:	b108      	cbz	r0, 2e32 <f_sync+0x36>
    2e2e:	2001      	movs	r0, #1
    2e30:	e038      	b.n	2ea4 <f_sync+0xa8>
    2e32:	79ab      	ldrb	r3, [r5, #6]
    2e34:	f023 0340 	bic.w	r3, r3, #64	; 0x40
    2e38:	71ab      	strb	r3, [r5, #6]
    2e3a:	6828      	ldr	r0, [r5, #0]
    2e3c:	69e9      	ldr	r1, [r5, #28]
    2e3e:	f7ff f973 	bl	2128 <move_window>
    2e42:	4603      	mov	r3, r0
    2e44:	2800      	cmp	r0, #0
    2e46:	d12c      	bne.n	2ea2 <f_sync+0xa6>
    2e48:	6a2c      	ldr	r4, [r5, #32]
    2e4a:	7ae3      	ldrb	r3, [r4, #11]
    2e4c:	f043 0320 	orr.w	r3, r3, #32	; 0x20
    2e50:	72e3      	strb	r3, [r4, #11]
    2e52:	68eb      	ldr	r3, [r5, #12]
    2e54:	7723      	strb	r3, [r4, #28]
    2e56:	89ab      	ldrh	r3, [r5, #12]
    2e58:	0a1b      	lsrs	r3, r3, #8
    2e5a:	7763      	strb	r3, [r4, #29]
    2e5c:	89eb      	ldrh	r3, [r5, #14]
    2e5e:	77a3      	strb	r3, [r4, #30]
    2e60:	7beb      	ldrb	r3, [r5, #15]
    2e62:	77e3      	strb	r3, [r4, #31]
    2e64:	692b      	ldr	r3, [r5, #16]
    2e66:	76a3      	strb	r3, [r4, #26]
    2e68:	8a2b      	ldrh	r3, [r5, #16]
    2e6a:	0a1b      	lsrs	r3, r3, #8
    2e6c:	76e3      	strb	r3, [r4, #27]
    2e6e:	8a6b      	ldrh	r3, [r5, #18]
    2e70:	7523      	strb	r3, [r4, #20]
    2e72:	8a6b      	ldrh	r3, [r5, #18]
    2e74:	0a1b      	lsrs	r3, r3, #8
    2e76:	7563      	strb	r3, [r4, #21]
    2e78:	f001 fc2c 	bl	46d4 <get_fattime>
    2e7c:	f3c0 2307 	ubfx	r3, r0, #8, #8
    2e80:	75a0      	strb	r0, [r4, #22]
    2e82:	75e3      	strb	r3, [r4, #23]
    2e84:	0c03      	lsrs	r3, r0, #16
    2e86:	0e00      	lsrs	r0, r0, #24
    2e88:	7623      	strb	r3, [r4, #24]
    2e8a:	7660      	strb	r0, [r4, #25]
    2e8c:	79ab      	ldrb	r3, [r5, #6]
    2e8e:	682a      	ldr	r2, [r5, #0]
    2e90:	f023 0320 	bic.w	r3, r3, #32	; 0x20
    2e94:	71ab      	strb	r3, [r5, #6]
    2e96:	2301      	movs	r3, #1
    2e98:	7113      	strb	r3, [r2, #4]
    2e9a:	6828      	ldr	r0, [r5, #0]
    2e9c:	f7ff ff50 	bl	2d40 <sync>
    2ea0:	4603      	mov	r3, r0
    2ea2:	4618      	mov	r0, r3
    2ea4:	bd70      	pop	{r4, r5, r6, pc}
    2ea6:	46c0      	nop			(mov r8, r8)

00002ea8 <f_close>:
    2ea8:	b510      	push	{r4, lr}
    2eaa:	4604      	mov	r4, r0
    2eac:	f7ff ffa6 	bl	2dfc <f_sync>
    2eb0:	b900      	cbnz	r0, 2eb4 <f_close+0xc>
    2eb2:	6020      	str	r0, [r4, #0]
    2eb4:	bd10      	pop	{r4, pc}
    2eb6:	46c0      	nop			(mov r8, r8)

00002eb8 <get_fileinfo>:
    2eb8:	e92d 41f0 	stmdb	sp!, {r4, r5, r6, r7, r8, lr}
    2ebc:	4607      	mov	r7, r0
    2ebe:	693b      	ldr	r3, [r7, #16]
    2ec0:	460e      	mov	r6, r1
    2ec2:	f101 0009 	add.w	r0, r1, #9	; 0x9
    2ec6:	2b00      	cmp	r3, #0
    2ec8:	d054      	beq.n	2f74 <get_fileinfo+0xbc>
    2eca:	6979      	ldr	r1, [r7, #20]
    2ecc:	4604      	mov	r4, r0
    2ece:	7b0d      	ldrb	r5, [r1, #12]
    2ed0:	f04f 0e00 	mov.w	lr, #0	; 0x0
    2ed4:	f81e 2001 	ldrb.w	r2, [lr, r1]
    2ed8:	2a20      	cmp	r2, #32
    2eda:	d015      	beq.n	2f08 <get_fileinfo+0x50>
    2edc:	2a05      	cmp	r2, #5
    2ede:	bf08      	it	eq
    2ee0:	22e5      	moveq	r2, #229
    2ee2:	f015 0f08 	tst.w	r5, #8	; 0x8
    2ee6:	d007      	beq.n	2ef8 <get_fileinfo+0x40>
    2ee8:	f1a2 0341 	sub.w	r3, r2, #65	; 0x41
    2eec:	b2db      	uxtb	r3, r3
    2eee:	2b19      	cmp	r3, #25
    2ef0:	bf9c      	itt	ls
    2ef2:	f102 0320 	addls.w	r3, r2, #32	; 0x20
    2ef6:	b2da      	uxtbls	r2, r3
    2ef8:	f80e 2000 	strb.w	r2, [lr, r0]
    2efc:	f10e 0e01 	add.w	lr, lr, #1	; 0x1
    2f00:	3401      	adds	r4, #1
    2f02:	f1be 0f08 	cmp.w	lr, #8	; 0x8
    2f06:	d1e5      	bne.n	2ed4 <get_fileinfo+0x1c>
    2f08:	7a0b      	ldrb	r3, [r1, #8]
    2f0a:	2b20      	cmp	r3, #32
    2f0c:	d01a      	beq.n	2f44 <get_fileinfo+0x8c>
    2f0e:	232e      	movs	r3, #46
    2f10:	f804 3b01 	strb.w	r3, [r4], #1
    2f14:	f04f 0e08 	mov.w	lr, #8	; 0x8
    2f18:	f81e 2001 	ldrb.w	r2, [lr, r1]
    2f1c:	2a20      	cmp	r2, #32
    2f1e:	d011      	beq.n	2f44 <get_fileinfo+0x8c>
    2f20:	f015 0f10 	tst.w	r5, #16	; 0x10
    2f24:	d007      	beq.n	2f36 <get_fileinfo+0x7e>
    2f26:	f1a2 0341 	sub.w	r3, r2, #65	; 0x41
    2f2a:	b2db      	uxtb	r3, r3
    2f2c:	2b19      	cmp	r3, #25
    2f2e:	bf9c      	itt	ls
    2f30:	f102 0320 	addls.w	r3, r2, #32	; 0x20
    2f34:	b2da      	uxtbls	r2, r3
    2f36:	f10e 0e01 	add.w	lr, lr, #1	; 0x1
    2f3a:	f1be 0f0b 	cmp.w	lr, #11	; 0xb
    2f3e:	f804 2b01 	strb.w	r2, [r4], #1
    2f42:	d1e9      	bne.n	2f18 <get_fileinfo+0x60>
    2f44:	7acb      	ldrb	r3, [r1, #11]
    2f46:	4620      	mov	r0, r4
    2f48:	7233      	strb	r3, [r6, #8]
    2f4a:	7f8b      	ldrb	r3, [r1, #30]
    2f4c:	7fca      	ldrb	r2, [r1, #31]
    2f4e:	041b      	lsls	r3, r3, #16
    2f50:	ea43 6302 	orr.w	r3, r3, r2, lsl #24
    2f54:	7f0a      	ldrb	r2, [r1, #28]
    2f56:	4313      	orrs	r3, r2
    2f58:	7f4a      	ldrb	r2, [r1, #29]
    2f5a:	ea43 2302 	orr.w	r3, r3, r2, lsl #8
    2f5e:	6033      	str	r3, [r6, #0]
    2f60:	7e4a      	ldrb	r2, [r1, #25]
    2f62:	7e0b      	ldrb	r3, [r1, #24]
    2f64:	ea43 2302 	orr.w	r3, r3, r2, lsl #8
    2f68:	80b3      	strh	r3, [r6, #4]
    2f6a:	7dca      	ldrb	r2, [r1, #23]
    2f6c:	7d8b      	ldrb	r3, [r1, #22]
    2f6e:	ea43 2302 	orr.w	r3, r3, r2, lsl #8
    2f72:	80f3      	strh	r3, [r6, #6]
    2f74:	2100      	movs	r1, #0
    2f76:	7001      	strb	r1, [r0, #0]
    2f78:	69b5      	ldr	r5, [r6, #24]
    2f7a:	b1dd      	cbz	r5, 2fb4 <get_fileinfo+0xfc>
    2f7c:	693b      	ldr	r3, [r7, #16]
    2f7e:	b1b3      	cbz	r3, 2fae <get_fileinfo+0xf6>
    2f80:	8c3a      	ldrh	r2, [r7, #32]
    2f82:	f64f 73ff 	movw	r3, #65535	; 0xffff
    2f86:	429a      	cmp	r2, r3
    2f88:	d011      	beq.n	2fae <get_fileinfo+0xf6>
    2f8a:	69ff      	ldr	r7, [r7, #28]
    2f8c:	460c      	mov	r4, r1
    2f8e:	e009      	b.n	2fa4 <get_fileinfo+0xec>
    2f90:	2100      	movs	r1, #0
    2f92:	f000 fe87 	bl	3ca4 <ff_convert>
    2f96:	b150      	cbz	r0, 2fae <get_fileinfo+0xf6>
    2f98:	69f3      	ldr	r3, [r6, #28]
    2f9a:	3b01      	subs	r3, #1
    2f9c:	429c      	cmp	r4, r3
    2f9e:	da06      	bge.n	2fae <get_fileinfo+0xf6>
    2fa0:	5560      	strb	r0, [r4, r5]
    2fa2:	3401      	adds	r4, #1
    2fa4:	f837 0014 	ldrh.w	r0, [r7, r4, lsl #1]
    2fa8:	2800      	cmp	r0, #0
    2faa:	d1f1      	bne.n	2f90 <get_fileinfo+0xd8>
    2fac:	e000      	b.n	2fb0 <get_fileinfo+0xf8>
    2fae:	2400      	movs	r4, #0
    2fb0:	2300      	movs	r3, #0
    2fb2:	552b      	strb	r3, [r5, r4]
    2fb4:	e8bd 81f0 	ldmia.w	sp!, {r4, r5, r6, r7, r8, pc}

00002fb8 <f_readdir>:
    2fb8:	b57f      	push	{r0, r1, r2, r3, r4, r5, r6, lr}
    2fba:	4604      	mov	r4, r0
    2fbc:	460e      	mov	r6, r1
    2fbe:	6800      	ldr	r0, [r0, #0]
    2fc0:	88a1      	ldrh	r1, [r4, #4]
    2fc2:	f7fe fec9 	bl	1d58 <validate>
    2fc6:	4605      	mov	r5, r0
    2fc8:	b9f8      	cbnz	r0, 300a <f_readdir+0x52>
    2fca:	b926      	cbnz	r6, 2fd6 <f_readdir+0x1e>
    2fcc:	4620      	mov	r0, r4
    2fce:	4629      	mov	r1, r5
    2fd0:	f7ff fb00 	bl	25d4 <dir_sdi>
    2fd4:	e015      	b.n	3002 <f_readdir+0x4a>
    2fd6:	ab01      	add	r3, sp, #4
    2fd8:	61a3      	str	r3, [r4, #24]
    2fda:	4b0d      	ldr	r3, [pc, #52]	(3010 <f_readdir+0x58>)
    2fdc:	4620      	mov	r0, r4
    2fde:	61e3      	str	r3, [r4, #28]
    2fe0:	f7ff fdb0 	bl	2b44 <dir_read>
    2fe4:	2804      	cmp	r0, #4
    2fe6:	d101      	bne.n	2fec <f_readdir+0x34>
    2fe8:	6125      	str	r5, [r4, #16]
    2fea:	e000      	b.n	2fee <f_readdir+0x36>
    2fec:	b948      	cbnz	r0, 3002 <f_readdir+0x4a>
    2fee:	4620      	mov	r0, r4
    2ff0:	4631      	mov	r1, r6
    2ff2:	f7ff ff61 	bl	2eb8 <get_fileinfo>
    2ff6:	2100      	movs	r1, #0
    2ff8:	4620      	mov	r0, r4
    2ffa:	f7ff fd03 	bl	2a04 <dir_next>
    2ffe:	2804      	cmp	r0, #4
    3000:	d001      	beq.n	3006 <f_readdir+0x4e>
    3002:	4605      	mov	r5, r0
    3004:	e001      	b.n	300a <f_readdir+0x52>
    3006:	2300      	movs	r3, #0
    3008:	6123      	str	r3, [r4, #16]
    300a:	4628      	mov	r0, r5
    300c:	b004      	add	sp, #16
    300e:	bd70      	pop	{r4, r5, r6, pc}
    3010:	10000234 	.word	0x10000234

00003014 <dir_find>:
    3014:	e92d 4ff8 	stmdb	sp!, {r3, r4, r5, r6, r7, r8, r9, sl, fp, lr}
    3018:	2100      	movs	r1, #0
    301a:	4606      	mov	r6, r0
    301c:	f7ff fada 	bl	25d4 <dir_sdi>
    3020:	2800      	cmp	r0, #0
    3022:	f040 808a 	bne.w	313a <dir_find+0x126>
    3026:	27ff      	movs	r7, #255
    3028:	46bb      	mov	fp, r7
    302a:	6830      	ldr	r0, [r6, #0]
    302c:	6931      	ldr	r1, [r6, #16]
    302e:	f7ff f87b 	bl	2128 <move_window>
    3032:	4605      	mov	r5, r0
    3034:	2800      	cmp	r0, #0
    3036:	d17a      	bne.n	312e <dir_find+0x11a>
    3038:	6974      	ldr	r4, [r6, #20]
    303a:	7822      	ldrb	r2, [r4, #0]
    303c:	b90a      	cbnz	r2, 3042 <dir_find+0x2e>
    303e:	2504      	movs	r5, #4
    3040:	e075      	b.n	312e <dir_find+0x11a>
    3042:	2ae5      	cmp	r2, #229
    3044:	7ae1      	ldrb	r1, [r4, #11]
    3046:	d069      	beq.n	311c <dir_find+0x108>
    3048:	f011 0f08 	tst.w	r1, #8	; 0x8
    304c:	f001 033f 	and.w	r3, r1, #63	; 0x3f
    3050:	d002      	beq.n	3058 <dir_find+0x44>
    3052:	2b0f      	cmp	r3, #15
    3054:	d162      	bne.n	311c <dir_find+0x108>
    3056:	e001      	b.n	305c <dir_find+0x48>
    3058:	2b0f      	cmp	r3, #15
    305a:	d148      	bne.n	30ee <dir_find+0xda>
    305c:	69f3      	ldr	r3, [r6, #28]
    305e:	2b00      	cmp	r3, #0
    3060:	d05d      	beq.n	311e <dir_find+0x10a>
    3062:	f012 0f40 	tst.w	r2, #64	; 0x40
    3066:	d006      	beq.n	3076 <dir_find+0x62>
    3068:	88f3      	ldrh	r3, [r6, #6]
    306a:	f894 b00d 	ldrb.w	fp, [r4, #13]
    306e:	f002 0abf 	and.w	sl, r2, #191	; 0xbf
    3072:	8433      	strh	r3, [r6, #32]
    3074:	e002      	b.n	307c <dir_find+0x68>
    3076:	42ba      	cmp	r2, r7
    3078:	d150      	bne.n	311c <dir_find+0x108>
    307a:	46ba      	mov	sl, r7
    307c:	7b63      	ldrb	r3, [r4, #13]
    307e:	455b      	cmp	r3, fp
    3080:	d14c      	bne.n	311c <dir_find+0x108>
    3082:	7823      	ldrb	r3, [r4, #0]
    3084:	220d      	movs	r2, #13
    3086:	f003 03bf 	and.w	r3, r3, #191	; 0xbf
    308a:	fb03 f302 	mul.w	r3, r3, r2
    308e:	f8d6 901c 	ldr.w	r9, [r6, #28]
    3092:	f1a3 050d 	sub.w	r5, r3, #13	; 0xd
    3096:	2700      	movs	r7, #0
    3098:	f04f 0801 	mov.w	r8, #1	; 0x1
    309c:	4b28      	ldr	r3, [pc, #160]	(3140 <dir_find+0x12c>)
    309e:	5cfa      	ldrb	r2, [r7, r3]
    30a0:	18a3      	adds	r3, r4, r2
    30a2:	7859      	ldrb	r1, [r3, #1]
    30a4:	5ca3      	ldrb	r3, [r4, r2]
    30a6:	ea43 2001 	orr.w	r0, r3, r1, lsl #8
    30aa:	f1b8 0f00 	cmp.w	r8, #0	; 0x0
    30ae:	d00c      	beq.n	30ca <dir_find+0xb6>
    30b0:	f000 fe18 	bl	3ce4 <ff_wtoupper>
    30b4:	2dfe      	cmp	r5, #254
    30b6:	4680      	mov	r8, r0
    30b8:	dc30      	bgt.n	311c <dir_find+0x108>
    30ba:	f839 0015 	ldrh.w	r0, [r9, r5, lsl #1]
    30be:	f000 fe11 	bl	3ce4 <ff_wtoupper>
    30c2:	4580      	cmp	r8, r0
    30c4:	d12a      	bne.n	311c <dir_find+0x108>
    30c6:	3501      	adds	r5, #1
    30c8:	e003      	b.n	30d2 <dir_find+0xbe>
    30ca:	f64f 73ff 	movw	r3, #65535	; 0xffff
    30ce:	4298      	cmp	r0, r3
    30d0:	d124      	bne.n	311c <dir_find+0x108>
    30d2:	3701      	adds	r7, #1
    30d4:	2f0d      	cmp	r7, #13
    30d6:	d1e1      	bne.n	309c <dir_find+0x88>
    30d8:	7823      	ldrb	r3, [r4, #0]
    30da:	f013 0f40 	tst.w	r3, #64	; 0x40
    30de:	d028      	beq.n	3132 <dir_find+0x11e>
    30e0:	f1b8 0f00 	cmp.w	r8, #0	; 0x0
    30e4:	d025      	beq.n	3132 <dir_find+0x11e>
    30e6:	f839 3015 	ldrh.w	r3, [r9, r5, lsl #1]
    30ea:	b313      	cbz	r3, 3132 <dir_find+0x11e>
    30ec:	e016      	b.n	311c <dir_find+0x108>
    30ee:	b927      	cbnz	r7, 30fa <dir_find+0xe6>
    30f0:	4620      	mov	r0, r4
    30f2:	f7fe fb2b 	bl	174c <sum_sfn>
    30f6:	4583      	cmp	fp, r0
    30f8:	d019      	beq.n	312e <dir_find+0x11a>
    30fa:	f04f 33ff 	mov.w	r3, #4294967295	; 0xffffffff
    30fe:	69b0      	ldr	r0, [r6, #24]
    3100:	8433      	strh	r3, [r6, #32]
    3102:	7ac3      	ldrb	r3, [r0, #11]
    3104:	f013 0f01 	tst.w	r3, #1	; 0x1
    3108:	d108      	bne.n	311c <dir_find+0x108>
    310a:	4629      	mov	r1, r5
    310c:	e001      	b.n	3112 <dir_find+0xfe>
    310e:	290b      	cmp	r1, #11
    3110:	d00d      	beq.n	312e <dir_find+0x11a>
    3112:	5d0a      	ldrb	r2, [r1, r4]
    3114:	5c0b      	ldrb	r3, [r1, r0]
    3116:	3101      	adds	r1, #1
    3118:	429a      	cmp	r2, r3
    311a:	d0f8      	beq.n	310e <dir_find+0xfa>
    311c:	27ff      	movs	r7, #255
    311e:	4630      	mov	r0, r6
    3120:	2100      	movs	r1, #0
    3122:	f7ff fc6f 	bl	2a04 <dir_next>
    3126:	4605      	mov	r5, r0
    3128:	2800      	cmp	r0, #0
    312a:	f43f af7e 	beq.w	302a <dir_find+0x16>
    312e:	4628      	mov	r0, r5
    3130:	e003      	b.n	313a <dir_find+0x126>
    3132:	f10a 33ff 	add.w	r3, sl, #4294967295	; 0xffffffff
    3136:	b2df      	uxtb	r7, r3
    3138:	e7f1      	b.n	311e <dir_find+0x10a>
    313a:	e8bd 8ff8 	ldmia.w	sp!, {r3, r4, r5, r6, r7, r8, r9, sl, fp, pc}
    313e:	46c0      	nop			(mov r8, r8)
    3140:	000066dc 	.word	0x000066dc

00003144 <follow_path>:
    3144:	e92d 4ff7 	stmdb	sp!, {r0, r1, r2, r4, r5, r6, r7, r8, r9, sl, fp, lr}
    3148:	9100      	str	r1, [sp, #0]
    314a:	780b      	ldrb	r3, [r1, #0]
    314c:	4607      	mov	r7, r0
    314e:	2b2f      	cmp	r3, #47
    3150:	d001      	beq.n	3156 <follow_path+0x12>
    3152:	2b5c      	cmp	r3, #92
    3154:	d104      	bne.n	3160 <follow_path+0x1c>
    3156:	9a00      	ldr	r2, [sp, #0]
    3158:	2300      	movs	r3, #0
    315a:	3201      	adds	r2, #1
    315c:	9200      	str	r2, [sp, #0]
    315e:	e001      	b.n	3164 <follow_path+0x20>
    3160:	6803      	ldr	r3, [r0, #0]
    3162:	699b      	ldr	r3, [r3, #24]
    3164:	9a00      	ldr	r2, [sp, #0]
    3166:	60bb      	str	r3, [r7, #8]
    3168:	7813      	ldrb	r3, [r2, #0]
    316a:	2b1f      	cmp	r3, #31
    316c:	d807      	bhi.n	317e <follow_path+0x3a>
    316e:	4638      	mov	r0, r7
    3170:	2100      	movs	r1, #0
    3172:	f7ff fa2f 	bl	25d4 <dir_sdi>
    3176:	2300      	movs	r3, #0
    3178:	4602      	mov	r2, r0
    317a:	617b      	str	r3, [r7, #20]
    317c:	e137      	b.n	33ee <follow_path+0x2aa>
    317e:	2600      	movs	r6, #0
    3180:	f8d7 801c 	ldr.w	r8, [r7, #28]
    3184:	46b1      	mov	r9, r6
    3186:	9b00      	ldr	r3, [sp, #0]
    3188:	1c75      	adds	r5, r6, #1
    318a:	5cf0      	ldrb	r0, [r6, r3]
    318c:	281f      	cmp	r0, #31
    318e:	d91d      	bls.n	31cc <follow_path+0x88>
    3190:	282f      	cmp	r0, #47
    3192:	d01b      	beq.n	31cc <follow_path+0x88>
    3194:	285c      	cmp	r0, #92
    3196:	d019      	beq.n	31cc <follow_path+0x88>
    3198:	f5b5 7f80 	cmp.w	r5, #256	; 0x100
    319c:	f000 80f7 	beq.w	338e <follow_path+0x24a>
    31a0:	2101      	movs	r1, #1
    31a2:	f000 fd7f 	bl	3ca4 <ff_convert>
    31a6:	4604      	mov	r4, r0
    31a8:	2800      	cmp	r0, #0
    31aa:	f000 80f0 	beq.w	338e <follow_path+0x24a>
    31ae:	287f      	cmp	r0, #127
    31b0:	d806      	bhi.n	31c0 <follow_path+0x7c>
    31b2:	4890      	ldr	r0, [pc, #576]	(33f4 <follow_path+0x2b0>)
    31b4:	4621      	mov	r1, r4
    31b6:	f7fe fa75 	bl	16a4 <chk_chr>
    31ba:	2800      	cmp	r0, #0
    31bc:	f040 80e7 	bne.w	338e <follow_path+0x24a>
    31c0:	f829 4008 	strh.w	r4, [r9, r8]
    31c4:	462e      	mov	r6, r5
    31c6:	f109 0902 	add.w	r9, r9, #2	; 0x2
    31ca:	e7dc      	b.n	3186 <follow_path+0x42>
    31cc:	9a00      	ldr	r2, [sp, #0]
    31ce:	1952      	adds	r2, r2, r5
    31d0:	281f      	cmp	r0, #31
    31d2:	bf94      	ite	ls
    31d4:	2504      	movls	r5, #4
    31d6:	2500      	movhi	r5, #0
    31d8:	2e01      	cmp	r6, #1
    31da:	9200      	str	r2, [sp, #0]
    31dc:	d008      	beq.n	31f0 <follow_path+0xac>
    31de:	2e02      	cmp	r6, #2
    31e0:	d002      	beq.n	31e8 <follow_path+0xa4>
    31e2:	eb08 0246 	add.w	r2, r8, r6, lsl #1
    31e6:	e024      	b.n	3232 <follow_path+0xee>
    31e8:	f8b8 3002 	ldrh.w	r3, [r8, #2]
    31ec:	2b2e      	cmp	r3, #46
    31ee:	d1f8      	bne.n	31e2 <follow_path+0x9e>
    31f0:	f8b8 3000 	ldrh.w	r3, [r8]
    31f4:	2b2e      	cmp	r3, #46
    31f6:	d1f4      	bne.n	31e2 <follow_path+0x9e>
    31f8:	f04f 0300 	mov.w	r3, #0	; 0x0
    31fc:	f828 3016 	strh.w	r3, [r8, r6, lsl #1]
    3200:	2100      	movs	r1, #0
    3202:	69ba      	ldr	r2, [r7, #24]
    3204:	42b1      	cmp	r1, r6
    3206:	bfac      	ite	ge
    3208:	2320      	movge	r3, #32
    320a:	232e      	movlt	r3, #46
    320c:	5453      	strb	r3, [r2, r1]
    320e:	3101      	adds	r1, #1
    3210:	290b      	cmp	r1, #11
    3212:	d1f6      	bne.n	3202 <follow_path+0xbe>
    3214:	69ba      	ldr	r2, [r7, #24]
    3216:	f045 0320 	orr.w	r3, r5, #32	; 0x20
    321a:	72d3      	strb	r3, [r2, #11]
    321c:	e0b5      	b.n	338a <follow_path+0x246>
    321e:	f832 3c02 	ldrh.w	r3, [r2, #-2]
    3222:	f1a8 0402 	sub.w	r4, r8, #2	; 0x2
    3226:	2b20      	cmp	r3, #32
    3228:	d001      	beq.n	322e <follow_path+0xea>
    322a:	2b2e      	cmp	r3, #46
    322c:	d104      	bne.n	3238 <follow_path+0xf4>
    322e:	3e01      	subs	r6, #1
    3230:	3a02      	subs	r2, #2
    3232:	2e00      	cmp	r6, #0
    3234:	d1f3      	bne.n	321e <follow_path+0xda>
    3236:	e0aa      	b.n	338e <follow_path+0x24a>
    3238:	f04f 0200 	mov.w	r2, #0	; 0x0
    323c:	f828 2016 	strh.w	r2, [r8, r6, lsl #1]
    3240:	69b8      	ldr	r0, [r7, #24]
    3242:	2120      	movs	r1, #32
    3244:	220b      	movs	r2, #11
    3246:	f7fe fa25 	bl	1694 <mem_set>
    324a:	f04f 0900 	mov.w	r9, #0	; 0x0
    324e:	e001      	b.n	3254 <follow_path+0x110>
    3250:	f109 0901 	add.w	r9, r9, #1	; 0x1
    3254:	f838 3019 	ldrh.w	r3, [r8, r9, lsl #1]
    3258:	2b20      	cmp	r3, #32
    325a:	d0f9      	beq.n	3250 <follow_path+0x10c>
    325c:	2b2e      	cmp	r3, #46
    325e:	d0f7      	beq.n	3250 <follow_path+0x10c>
    3260:	f1b9 0f00 	cmp.w	r9, #0	; 0x0
    3264:	d001      	beq.n	326a <follow_path+0x126>
    3266:	f045 0503 	orr.w	r5, r5, #3	; 0x3
    326a:	eb04 0246 	add.w	r2, r4, r6, lsl #1
    326e:	e009      	b.n	3284 <follow_path+0x140>
    3270:	3a02      	subs	r2, #2
    3272:	f116 36ff 	adds.w	r6, r6, #4294967295	; 0xffffffff
    3276:	d105      	bne.n	3284 <follow_path+0x140>
    3278:	f04f 0a00 	mov.w	sl, #0	; 0x0
    327c:	2308      	movs	r3, #8
    327e:	46d3      	mov	fp, sl
    3280:	9301      	str	r3, [sp, #4]
    3282:	e003      	b.n	328c <follow_path+0x148>
    3284:	8813      	ldrh	r3, [r2, #0]
    3286:	2b2e      	cmp	r3, #46
    3288:	d1f2      	bne.n	3270 <follow_path+0x12c>
    328a:	e7f5      	b.n	3278 <follow_path+0x134>
    328c:	f838 4019 	ldrh.w	r4, [r8, r9, lsl #1]
    3290:	2c00      	cmp	r4, #0
    3292:	d054      	beq.n	333e <follow_path+0x1fa>
    3294:	2c20      	cmp	r4, #32
    3296:	f109 0901 	add.w	r9, r9, #1	; 0x1
    329a:	d003      	beq.n	32a4 <follow_path+0x160>
    329c:	2c2e      	cmp	r4, #46
    329e:	d104      	bne.n	32aa <follow_path+0x166>
    32a0:	45b1      	cmp	r9, r6
    32a2:	d002      	beq.n	32aa <follow_path+0x166>
    32a4:	f045 0503 	orr.w	r5, r5, #3	; 0x3
    32a8:	e7f0      	b.n	328c <follow_path+0x148>
    32aa:	9a01      	ldr	r2, [sp, #4]
    32ac:	4593      	cmp	fp, r2
    32ae:	da01      	bge.n	32b4 <follow_path+0x170>
    32b0:	45b1      	cmp	r9, r6
    32b2:	d114      	bne.n	32de <follow_path+0x19a>
    32b4:	9b01      	ldr	r3, [sp, #4]
    32b6:	2b0b      	cmp	r3, #11
    32b8:	d102      	bne.n	32c0 <follow_path+0x17c>
    32ba:	f045 0503 	orr.w	r5, r5, #3	; 0x3
    32be:	e03e      	b.n	333e <follow_path+0x1fa>
    32c0:	45b1      	cmp	r9, r6
    32c2:	d002      	beq.n	32ca <follow_path+0x186>
    32c4:	f045 0503 	orr.w	r5, r5, #3	; 0x3
    32c8:	dc39      	bgt.n	333e <follow_path+0x1fa>
    32ca:	ea4f 038a 	mov.w	r3, sl, lsl #2
    32ce:	220b      	movs	r2, #11
    32d0:	fa5f fa83 	uxtb.w	sl, r3
    32d4:	46b1      	mov	r9, r6
    32d6:	f04f 0b08 	mov.w	fp, #8	; 0x8
    32da:	9201      	str	r2, [sp, #4]
    32dc:	e7d6      	b.n	328c <follow_path+0x148>
    32de:	2c7f      	cmp	r4, #127
    32e0:	d90c      	bls.n	32fc <follow_path+0x1b8>
    32e2:	4620      	mov	r0, r4
    32e4:	2100      	movs	r1, #0
    32e6:	f000 fcdd 	bl	3ca4 <ff_convert>
    32ea:	4604      	mov	r4, r0
    32ec:	b118      	cbz	r0, 32f6 <follow_path+0x1b2>
    32ee:	4b42      	ldr	r3, [pc, #264]	(33f8 <follow_path+0x2b4>)
    32f0:	18c3      	adds	r3, r0, r3
    32f2:	f813 4c80 	ldrb.w	r4, [r3, #-128]
    32f6:	f045 0502 	orr.w	r5, r5, #2	; 0x2
    32fa:	b124      	cbz	r4, 3306 <follow_path+0x1c2>
    32fc:	483f      	ldr	r0, [pc, #252]	(33fc <follow_path+0x2b8>)
    32fe:	4621      	mov	r1, r4
    3300:	f7fe f9d0 	bl	16a4 <chk_chr>
    3304:	b118      	cbz	r0, 330e <follow_path+0x1ca>
    3306:	f045 0503 	orr.w	r5, r5, #3	; 0x3
    330a:	245f      	movs	r4, #95
    330c:	e011      	b.n	3332 <follow_path+0x1ee>
    330e:	f1a4 0341 	sub.w	r3, r4, #65	; 0x41
    3312:	b29b      	uxth	r3, r3
    3314:	2b19      	cmp	r3, #25
    3316:	d802      	bhi.n	331e <follow_path+0x1da>
    3318:	f04a 0a02 	orr.w	sl, sl, #2	; 0x2
    331c:	e009      	b.n	3332 <follow_path+0x1ee>
    331e:	f1a4 0361 	sub.w	r3, r4, #97	; 0x61
    3322:	b29b      	uxth	r3, r3
    3324:	2b19      	cmp	r3, #25
    3326:	d804      	bhi.n	3332 <follow_path+0x1ee>
    3328:	f1a4 0320 	sub.w	r3, r4, #32	; 0x20
    332c:	f04a 0a01 	orr.w	sl, sl, #1	; 0x1
    3330:	b29c      	uxth	r4, r3
    3332:	69bb      	ldr	r3, [r7, #24]
    3334:	f803 400b 	strb.w	r4, [r3, fp]
    3338:	f10b 0b01 	add.w	fp, fp, #1	; 0x1
    333c:	e7a6      	b.n	328c <follow_path+0x148>
    333e:	69ba      	ldr	r2, [r7, #24]
    3340:	7813      	ldrb	r3, [r2, #0]
    3342:	2be5      	cmp	r3, #229
    3344:	d101      	bne.n	334a <follow_path+0x206>
    3346:	2305      	movs	r3, #5
    3348:	7013      	strb	r3, [r2, #0]
    334a:	9b01      	ldr	r3, [sp, #4]
    334c:	2b08      	cmp	r3, #8
    334e:	bf04      	itt	eq
    3350:	ea4f 038a 	moveq.w	r3, sl, lsl #2
    3354:	fa5f fa83 	uxtbeq.w	sl, r3
    3358:	f00a 020c 	and.w	r2, sl, #12	; 0xc
    335c:	2a0c      	cmp	r2, #12
    335e:	d003      	beq.n	3368 <follow_path+0x224>
    3360:	f00a 0303 	and.w	r3, sl, #3	; 0x3
    3364:	2b03      	cmp	r3, #3
    3366:	d101      	bne.n	336c <follow_path+0x228>
    3368:	f045 0502 	orr.w	r5, r5, #2	; 0x2
    336c:	f015 0f02 	tst.w	r5, #2	; 0x2
    3370:	d109      	bne.n	3386 <follow_path+0x242>
    3372:	f00a 0303 	and.w	r3, sl, #3	; 0x3
    3376:	2b01      	cmp	r3, #1
    3378:	bf08      	it	eq
    337a:	f045 0510 	orreq.w	r5, r5, #16	; 0x10
    337e:	2a04      	cmp	r2, #4
    3380:	bf08      	it	eq
    3382:	f045 0508 	orreq.w	r5, r5, #8	; 0x8
    3386:	69bb      	ldr	r3, [r7, #24]
    3388:	72dd      	strb	r5, [r3, #11]
    338a:	2300      	movs	r3, #0
    338c:	e000      	b.n	3390 <follow_path+0x24c>
    338e:	2306      	movs	r3, #6
    3390:	b2dc      	uxtb	r4, r3
    3392:	bb4c      	cbnz	r4, 33e8 <follow_path+0x2a4>
    3394:	4638      	mov	r0, r7
    3396:	f7ff fe3d 	bl	3014 <dir_find>
    339a:	69bb      	ldr	r3, [r7, #24]
    339c:	4602      	mov	r2, r0
    339e:	7adb      	ldrb	r3, [r3, #11]
    33a0:	b170      	cbz	r0, 33c0 <follow_path+0x27c>
    33a2:	2804      	cmp	r0, #4
    33a4:	d123      	bne.n	33ee <follow_path+0x2aa>
    33a6:	f013 0f20 	tst.w	r3, #32	; 0x20
    33aa:	f003 0304 	and.w	r3, r3, #4	; 0x4
    33ae:	d005      	beq.n	33bc <follow_path+0x278>
    33b0:	60bc      	str	r4, [r7, #8]
    33b2:	617c      	str	r4, [r7, #20]
    33b4:	2b00      	cmp	r3, #0
    33b6:	f43f aee2 	beq.w	317e <follow_path+0x3a>
    33ba:	e015      	b.n	33e8 <follow_path+0x2a4>
    33bc:	b1b3      	cbz	r3, 33ec <follow_path+0x2a8>
    33be:	e016      	b.n	33ee <follow_path+0x2aa>
    33c0:	f013 0f04 	tst.w	r3, #4	; 0x4
    33c4:	d113      	bne.n	33ee <follow_path+0x2aa>
    33c6:	6978      	ldr	r0, [r7, #20]
    33c8:	7ac3      	ldrb	r3, [r0, #11]
    33ca:	f013 0f10 	tst.w	r3, #16	; 0x10
    33ce:	d00d      	beq.n	33ec <follow_path+0x2a8>
    33d0:	7d43      	ldrb	r3, [r0, #21]
    33d2:	7d02      	ldrb	r2, [r0, #20]
    33d4:	7ec1      	ldrb	r1, [r0, #27]
    33d6:	ea42 2203 	orr.w	r2, r2, r3, lsl #8
    33da:	7e83      	ldrb	r3, [r0, #26]
    33dc:	ea43 2301 	orr.w	r3, r3, r1, lsl #8
    33e0:	ea43 4302 	orr.w	r3, r3, r2, lsl #16
    33e4:	60bb      	str	r3, [r7, #8]
    33e6:	e6ca      	b.n	317e <follow_path+0x3a>
    33e8:	4622      	mov	r2, r4
    33ea:	e000      	b.n	33ee <follow_path+0x2aa>
    33ec:	2205      	movs	r2, #5
    33ee:	4610      	mov	r0, r2
    33f0:	e8bd 8ffe 	ldmia.w	sp!, {r1, r2, r3, r4, r5, r6, r7, r8, r9, sl, fp, pc}
    33f4:	000066cc 	.word	0x000066cc
    33f8:	00006624 	.word	0x00006624
    33fc:	000066d5 	.word	0x000066d5

00003400 <f_utime>:
    3400:	b530      	push	{r4, r5, lr}
    3402:	b08f      	sub	sp, #60
    3404:	ad02      	add	r5, sp, #8
    3406:	9001      	str	r0, [sp, #4]
    3408:	460c      	mov	r4, r1
    340a:	a801      	add	r0, sp, #4
    340c:	4629      	mov	r1, r5
    340e:	2201      	movs	r2, #1
    3410:	f7fe fcf8 	bl	1e04 <chk_mounted>
    3414:	4603      	mov	r3, r0
    3416:	bb18      	cbnz	r0, 3460 <f_utime+0x60>
    3418:	ab0b      	add	r3, sp, #44
    341a:	9308      	str	r3, [sp, #32]
    341c:	4b12      	ldr	r3, [pc, #72]	(3468 <f_utime+0x68>)
    341e:	4628      	mov	r0, r5
    3420:	9901      	ldr	r1, [sp, #4]
    3422:	9309      	str	r3, [sp, #36]
    3424:	f7ff fe8e 	bl	3144 <follow_path>
    3428:	4603      	mov	r3, r0
    342a:	b9c8      	cbnz	r0, 3460 <f_utime+0x60>
    342c:	9b08      	ldr	r3, [sp, #32]
    342e:	7adb      	ldrb	r3, [r3, #11]
    3430:	f013 0f20 	tst.w	r3, #32	; 0x20
    3434:	d113      	bne.n	345e <f_utime+0x5e>
    3436:	9a07      	ldr	r2, [sp, #28]
    3438:	b18a      	cbz	r2, 345e <f_utime+0x5e>
    343a:	88e3      	ldrh	r3, [r4, #6]
    343c:	7593      	strb	r3, [r2, #22]
    343e:	88e3      	ldrh	r3, [r4, #6]
    3440:	0a1b      	lsrs	r3, r3, #8
    3442:	75d3      	strb	r3, [r2, #23]
    3444:	88a3      	ldrh	r3, [r4, #4]
    3446:	7613      	strb	r3, [r2, #24]
    3448:	88a3      	ldrh	r3, [r4, #4]
    344a:	0a1b      	lsrs	r3, r3, #8
    344c:	7653      	strb	r3, [r2, #25]
    344e:	9b02      	ldr	r3, [sp, #8]
    3450:	2201      	movs	r2, #1
    3452:	711a      	strb	r2, [r3, #4]
    3454:	9802      	ldr	r0, [sp, #8]
    3456:	f7ff fc73 	bl	2d40 <sync>
    345a:	4603      	mov	r3, r0
    345c:	e000      	b.n	3460 <f_utime+0x60>
    345e:	2306      	movs	r3, #6
    3460:	4618      	mov	r0, r3
    3462:	b00f      	add	sp, #60
    3464:	bd30      	pop	{r4, r5, pc}
    3466:	46c0      	nop			(mov r8, r8)
    3468:	10000234 	.word	0x10000234

0000346c <f_chmod>:
    346c:	b570      	push	{r4, r5, r6, lr}
    346e:	b08e      	sub	sp, #56
    3470:	ac02      	add	r4, sp, #8
    3472:	9001      	str	r0, [sp, #4]
    3474:	460e      	mov	r6, r1
    3476:	4615      	mov	r5, r2
    3478:	a801      	add	r0, sp, #4
    347a:	4621      	mov	r1, r4
    347c:	2201      	movs	r2, #1
    347e:	f7fe fcc1 	bl	1e04 <chk_mounted>
    3482:	4603      	mov	r3, r0
    3484:	bb08      	cbnz	r0, 34ca <f_chmod+0x5e>
    3486:	ab0b      	add	r3, sp, #44
    3488:	9308      	str	r3, [sp, #32]
    348a:	4b11      	ldr	r3, [pc, #68]	(34d0 <f_chmod+0x64>)
    348c:	4620      	mov	r0, r4
    348e:	9901      	ldr	r1, [sp, #4]
    3490:	9309      	str	r3, [sp, #36]
    3492:	f7ff fe57 	bl	3144 <follow_path>
    3496:	4603      	mov	r3, r0
    3498:	b9b8      	cbnz	r0, 34ca <f_chmod+0x5e>
    349a:	9b08      	ldr	r3, [sp, #32]
    349c:	7adb      	ldrb	r3, [r3, #11]
    349e:	f013 0f20 	tst.w	r3, #32	; 0x20
    34a2:	d111      	bne.n	34c8 <f_chmod+0x5c>
    34a4:	9807      	ldr	r0, [sp, #28]
    34a6:	b178      	cbz	r0, 34c8 <f_chmod+0x5c>
    34a8:	7ac3      	ldrb	r3, [r0, #11]
    34aa:	f005 0227 	and.w	r2, r5, #39	; 0x27
    34ae:	ea23 0302 	bic.w	r3, r3, r2
    34b2:	4032      	ands	r2, r6
    34b4:	4313      	orrs	r3, r2
    34b6:	72c3      	strb	r3, [r0, #11]
    34b8:	9b02      	ldr	r3, [sp, #8]
    34ba:	2201      	movs	r2, #1
    34bc:	711a      	strb	r2, [r3, #4]
    34be:	9802      	ldr	r0, [sp, #8]
    34c0:	f7ff fc3e 	bl	2d40 <sync>
    34c4:	4603      	mov	r3, r0
    34c6:	e000      	b.n	34ca <f_chmod+0x5e>
    34c8:	2306      	movs	r3, #6
    34ca:	4618      	mov	r0, r3
    34cc:	b00e      	add	sp, #56
    34ce:	bd70      	pop	{r4, r5, r6, pc}
    34d0:	10000234 	.word	0x10000234

000034d4 <f_unlink>:
    34d4:	b530      	push	{r4, r5, lr}
    34d6:	b099      	sub	sp, #100
    34d8:	ac0c      	add	r4, sp, #48
    34da:	9001      	str	r0, [sp, #4]
    34dc:	2201      	movs	r2, #1
    34de:	a801      	add	r0, sp, #4
    34e0:	4621      	mov	r1, r4
    34e2:	f7fe fc8f 	bl	1e04 <chk_mounted>
    34e6:	4602      	mov	r2, r0
    34e8:	2800      	cmp	r0, #0
    34ea:	d15d      	bne.n	35a8 <f_unlink+0xd4>
    34ec:	ab15      	add	r3, sp, #84
    34ee:	9312      	str	r3, [sp, #72]
    34f0:	4b2f      	ldr	r3, [pc, #188]	(35b0 <f_unlink+0xdc>)
    34f2:	4620      	mov	r0, r4
    34f4:	9901      	ldr	r1, [sp, #4]
    34f6:	9313      	str	r3, [sp, #76]
    34f8:	f7ff fe24 	bl	3144 <follow_path>
    34fc:	4602      	mov	r2, r0
    34fe:	2800      	cmp	r0, #0
    3500:	d152      	bne.n	35a8 <f_unlink+0xd4>
    3502:	9b12      	ldr	r3, [sp, #72]
    3504:	7adb      	ldrb	r3, [r3, #11]
    3506:	f013 0f20 	tst.w	r3, #32	; 0x20
    350a:	d001      	beq.n	3510 <f_unlink+0x3c>
    350c:	2206      	movs	r2, #6
    350e:	e04b      	b.n	35a8 <f_unlink+0xd4>
    3510:	9811      	ldr	r0, [sp, #68]
    3512:	b908      	cbnz	r0, 3518 <f_unlink+0x44>
    3514:	2206      	movs	r2, #6
    3516:	e005      	b.n	3524 <f_unlink+0x50>
    3518:	7ac3      	ldrb	r3, [r0, #11]
    351a:	f013 0f01 	tst.w	r3, #1	; 0x1
    351e:	bf0c      	ite	eq
    3520:	2200      	moveq	r2, #0
    3522:	2207      	movne	r2, #7
    3524:	7d44      	ldrb	r4, [r0, #21]
    3526:	7d03      	ldrb	r3, [r0, #20]
    3528:	f890 e01b 	ldrb.w	lr, [r0, #27]
    352c:	7e81      	ldrb	r1, [r0, #26]
    352e:	2a00      	cmp	r2, #0
    3530:	d13a      	bne.n	35a8 <f_unlink+0xd4>
    3532:	ea43 2304 	orr.w	r3, r3, r4, lsl #8
    3536:	ea41 220e 	orr.w	r2, r1, lr, lsl #8
    353a:	ea42 4403 	orr.w	r4, r2, r3, lsl #16
    353e:	7ac3      	ldrb	r3, [r0, #11]
    3540:	f013 0f10 	tst.w	r3, #16	; 0x10
    3544:	d02a      	beq.n	359c <f_unlink+0xc8>
    3546:	2c01      	cmp	r4, #1
    3548:	d926      	bls.n	3598 <f_unlink+0xc4>
    354a:	ad03      	add	r5, sp, #12
    354c:	2224      	movs	r2, #36
    354e:	4628      	mov	r0, r5
    3550:	a90c      	add	r1, sp, #48
    3552:	f7fe f891 	bl	1678 <mem_cpy>
    3556:	4628      	mov	r0, r5
    3558:	2102      	movs	r1, #2
    355a:	9405      	str	r4, [sp, #20]
    355c:	f7ff f83a 	bl	25d4 <dir_sdi>
    3560:	4602      	mov	r2, r0
    3562:	bb08      	cbnz	r0, 35a8 <f_unlink+0xd4>
    3564:	4628      	mov	r0, r5
    3566:	f7ff faed 	bl	2b44 <dir_read>
    356a:	4602      	mov	r2, r0
    356c:	b130      	cbz	r0, 357c <f_unlink+0xa8>
    356e:	9b03      	ldr	r3, [sp, #12]
    3570:	699b      	ldr	r3, [r3, #24]
    3572:	429c      	cmp	r4, r3
    3574:	d002      	beq.n	357c <f_unlink+0xa8>
    3576:	2804      	cmp	r0, #4
    3578:	d010      	beq.n	359c <f_unlink+0xc8>
    357a:	e015      	b.n	35a8 <f_unlink+0xd4>
    357c:	2207      	movs	r2, #7
    357e:	e013      	b.n	35a8 <f_unlink+0xd4>
    3580:	b12c      	cbz	r4, 358e <f_unlink+0xba>
    3582:	980c      	ldr	r0, [sp, #48]
    3584:	4621      	mov	r1, r4
    3586:	f7ff fb5f 	bl	2c48 <remove_chain>
    358a:	4602      	mov	r2, r0
    358c:	b960      	cbnz	r0, 35a8 <f_unlink+0xd4>
    358e:	980c      	ldr	r0, [sp, #48]
    3590:	f7ff fbd6 	bl	2d40 <sync>
    3594:	4602      	mov	r2, r0
    3596:	e007      	b.n	35a8 <f_unlink+0xd4>
    3598:	2202      	movs	r2, #2
    359a:	e005      	b.n	35a8 <f_unlink+0xd4>
    359c:	a80c      	add	r0, sp, #48
    359e:	f7ff faa7 	bl	2af0 <dir_remove>
    35a2:	4602      	mov	r2, r0
    35a4:	2800      	cmp	r0, #0
    35a6:	d0eb      	beq.n	3580 <f_unlink+0xac>
    35a8:	4610      	mov	r0, r2
    35aa:	b019      	add	sp, #100
    35ac:	bd30      	pop	{r4, r5, pc}
    35ae:	46c0      	nop			(mov r8, r8)
    35b0:	10000234 	.word	0x10000234

000035b4 <f_opendir>:
    35b4:	b510      	push	{r4, lr}
    35b6:	4604      	mov	r4, r0
    35b8:	b086      	sub	sp, #24
    35ba:	9101      	str	r1, [sp, #4]
    35bc:	a801      	add	r0, sp, #4
    35be:	4621      	mov	r1, r4
    35c0:	2200      	movs	r2, #0
    35c2:	f7fe fc1f 	bl	1e04 <chk_mounted>
    35c6:	4603      	mov	r3, r0
    35c8:	bb38      	cbnz	r0, 361a <f_opendir+0x66>
    35ca:	ab03      	add	r3, sp, #12
    35cc:	61a3      	str	r3, [r4, #24]
    35ce:	4b14      	ldr	r3, [pc, #80]	(3620 <f_opendir+0x6c>)
    35d0:	4620      	mov	r0, r4
    35d2:	61e3      	str	r3, [r4, #28]
    35d4:	9901      	ldr	r1, [sp, #4]
    35d6:	f7ff fdb5 	bl	3144 <follow_path>
    35da:	4603      	mov	r3, r0
    35dc:	b9d0      	cbnz	r0, 3614 <f_opendir+0x60>
    35de:	6960      	ldr	r0, [r4, #20]
    35e0:	b180      	cbz	r0, 3604 <f_opendir+0x50>
    35e2:	7ac3      	ldrb	r3, [r0, #11]
    35e4:	f013 0f10 	tst.w	r3, #16	; 0x10
    35e8:	d101      	bne.n	35ee <f_opendir+0x3a>
    35ea:	2305      	movs	r3, #5
    35ec:	e015      	b.n	361a <f_opendir+0x66>
    35ee:	7d43      	ldrb	r3, [r0, #21]
    35f0:	7d02      	ldrb	r2, [r0, #20]
    35f2:	7ec1      	ldrb	r1, [r0, #27]
    35f4:	ea42 2203 	orr.w	r2, r2, r3, lsl #8
    35f8:	7e83      	ldrb	r3, [r0, #26]
    35fa:	ea43 2301 	orr.w	r3, r3, r1, lsl #8
    35fe:	ea43 4302 	orr.w	r3, r3, r2, lsl #16
    3602:	60a3      	str	r3, [r4, #8]
    3604:	6823      	ldr	r3, [r4, #0]
    3606:	4620      	mov	r0, r4
    3608:	88db      	ldrh	r3, [r3, #6]
    360a:	2100      	movs	r1, #0
    360c:	80a3      	strh	r3, [r4, #4]
    360e:	f7fe ffe1 	bl	25d4 <dir_sdi>
    3612:	4603      	mov	r3, r0
    3614:	2b04      	cmp	r3, #4
    3616:	bf08      	it	eq
    3618:	2305      	moveq	r3, #5
    361a:	4618      	mov	r0, r3
    361c:	b006      	add	sp, #24
    361e:	bd10      	pop	{r4, pc}
    3620:	10000234 	.word	0x10000234

00003624 <f_chdir>:
    3624:	b510      	push	{r4, lr}
    3626:	b08e      	sub	sp, #56
    3628:	ac02      	add	r4, sp, #8
    362a:	9001      	str	r0, [sp, #4]
    362c:	4621      	mov	r1, r4
    362e:	a801      	add	r0, sp, #4
    3630:	2200      	movs	r2, #0
    3632:	f7fe fbe7 	bl	1e04 <chk_mounted>
    3636:	4686      	mov	lr, r0
    3638:	bb38      	cbnz	r0, 368a <f_chdir+0x66>
    363a:	ab0b      	add	r3, sp, #44
    363c:	9308      	str	r3, [sp, #32]
    363e:	4b14      	ldr	r3, [pc, #80]	(3690 <f_chdir+0x6c>)
    3640:	4620      	mov	r0, r4
    3642:	9901      	ldr	r1, [sp, #4]
    3644:	9309      	str	r3, [sp, #36]
    3646:	f7ff fd7d 	bl	3144 <follow_path>
    364a:	4686      	mov	lr, r0
    364c:	b9b0      	cbnz	r0, 367c <f_chdir+0x58>
    364e:	9807      	ldr	r0, [sp, #28]
    3650:	b918      	cbnz	r0, 365a <f_chdir+0x36>
    3652:	9a04      	ldr	r2, [sp, #16]
    3654:	9b02      	ldr	r3, [sp, #8]
    3656:	619a      	str	r2, [r3, #24]
    3658:	e017      	b.n	368a <f_chdir+0x66>
    365a:	7ac3      	ldrb	r3, [r0, #11]
    365c:	f013 0f10 	tst.w	r3, #16	; 0x10
    3660:	d011      	beq.n	3686 <f_chdir+0x62>
    3662:	7d43      	ldrb	r3, [r0, #21]
    3664:	7d02      	ldrb	r2, [r0, #20]
    3666:	7ec1      	ldrb	r1, [r0, #27]
    3668:	ea42 2203 	orr.w	r2, r2, r3, lsl #8
    366c:	7e83      	ldrb	r3, [r0, #26]
    366e:	ea43 2301 	orr.w	r3, r3, r1, lsl #8
    3672:	ea43 4302 	orr.w	r3, r3, r2, lsl #16
    3676:	9a02      	ldr	r2, [sp, #8]
    3678:	6193      	str	r3, [r2, #24]
    367a:	e006      	b.n	368a <f_chdir+0x66>
    367c:	2804      	cmp	r0, #4
    367e:	d104      	bne.n	368a <f_chdir+0x66>
    3680:	f100 0e01 	add.w	lr, r0, #1	; 0x1
    3684:	e001      	b.n	368a <f_chdir+0x66>
    3686:	f04f 0e05 	mov.w	lr, #5	; 0x5
    368a:	4670      	mov	r0, lr
    368c:	b00e      	add	sp, #56
    368e:	bd10      	pop	{r4, pc}
    3690:	10000234 	.word	0x10000234

00003694 <dir_register>:
    3694:	e92d 43f0 	stmdb	sp!, {r4, r5, r6, r7, r8, r9, lr}
    3698:	6985      	ldr	r5, [r0, #24]
    369a:	b085      	sub	sp, #20
    369c:	69c7      	ldr	r7, [r0, #28]
    369e:	220c      	movs	r2, #12
    36a0:	4606      	mov	r6, r0
    36a2:	4629      	mov	r1, r5
    36a4:	a801      	add	r0, sp, #4
    36a6:	f7fd ffe7 	bl	1678 <mem_cpy>
    36aa:	f89d 300f 	ldrb.w	r3, [sp, #15]
    36ae:	f013 0220 	ands.w	r2, r3, #32	; 0x20
    36b2:	d001      	beq.n	36b8 <dir_register+0x24>
    36b4:	2006      	movs	r0, #6
    36b6:	e0c8      	b.n	384a <dir_register+0x1b6>
    36b8:	f013 0f01 	tst.w	r3, #1	; 0x1
    36bc:	d01c      	beq.n	36f8 <dir_register+0x64>
    36be:	72ea      	strb	r2, [r5, #11]
    36c0:	f105 080b 	add.w	r8, r5, #11	; 0xb
    36c4:	61f2      	str	r2, [r6, #28]
    36c6:	2401      	movs	r4, #1
    36c8:	4628      	mov	r0, r5
    36ca:	a901      	add	r1, sp, #4
    36cc:	463a      	mov	r2, r7
    36ce:	4623      	mov	r3, r4
    36d0:	f7fd fffc 	bl	16cc <gen_numname>
    36d4:	4630      	mov	r0, r6
    36d6:	f7ff fc9d 	bl	3014 <dir_find>
    36da:	b928      	cbnz	r0, 36e8 <dir_register+0x54>
    36dc:	1c63      	adds	r3, r4, #1
    36de:	b29c      	uxth	r4, r3
    36e0:	2c64      	cmp	r4, #100
    36e2:	d1f1      	bne.n	36c8 <dir_register+0x34>
    36e4:	3007      	adds	r0, #7
    36e6:	e0b0      	b.n	384a <dir_register+0x1b6>
    36e8:	2804      	cmp	r0, #4
    36ea:	f040 80ae 	bne.w	384a <dir_register+0x1b6>
    36ee:	f89d 300f 	ldrb.w	r3, [sp, #15]
    36f2:	f888 3000 	strb.w	r3, [r8]
    36f6:	61f7      	str	r7, [r6, #28]
    36f8:	f89d 300f 	ldrb.w	r3, [sp, #15]
    36fc:	f013 0f02 	tst.w	r3, #2	; 0x2
    3700:	d102      	bne.n	3708 <dir_register+0x74>
    3702:	f04f 0801 	mov.w	r8, #1	; 0x1
    3706:	e00d      	b.n	3724 <dir_register+0x90>
    3708:	2200      	movs	r2, #0
    370a:	b291      	uxth	r1, r2
    370c:	f837 3011 	ldrh.w	r3, [r7, r1, lsl #1]
    3710:	3201      	adds	r2, #1
    3712:	2b00      	cmp	r3, #0
    3714:	d1f9      	bne.n	370a <dir_register+0x76>
    3716:	f101 0319 	add.w	r3, r1, #25	; 0x19
    371a:	220d      	movs	r2, #13
    371c:	fb93 f3f2 	sdiv	r3, r3, r2
    3720:	fa1f f883 	uxth.w	r8, r3
    3724:	4630      	mov	r0, r6
    3726:	2100      	movs	r1, #0
    3728:	f7fe ff54 	bl	25d4 <dir_sdi>
    372c:	2800      	cmp	r0, #0
    372e:	f040 808c 	bne.w	384a <dir_register+0x1b6>
    3732:	4604      	mov	r4, r0
    3734:	4607      	mov	r7, r0
    3736:	6830      	ldr	r0, [r6, #0]
    3738:	6931      	ldr	r1, [r6, #16]
    373a:	f7fe fcf5 	bl	2128 <move_window>
    373e:	4605      	mov	r5, r0
    3740:	2800      	cmp	r0, #0
    3742:	d17c      	bne.n	383e <dir_register+0x1aa>
    3744:	6973      	ldr	r3, [r6, #20]
    3746:	781b      	ldrb	r3, [r3, #0]
    3748:	2be5      	cmp	r3, #229
    374a:	d002      	beq.n	3752 <dir_register+0xbe>
    374c:	b10b      	cbz	r3, 3752 <dir_register+0xbe>
    374e:	4607      	mov	r7, r0
    3750:	e005      	b.n	375e <dir_register+0xca>
    3752:	b907      	cbnz	r7, 3756 <dir_register+0xc2>
    3754:	88f4      	ldrh	r4, [r6, #6]
    3756:	1c7b      	adds	r3, r7, #1
    3758:	b29f      	uxth	r7, r3
    375a:	4547      	cmp	r7, r8
    375c:	d071      	beq.n	3842 <dir_register+0x1ae>
    375e:	4630      	mov	r0, r6
    3760:	2101      	movs	r1, #1
    3762:	f7ff f94f 	bl	2a04 <dir_next>
    3766:	4605      	mov	r5, r0
    3768:	2800      	cmp	r0, #0
    376a:	d0e4      	beq.n	3736 <dir_register+0xa2>
    376c:	e067      	b.n	383e <dir_register+0x1aa>
    376e:	4630      	mov	r0, r6
    3770:	4621      	mov	r1, r4
    3772:	f7fe ff2f 	bl	25d4 <dir_sdi>
    3776:	4605      	mov	r5, r0
    3778:	2800      	cmp	r0, #0
    377a:	d160      	bne.n	383e <dir_register+0x1aa>
    377c:	69b0      	ldr	r0, [r6, #24]
    377e:	f7fd ffe5 	bl	174c <sum_sfn>
    3782:	f108 33ff 	add.w	r3, r8, #4294967295	; 0xffffffff
    3786:	4681      	mov	r9, r0
    3788:	b29f      	uxth	r7, r3
    378a:	6830      	ldr	r0, [r6, #0]
    378c:	6931      	ldr	r1, [r6, #16]
    378e:	f7fe fccb 	bl	2128 <move_window>
    3792:	4605      	mov	r5, r0
    3794:	2800      	cmp	r0, #0
    3796:	d152      	bne.n	383e <dir_register+0x1aa>
    3798:	6974      	ldr	r4, [r6, #20]
    379a:	230f      	movs	r3, #15
    379c:	f8d6 801c 	ldr.w	r8, [r6, #28]
    37a0:	b2f9      	uxtb	r1, r7
    37a2:	72e3      	strb	r3, [r4, #11]
    37a4:	230d      	movs	r3, #13
    37a6:	fb01 f303 	mul.w	r3, r1, r3
    37aa:	f884 900d 	strb.w	r9, [r4, #13]
    37ae:	7320      	strb	r0, [r4, #12]
    37b0:	76a0      	strb	r0, [r4, #26]
    37b2:	76e0      	strb	r0, [r4, #27]
    37b4:	f1a3 0e0d 	sub.w	lr, r3, #13	; 0xd
    37b8:	f64f 7cff 	movw	ip, #65535	; 0xffff
    37bc:	4b24      	ldr	r3, [pc, #144]	(3850 <dir_register+0x1bc>)
    37be:	4565      	cmp	r5, ip
    37c0:	bf18      	it	ne
    37c2:	f838 501e 	ldrhne.w	r5, [r8, lr, lsl #1]
    37c6:	5cc3      	ldrb	r3, [r0, r3]
    37c8:	bf18      	it	ne
    37ca:	f10e 0e01 	addne.w	lr, lr, #1	; 0x1
    37ce:	3001      	adds	r0, #1
    37d0:	18e2      	adds	r2, r4, r3
    37d2:	54e5      	strb	r5, [r4, r3]
    37d4:	0a2b      	lsrs	r3, r5, #8
    37d6:	2d00      	cmp	r5, #0
    37d8:	bf08      	it	eq
    37da:	4665      	moveq	r5, ip
    37dc:	280d      	cmp	r0, #13
    37de:	7053      	strb	r3, [r2, #1]
    37e0:	d1ea      	bne.n	37b8 <dir_register+0x124>
    37e2:	4565      	cmp	r5, ip
    37e4:	d002      	beq.n	37ec <dir_register+0x158>
    37e6:	f838 301e 	ldrh.w	r3, [r8, lr, lsl #1]
    37ea:	b90b      	cbnz	r3, 37f0 <dir_register+0x15c>
    37ec:	f041 0140 	orr.w	r1, r1, #64	; 0x40
    37f0:	7021      	strb	r1, [r4, #0]
    37f2:	6832      	ldr	r2, [r6, #0]
    37f4:	2301      	movs	r3, #1
    37f6:	7113      	strb	r3, [r2, #4]
    37f8:	4630      	mov	r0, r6
    37fa:	2100      	movs	r1, #0
    37fc:	f7ff f902 	bl	2a04 <dir_next>
    3800:	4605      	mov	r5, r0
    3802:	b9e0      	cbnz	r0, 383e <dir_register+0x1aa>
    3804:	1e7b      	subs	r3, r7, #1
    3806:	b29f      	uxth	r7, r3
    3808:	2f00      	cmp	r7, #0
    380a:	d1be      	bne.n	378a <dir_register+0xf6>
    380c:	6830      	ldr	r0, [r6, #0]
    380e:	6931      	ldr	r1, [r6, #16]
    3810:	f7fe fc8a 	bl	2128 <move_window>
    3814:	4605      	mov	r5, r0
    3816:	b990      	cbnz	r0, 383e <dir_register+0x1aa>
    3818:	6974      	ldr	r4, [r6, #20]
    381a:	4629      	mov	r1, r5
    381c:	4620      	mov	r0, r4
    381e:	2220      	movs	r2, #32
    3820:	f7fd ff38 	bl	1694 <mem_set>
    3824:	220b      	movs	r2, #11
    3826:	4620      	mov	r0, r4
    3828:	69b1      	ldr	r1, [r6, #24]
    382a:	f7fd ff25 	bl	1678 <mem_cpy>
    382e:	69b3      	ldr	r3, [r6, #24]
    3830:	7adb      	ldrb	r3, [r3, #11]
    3832:	f003 0318 	and.w	r3, r3, #24	; 0x18
    3836:	7323      	strb	r3, [r4, #12]
    3838:	6832      	ldr	r2, [r6, #0]
    383a:	2301      	movs	r3, #1
    383c:	7113      	strb	r3, [r2, #4]
    383e:	4628      	mov	r0, r5
    3840:	e003      	b.n	384a <dir_register+0x1b6>
    3842:	f1b8 0f01 	cmp.w	r8, #1	; 0x1
    3846:	d192      	bne.n	376e <dir_register+0xda>
    3848:	e7e0      	b.n	380c <dir_register+0x178>
    384a:	b005      	add	sp, #20
    384c:	e8bd 83f0 	ldmia.w	sp!, {r4, r5, r6, r7, r8, r9, pc}
    3850:	000066dc 	.word	0x000066dc

00003854 <f_rename>:
    3854:	b5f0      	push	{r4, r5, r6, r7, lr}
    3856:	b09f      	sub	sp, #124
    3858:	ad0c      	add	r5, sp, #48
    385a:	9001      	str	r0, [sp, #4]
    385c:	460f      	mov	r7, r1
    385e:	a801      	add	r0, sp, #4
    3860:	4629      	mov	r1, r5
    3862:	2201      	movs	r2, #1
    3864:	f7fe face 	bl	1e04 <chk_mounted>
    3868:	4601      	mov	r1, r0
    386a:	2800      	cmp	r0, #0
    386c:	f040 8085 	bne.w	397a <f_rename+0x126>
    3870:	9b0c      	ldr	r3, [sp, #48]
    3872:	9901      	ldr	r1, [sp, #4]
    3874:	9303      	str	r3, [sp, #12]
    3876:	ab1b      	add	r3, sp, #108
    3878:	9312      	str	r3, [sp, #72]
    387a:	4b41      	ldr	r3, [pc, #260]	(3980 <f_rename+0x12c>)
    387c:	4628      	mov	r0, r5
    387e:	9313      	str	r3, [sp, #76]
    3880:	f7ff fc60 	bl	3144 <follow_path>
    3884:	4601      	mov	r1, r0
    3886:	2800      	cmp	r0, #0
    3888:	d177      	bne.n	397a <f_rename+0x126>
    388a:	9b12      	ldr	r3, [sp, #72]
    388c:	7adb      	ldrb	r3, [r3, #11]
    388e:	f013 0f20 	tst.w	r3, #32	; 0x20
    3892:	d001      	beq.n	3898 <f_rename+0x44>
    3894:	2106      	movs	r1, #6
    3896:	e070      	b.n	397a <f_rename+0x126>
    3898:	9911      	ldr	r1, [sp, #68]
    389a:	b909      	cbnz	r1, 38a0 <f_rename+0x4c>
    389c:	3104      	adds	r1, #4
    389e:	e06c      	b.n	397a <f_rename+0x126>
    38a0:	f10d 0657 	add.w	r6, sp, #87	; 0x57
    38a4:	4630      	mov	r0, r6
    38a6:	310b      	adds	r1, #11
    38a8:	2215      	movs	r2, #21
    38aa:	ac03      	add	r4, sp, #12
    38ac:	f7fd fee4 	bl	1678 <mem_cpy>
    38b0:	4620      	mov	r0, r4
    38b2:	4629      	mov	r1, r5
    38b4:	2224      	movs	r2, #36
    38b6:	f7fd fedf 	bl	1678 <mem_cpy>
    38ba:	4639      	mov	r1, r7
    38bc:	4620      	mov	r0, r4
    38be:	f7ff fc41 	bl	3144 <follow_path>
    38c2:	4601      	mov	r1, r0
    38c4:	b908      	cbnz	r0, 38ca <f_rename+0x76>
    38c6:	2108      	movs	r1, #8
    38c8:	e057      	b.n	397a <f_rename+0x126>
    38ca:	2804      	cmp	r0, #4
    38cc:	d155      	bne.n	397a <f_rename+0x126>
    38ce:	4620      	mov	r0, r4
    38d0:	f7ff fee0 	bl	3694 <dir_register>
    38d4:	4601      	mov	r1, r0
    38d6:	2800      	cmp	r0, #0
    38d8:	d14f      	bne.n	397a <f_rename+0x126>
    38da:	9c08      	ldr	r4, [sp, #32]
    38dc:	2213      	movs	r2, #19
    38de:	1cb1      	adds	r1, r6, #2
    38e0:	f104 000d 	add.w	r0, r4, #13	; 0xd
    38e4:	f7fd fec8 	bl	1678 <mem_cpy>
    38e8:	f89d 3057 	ldrb.w	r3, [sp, #87]
    38ec:	2201      	movs	r2, #1
    38ee:	f043 0320 	orr.w	r3, r3, #32	; 0x20
    38f2:	72e3      	strb	r3, [r4, #11]
    38f4:	9b0c      	ldr	r3, [sp, #48]
    38f6:	711a      	strb	r2, [r3, #4]
    38f8:	9a0e      	ldr	r2, [sp, #56]
    38fa:	9b05      	ldr	r3, [sp, #20]
    38fc:	429a      	cmp	r2, r3
    38fe:	d033      	beq.n	3968 <f_rename+0x114>
    3900:	7ae3      	ldrb	r3, [r4, #11]
    3902:	f013 0f10 	tst.w	r3, #16	; 0x10
    3906:	d02f      	beq.n	3968 <f_rename+0x114>
    3908:	7ee2      	ldrb	r2, [r4, #27]
    390a:	7ea3      	ldrb	r3, [r4, #26]
    390c:	7d21      	ldrb	r1, [r4, #20]
    390e:	ea43 2302 	orr.w	r3, r3, r2, lsl #8
    3912:	7d62      	ldrb	r2, [r4, #21]
    3914:	9d03      	ldr	r5, [sp, #12]
    3916:	ea41 2102 	orr.w	r1, r1, r2, lsl #8
    391a:	ea43 0101 	orr.w	r1, r3, r1
    391e:	4628      	mov	r0, r5
    3920:	f7fd fec8 	bl	16b4 <clust2sect>
    3924:	4601      	mov	r1, r0
    3926:	b908      	cbnz	r0, 392c <f_rename+0xd8>
    3928:	2102      	movs	r1, #2
    392a:	e026      	b.n	397a <f_rename+0x126>
    392c:	4628      	mov	r0, r5
    392e:	f7fe fbfb 	bl	2128 <move_window>
    3932:	9a03      	ldr	r2, [sp, #12]
    3934:	4601      	mov	r1, r0
    3936:	bb00      	cbnz	r0, 397a <f_rename+0x126>
    3938:	f102 0454 	add.w	r4, r2, #84	; 0x54
    393c:	7863      	ldrb	r3, [r4, #1]
    393e:	2b2e      	cmp	r3, #46
    3940:	d112      	bne.n	3968 <f_rename+0x114>
    3942:	7813      	ldrb	r3, [r2, #0]
    3944:	2b03      	cmp	r3, #3
    3946:	d103      	bne.n	3950 <f_rename+0xfc>
    3948:	6a92      	ldr	r2, [r2, #40]
    394a:	9b05      	ldr	r3, [sp, #20]
    394c:	4293      	cmp	r3, r2
    394e:	d000      	beq.n	3952 <f_rename+0xfe>
    3950:	9805      	ldr	r0, [sp, #20]
    3952:	f3c0 2307 	ubfx	r3, r0, #8, #8
    3956:	76e3      	strb	r3, [r4, #27]
    3958:	0c03      	lsrs	r3, r0, #16
    395a:	7523      	strb	r3, [r4, #20]
    395c:	0a1b      	lsrs	r3, r3, #8
    395e:	76a0      	strb	r0, [r4, #26]
    3960:	7563      	strb	r3, [r4, #21]
    3962:	9b03      	ldr	r3, [sp, #12]
    3964:	2201      	movs	r2, #1
    3966:	711a      	strb	r2, [r3, #4]
    3968:	a80c      	add	r0, sp, #48
    396a:	f7ff f8c1 	bl	2af0 <dir_remove>
    396e:	4601      	mov	r1, r0
    3970:	b918      	cbnz	r0, 397a <f_rename+0x126>
    3972:	980c      	ldr	r0, [sp, #48]
    3974:	f7ff f9e4 	bl	2d40 <sync>
    3978:	4601      	mov	r1, r0
    397a:	4608      	mov	r0, r1
    397c:	b01f      	add	sp, #124
    397e:	bdf0      	pop	{r4, r5, r6, r7, pc}
    3980:	10000234 	.word	0x10000234

00003984 <f_mkdir>:
    3984:	e92d 4ff0 	stmdb	sp!, {r4, r5, r6, r7, r8, r9, sl, fp, lr}
    3988:	b093      	sub	sp, #76
    398a:	9005      	str	r0, [sp, #20]
    398c:	f000 fea2 	bl	46d4 <get_fattime>
    3990:	ad06      	add	r5, sp, #24
    3992:	4607      	mov	r7, r0
    3994:	4629      	mov	r1, r5
    3996:	a805      	add	r0, sp, #20
    3998:	2201      	movs	r2, #1
    399a:	f7fe fa33 	bl	1e04 <chk_mounted>
    399e:	4604      	mov	r4, r0
    39a0:	2800      	cmp	r0, #0
    39a2:	f040 80c8 	bne.w	3b36 <f_mkdir+0x1b2>
    39a6:	ab0f      	add	r3, sp, #60
    39a8:	930c      	str	r3, [sp, #48]
    39aa:	4b65      	ldr	r3, [pc, #404]	(3b40 <f_mkdir+0x1bc>)
    39ac:	4628      	mov	r0, r5
    39ae:	9905      	ldr	r1, [sp, #20]
    39b0:	930d      	str	r3, [sp, #52]
    39b2:	f7ff fbc7 	bl	3144 <follow_path>
    39b6:	4604      	mov	r4, r0
    39b8:	b148      	cbz	r0, 39ce <f_mkdir+0x4a>
    39ba:	2804      	cmp	r0, #4
    39bc:	f040 80bb 	bne.w	3b36 <f_mkdir+0x1b2>
    39c0:	9b0c      	ldr	r3, [sp, #48]
    39c2:	7adb      	ldrb	r3, [r3, #11]
    39c4:	f013 0420 	ands.w	r4, r3, #32	; 0x20
    39c8:	d003      	beq.n	39d2 <f_mkdir+0x4e>
    39ca:	2406      	movs	r4, #6
    39cc:	e0b3      	b.n	3b36 <f_mkdir+0x1b2>
    39ce:	2408      	movs	r4, #8
    39d0:	e0b1      	b.n	3b36 <f_mkdir+0x1b2>
    39d2:	9806      	ldr	r0, [sp, #24]
    39d4:	4621      	mov	r1, r4
    39d6:	f7fe fe41 	bl	265c <create_chain>
    39da:	4606      	mov	r6, r0
    39dc:	b908      	cbnz	r0, 39e2 <f_mkdir+0x5e>
    39de:	2407      	movs	r4, #7
    39e0:	e081      	b.n	3ae6 <f_mkdir+0x162>
    39e2:	2801      	cmp	r0, #1
    39e4:	d101      	bne.n	39ea <f_mkdir+0x66>
    39e6:	2402      	movs	r4, #2
    39e8:	e07d      	b.n	3ae6 <f_mkdir+0x162>
    39ea:	f1b0 3fff 	cmp.w	r0, #4294967295	; 0xffffffff
    39ee:	f000 8099 	beq.w	3b24 <f_mkdir+0x1a0>
    39f2:	4621      	mov	r1, r4
    39f4:	9806      	ldr	r0, [sp, #24]
    39f6:	f7fe fb97 	bl	2128 <move_window>
    39fa:	4604      	mov	r4, r0
    39fc:	2800      	cmp	r0, #0
    39fe:	d172      	bne.n	3ae6 <f_mkdir+0x162>
    3a00:	9d06      	ldr	r5, [sp, #24]
    3a02:	4631      	mov	r1, r6
    3a04:	4628      	mov	r0, r5
    3a06:	f7fd fe55 	bl	16b4 <clust2sect>
    3a0a:	f105 0834 	add.w	r8, r5, #52	; 0x34
    3a0e:	4621      	mov	r1, r4
    3a10:	f44f 7200 	mov.w	r2, #512	; 0x200
    3a14:	4681      	mov	r9, r0
    3a16:	4640      	mov	r0, r8
    3a18:	f7fd fe3c 	bl	1694 <mem_set>
    3a1c:	2120      	movs	r1, #32
    3a1e:	220b      	movs	r2, #11
    3a20:	4640      	mov	r0, r8
    3a22:	f7fd fe37 	bl	1694 <mem_set>
    3a26:	2310      	movs	r3, #16
    3a28:	f885 303f 	strb.w	r3, [r5, #63]
    3a2c:	b2fa      	uxtb	r2, r7
    3a2e:	f3c7 2307 	ubfx	r3, r7, #8, #8
    3a32:	242e      	movs	r4, #46
    3a34:	f885 4034 	strb.w	r4, [r5, #52]
    3a38:	9200      	str	r2, [sp, #0]
    3a3a:	f885 204a 	strb.w	r2, [r5, #74]
    3a3e:	9301      	str	r3, [sp, #4]
    3a40:	f3c7 4207 	ubfx	r2, r7, #16, #8
    3a44:	f885 304b 	strb.w	r3, [r5, #75]
    3a48:	0e3f      	lsrs	r7, r7, #24
    3a4a:	b2f3      	uxtb	r3, r6
    3a4c:	9202      	str	r2, [sp, #8]
    3a4e:	f885 204c 	strb.w	r2, [r5, #76]
    3a52:	9703      	str	r7, [sp, #12]
    3a54:	f885 704d 	strb.w	r7, [r5, #77]
    3a58:	9304      	str	r3, [sp, #16]
    3a5a:	f885 304e 	strb.w	r3, [r5, #78]
    3a5e:	0c33      	lsrs	r3, r6, #16
    3a60:	0a1f      	lsrs	r7, r3, #8
    3a62:	fa5f fa83 	uxtb.w	sl, r3
    3a66:	f3c6 2b07 	ubfx	fp, r6, #8, #8
    3a6a:	2220      	movs	r2, #32
    3a6c:	4641      	mov	r1, r8
    3a6e:	f885 b04f 	strb.w	fp, [r5, #79]
    3a72:	f885 a048 	strb.w	sl, [r5, #72]
    3a76:	f885 7049 	strb.w	r7, [r5, #73]
    3a7a:	f105 0054 	add.w	r0, r5, #84	; 0x54
    3a7e:	f7fd fdfb 	bl	1678 <mem_cpy>
    3a82:	f885 4055 	strb.w	r4, [r5, #85]
    3a86:	9906      	ldr	r1, [sp, #24]
    3a88:	9a08      	ldr	r2, [sp, #32]
    3a8a:	780b      	ldrb	r3, [r1, #0]
    3a8c:	2b03      	cmp	r3, #3
    3a8e:	d103      	bne.n	3a98 <f_mkdir+0x114>
    3a90:	6a8b      	ldr	r3, [r1, #40]
    3a92:	429a      	cmp	r2, r3
    3a94:	bf08      	it	eq
    3a96:	2200      	moveq	r2, #0
    3a98:	f3c2 2307 	ubfx	r3, r2, #8, #8
    3a9c:	f885 306f 	strb.w	r3, [r5, #111]
    3aa0:	0c13      	lsrs	r3, r2, #16
    3aa2:	f885 3068 	strb.w	r3, [r5, #104]
    3aa6:	0a1b      	lsrs	r3, r3, #8
    3aa8:	f885 206e 	strb.w	r2, [r5, #110]
    3aac:	f885 3069 	strb.w	r3, [r5, #105]
    3ab0:	9b06      	ldr	r3, [sp, #24]
    3ab2:	789d      	ldrb	r5, [r3, #2]
    3ab4:	e014      	b.n	3ae0 <f_mkdir+0x15c>
    3ab6:	9a06      	ldr	r2, [sp, #24]
    3ab8:	2301      	movs	r3, #1
    3aba:	7113      	strb	r3, [r2, #4]
    3abc:	f8c2 9030 	str.w	r9, [r2, #48]
    3ac0:	9806      	ldr	r0, [sp, #24]
    3ac2:	2100      	movs	r1, #0
    3ac4:	f7fe fb30 	bl	2128 <move_window>
    3ac8:	4604      	mov	r4, r0
    3aca:	b960      	cbnz	r0, 3ae6 <f_mkdir+0x162>
    3acc:	4640      	mov	r0, r8
    3ace:	4621      	mov	r1, r4
    3ad0:	f44f 7200 	mov.w	r2, #512	; 0x200
    3ad4:	f7fd fdde 	bl	1694 <mem_set>
    3ad8:	1e6b      	subs	r3, r5, #1
    3ada:	f109 0901 	add.w	r9, r9, #1	; 0x1
    3ade:	b2dd      	uxtb	r5, r3
    3ae0:	2d00      	cmp	r5, #0
    3ae2:	d1e8      	bne.n	3ab6 <f_mkdir+0x132>
    3ae4:	e020      	b.n	3b28 <f_mkdir+0x1a4>
    3ae6:	9806      	ldr	r0, [sp, #24]
    3ae8:	4631      	mov	r1, r6
    3aea:	f7ff f8ad 	bl	2c48 <remove_chain>
    3aee:	e022      	b.n	3b36 <f_mkdir+0x1b2>
    3af0:	9b0b      	ldr	r3, [sp, #44]
    3af2:	2210      	movs	r2, #16
    3af4:	72da      	strb	r2, [r3, #11]
    3af6:	9a00      	ldr	r2, [sp, #0]
    3af8:	759a      	strb	r2, [r3, #22]
    3afa:	9a01      	ldr	r2, [sp, #4]
    3afc:	75da      	strb	r2, [r3, #23]
    3afe:	9a02      	ldr	r2, [sp, #8]
    3b00:	761a      	strb	r2, [r3, #24]
    3b02:	9a03      	ldr	r2, [sp, #12]
    3b04:	765a      	strb	r2, [r3, #25]
    3b06:	9a04      	ldr	r2, [sp, #16]
    3b08:	f883 b01b 	strb.w	fp, [r3, #27]
    3b0c:	769a      	strb	r2, [r3, #26]
    3b0e:	f883 a014 	strb.w	sl, [r3, #20]
    3b12:	755f      	strb	r7, [r3, #21]
    3b14:	9b06      	ldr	r3, [sp, #24]
    3b16:	2201      	movs	r2, #1
    3b18:	711a      	strb	r2, [r3, #4]
    3b1a:	9806      	ldr	r0, [sp, #24]
    3b1c:	f7ff f910 	bl	2d40 <sync>
    3b20:	4604      	mov	r4, r0
    3b22:	e008      	b.n	3b36 <f_mkdir+0x1b2>
    3b24:	2401      	movs	r4, #1
    3b26:	e7de      	b.n	3ae6 <f_mkdir+0x162>
    3b28:	a806      	add	r0, sp, #24
    3b2a:	f7ff fdb3 	bl	3694 <dir_register>
    3b2e:	4604      	mov	r4, r0
    3b30:	2800      	cmp	r0, #0
    3b32:	d1d8      	bne.n	3ae6 <f_mkdir+0x162>
    3b34:	e7dc      	b.n	3af0 <f_mkdir+0x16c>
    3b36:	4620      	mov	r0, r4
    3b38:	b013      	add	sp, #76
    3b3a:	e8bd 8ff0 	ldmia.w	sp!, {r4, r5, r6, r7, r8, r9, sl, fp, pc}
    3b3e:	46c0      	nop			(mov r8, r8)
    3b40:	10000234 	.word	0x10000234

00003b44 <f_open>:
    3b44:	e92d 41f0 	stmdb	sp!, {r4, r5, r6, r7, r8, lr}
    3b48:	b08e      	sub	sp, #56
    3b4a:	2300      	movs	r3, #0
    3b4c:	f10d 0808 	add.w	r8, sp, #8	; 0x8
    3b50:	6003      	str	r3, [r0, #0]
    3b52:	9101      	str	r1, [sp, #4]
    3b54:	4606      	mov	r6, r0
    3b56:	4615      	mov	r5, r2
    3b58:	f002 071f 	and.w	r7, r2, #31	; 0x1f
    3b5c:	a801      	add	r0, sp, #4
    3b5e:	4641      	mov	r1, r8
    3b60:	f002 021e 	and.w	r2, r2, #30	; 0x1e
    3b64:	f7fe f94e 	bl	1e04 <chk_mounted>
    3b68:	ab0b      	add	r3, sp, #44
    3b6a:	9308      	str	r3, [sp, #32]
    3b6c:	4b4c      	ldr	r3, [pc, #304]	(3ca0 <f_open+0x15c>)
    3b6e:	9309      	str	r3, [sp, #36]
    3b70:	4603      	mov	r3, r0
    3b72:	b920      	cbnz	r0, 3b7e <f_open+0x3a>
    3b74:	4640      	mov	r0, r8
    3b76:	9901      	ldr	r1, [sp, #4]
    3b78:	f7ff fae4 	bl	3144 <follow_path>
    3b7c:	4603      	mov	r3, r0
    3b7e:	9c07      	ldr	r4, [sp, #28]
    3b80:	b91b      	cbnz	r3, 3b8a <f_open+0x46>
    3b82:	2c00      	cmp	r4, #0
    3b84:	bf0c      	ite	eq
    3b86:	2306      	moveq	r3, #6
    3b88:	2300      	movne	r3, #0
    3b8a:	f015 0f1c 	tst.w	r5, #28	; 0x1c
    3b8e:	d04c      	beq.n	3c2a <f_open+0xe6>
    3b90:	b15b      	cbz	r3, 3baa <f_open+0x66>
    3b92:	2b04      	cmp	r3, #4
    3b94:	d103      	bne.n	3b9e <f_open+0x5a>
    3b96:	4640      	mov	r0, r8
    3b98:	f7ff fd7c 	bl	3694 <dir_register>
    3b9c:	4603      	mov	r3, r0
    3b9e:	9c07      	ldr	r4, [sp, #28]
    3ba0:	2b00      	cmp	r3, #0
    3ba2:	d178      	bne.n	3c96 <f_open+0x152>
    3ba4:	f047 0708 	orr.w	r7, r7, #8	; 0x8
    3ba8:	e008      	b.n	3bbc <f_open+0x78>
    3baa:	f015 0f04 	tst.w	r5, #4	; 0x4
    3bae:	d001      	beq.n	3bb4 <f_open+0x70>
    3bb0:	2308      	movs	r3, #8
    3bb2:	e070      	b.n	3c96 <f_open+0x152>
    3bb4:	7ae3      	ldrb	r3, [r4, #11]
    3bb6:	f013 0f11 	tst.w	r3, #17	; 0x11
    3bba:	d16b      	bne.n	3c94 <f_open+0x150>
    3bbc:	f017 0f08 	tst.w	r7, #8	; 0x8
    3bc0:	d041      	beq.n	3c46 <f_open+0x102>
    3bc2:	f000 fd87 	bl	46d4 <get_fattime>
    3bc6:	f3c0 2307 	ubfx	r3, r0, #8, #8
    3bca:	73a0      	strb	r0, [r4, #14]
    3bcc:	73e3      	strb	r3, [r4, #15]
    3bce:	0c03      	lsrs	r3, r0, #16
    3bd0:	0e00      	lsrs	r0, r0, #24
    3bd2:	7d62      	ldrb	r2, [r4, #21]
    3bd4:	7460      	strb	r0, [r4, #17]
    3bd6:	7d20      	ldrb	r0, [r4, #20]
    3bd8:	7ee1      	ldrb	r1, [r4, #27]
    3bda:	7423      	strb	r3, [r4, #16]
    3bdc:	ea40 2002 	orr.w	r0, r0, r2, lsl #8
    3be0:	2300      	movs	r3, #0
    3be2:	7ea2      	ldrb	r2, [r4, #26]
    3be4:	72e3      	strb	r3, [r4, #11]
    3be6:	7723      	strb	r3, [r4, #28]
    3be8:	7763      	strb	r3, [r4, #29]
    3bea:	77a3      	strb	r3, [r4, #30]
    3bec:	77e3      	strb	r3, [r4, #31]
    3bee:	7523      	strb	r3, [r4, #20]
    3bf0:	7563      	strb	r3, [r4, #21]
    3bf2:	76a3      	strb	r3, [r4, #26]
    3bf4:	76e3      	strb	r3, [r4, #27]
    3bf6:	ea42 2201 	orr.w	r2, r2, r1, lsl #8
    3bfa:	9b02      	ldr	r3, [sp, #8]
    3bfc:	2101      	movs	r1, #1
    3bfe:	ea52 4500 	orrs.w	r5, r2, r0, lsl #16
    3c02:	7119      	strb	r1, [r3, #4]
    3c04:	d01f      	beq.n	3c46 <f_open+0x102>
    3c06:	9802      	ldr	r0, [sp, #8]
    3c08:	4629      	mov	r1, r5
    3c0a:	f8d0 8030 	ldr.w	r8, [r0, #48]
    3c0e:	f7ff f81b 	bl	2c48 <remove_chain>
    3c12:	4603      	mov	r3, r0
    3c14:	2800      	cmp	r0, #0
    3c16:	d13e      	bne.n	3c96 <f_open+0x152>
    3c18:	9802      	ldr	r0, [sp, #8]
    3c1a:	1e6b      	subs	r3, r5, #1
    3c1c:	60c3      	str	r3, [r0, #12]
    3c1e:	4641      	mov	r1, r8
    3c20:	f7fe fa82 	bl	2128 <move_window>
    3c24:	4603      	mov	r3, r0
    3c26:	b170      	cbz	r0, 3c46 <f_open+0x102>
    3c28:	e035      	b.n	3c96 <f_open+0x152>
    3c2a:	2b00      	cmp	r3, #0
    3c2c:	d133      	bne.n	3c96 <f_open+0x152>
    3c2e:	7ae3      	ldrb	r3, [r4, #11]
    3c30:	f013 0f10 	tst.w	r3, #16	; 0x10
    3c34:	d001      	beq.n	3c3a <f_open+0xf6>
    3c36:	2304      	movs	r3, #4
    3c38:	e02d      	b.n	3c96 <f_open+0x152>
    3c3a:	f015 0f02 	tst.w	r5, #2	; 0x2
    3c3e:	d002      	beq.n	3c46 <f_open+0x102>
    3c40:	f013 0f01 	tst.w	r3, #1	; 0x1
    3c44:	d126      	bne.n	3c94 <f_open+0x150>
    3c46:	9802      	ldr	r0, [sp, #8]
    3c48:	f017 0f1e 	tst.w	r7, #30	; 0x1e
    3c4c:	6b03      	ldr	r3, [r0, #48]
    3c4e:	bf18      	it	ne
    3c50:	f047 0720 	orrne.w	r7, r7, #32	; 0x20
    3c54:	71b7      	strb	r7, [r6, #6]
    3c56:	61f3      	str	r3, [r6, #28]
    3c58:	6234      	str	r4, [r6, #32]
    3c5a:	7d63      	ldrb	r3, [r4, #21]
    3c5c:	7d22      	ldrb	r2, [r4, #20]
    3c5e:	7ee1      	ldrb	r1, [r4, #27]
    3c60:	ea42 2203 	orr.w	r2, r2, r3, lsl #8
    3c64:	7ea3      	ldrb	r3, [r4, #26]
    3c66:	ea43 2301 	orr.w	r3, r3, r1, lsl #8
    3c6a:	ea43 4302 	orr.w	r3, r3, r2, lsl #16
    3c6e:	6133      	str	r3, [r6, #16]
    3c70:	7fa3      	ldrb	r3, [r4, #30]
    3c72:	7fe2      	ldrb	r2, [r4, #31]
    3c74:	041b      	lsls	r3, r3, #16
    3c76:	ea43 6302 	orr.w	r3, r3, r2, lsl #24
    3c7a:	7f22      	ldrb	r2, [r4, #28]
    3c7c:	4313      	orrs	r3, r2
    3c7e:	7f62      	ldrb	r2, [r4, #29]
    3c80:	6030      	str	r0, [r6, #0]
    3c82:	ea43 2302 	orr.w	r3, r3, r2, lsl #8
    3c86:	88c0      	ldrh	r0, [r0, #6]
    3c88:	60f3      	str	r3, [r6, #12]
    3c8a:	2300      	movs	r3, #0
    3c8c:	60b3      	str	r3, [r6, #8]
    3c8e:	61b3      	str	r3, [r6, #24]
    3c90:	80b0      	strh	r0, [r6, #4]
    3c92:	e000      	b.n	3c96 <f_open+0x152>
    3c94:	2307      	movs	r3, #7
    3c96:	4618      	mov	r0, r3
    3c98:	b00e      	add	sp, #56
    3c9a:	e8bd 81f0 	ldmia.w	sp!, {r4, r5, r6, r7, r8, pc}
    3c9e:	46c0      	nop			(mov r8, r8)
    3ca0:	10000234 	.word	0x10000234

00003ca4 <ff_convert>:
    3ca4:	287f      	cmp	r0, #127
    3ca6:	d919      	bls.n	3cdc <ff_convert+0x38>
    3ca8:	b151      	cbz	r1, 3cc0 <ff_convert+0x1c>
    3caa:	28ff      	cmp	r0, #255
    3cac:	d901      	bls.n	3cb2 <ff_convert+0xe>
    3cae:	2000      	movs	r0, #0
    3cb0:	e014      	b.n	3cdc <ff_convert+0x38>
    3cb2:	4b0b      	ldr	r3, [pc, #44]	(3ce0 <ff_convert+0x3c>)
    3cb4:	eb03 0340 	add.w	r3, r3, r0, lsl #1
    3cb8:	f5a3 7380 	sub.w	r3, r3, #256	; 0x100
    3cbc:	8818      	ldrh	r0, [r3, #0]
    3cbe:	e00d      	b.n	3cdc <ff_convert+0x38>
    3cc0:	460a      	mov	r2, r1
    3cc2:	4b07      	ldr	r3, [pc, #28]	(3ce0 <ff_convert+0x3c>)
    3cc4:	f833 3012 	ldrh.w	r3, [r3, r2, lsl #1]
    3cc8:	4283      	cmp	r3, r0
    3cca:	d004      	beq.n	3cd6 <ff_convert+0x32>
    3ccc:	1c4b      	adds	r3, r1, #1
    3cce:	b299      	uxth	r1, r3
    3cd0:	3201      	adds	r2, #1
    3cd2:	2980      	cmp	r1, #128
    3cd4:	d1f5      	bne.n	3cc2 <ff_convert+0x1e>
    3cd6:	f101 0380 	add.w	r3, r1, #128	; 0x80
    3cda:	b2d8      	uxtb	r0, r3
    3cdc:	4770      	bx	lr
    3cde:	46c0      	nop			(mov r8, r8)
    3ce0:	00006700 	.word	0x00006700

00003ce4 <ff_wtoupper>:
    3ce4:	4602      	mov	r2, r0
    3ce6:	2000      	movs	r0, #0
    3ce8:	e000      	b.n	3cec <ff_wtoupper+0x8>
    3cea:	3001      	adds	r0, #1
    3cec:	4b05      	ldr	r3, [pc, #20]	(3d04 <ff_wtoupper+0x20>)
    3cee:	f833 3010 	ldrh.w	r3, [r3, r0, lsl #1]
    3cf2:	b12b      	cbz	r3, 3d00 <ff_wtoupper+0x1c>
    3cf4:	429a      	cmp	r2, r3
    3cf6:	d1f8      	bne.n	3cea <ff_wtoupper+0x6>
    3cf8:	4b03      	ldr	r3, [pc, #12]	(3d08 <ff_wtoupper+0x24>)
    3cfa:	f833 0010 	ldrh.w	r0, [r3, r0, lsl #1]
    3cfe:	e000      	b.n	3d02 <ff_wtoupper+0x1e>
    3d00:	4610      	mov	r0, r2
    3d02:	4770      	bx	lr
    3d04:	00006800 	.word	0x00006800
    3d08:	000069e0 	.word	0x000069e0

00003d0c <disk_ioctl>:
    3d0c:	b510      	push	{r4, lr}
    3d0e:	b110      	cbz	r0, 3d16 <disk_ioctl+0xa>
    3d10:	2801      	cmp	r0, #1
    3d12:	d006      	beq.n	3d22 <disk_ioctl+0x16>
    3d14:	e012      	b.n	3d3c <disk_ioctl+0x30>
    3d16:	4608      	mov	r0, r1
    3d18:	4611      	mov	r1, r2
    3d1a:	f000 fbdd 	bl	44d8 <MMC_disk_ioctl>
    3d1e:	b2c0      	uxtb	r0, r0
    3d20:	e018      	b.n	3d54 <disk_ioctl+0x48>
    3d22:	4b0d      	ldr	r3, [pc, #52]	(3d58 <disk_ioctl+0x4c>)
    3d24:	681b      	ldr	r3, [r3, #0]
    3d26:	f013 0f01 	tst.w	r3, #1	; 0x1
    3d2a:	d001      	beq.n	3d30 <disk_ioctl+0x24>
    3d2c:	2003      	movs	r0, #3
    3d2e:	e011      	b.n	3d54 <disk_ioctl+0x48>
    3d30:	2903      	cmp	r1, #3
    3d32:	d803      	bhi.n	3d3c <disk_ioctl+0x30>
    3d34:	e8df f001 	tbb	[pc, r1]
    3d38:	0b04080d 	.word	0x0b04080d
    3d3c:	2004      	movs	r0, #4
    3d3e:	e009      	b.n	3d54 <disk_ioctl+0x48>
    3d40:	4b06      	ldr	r3, [pc, #24]	(3d5c <disk_ioctl+0x50>)
    3d42:	881b      	ldrh	r3, [r3, #0]
    3d44:	8013      	strh	r3, [r2, #0]
    3d46:	e004      	b.n	3d52 <disk_ioctl+0x46>
    3d48:	4b05      	ldr	r3, [pc, #20]	(3d60 <disk_ioctl+0x54>)
    3d4a:	681b      	ldr	r3, [r3, #0]
    3d4c:	e000      	b.n	3d50 <disk_ioctl+0x44>
    3d4e:	2301      	movs	r3, #1
    3d50:	6013      	str	r3, [r2, #0]
    3d52:	2000      	movs	r0, #0
    3d54:	bd10      	pop	{r4, pc}
    3d56:	46c0      	nop			(mov r8, r8)
    3d58:	0000      	.short	0x0000
    3d5a:	1000      	.short	0x1000
    3d5c:	100022e4 	.word	0x100022e4
    3d60:	100022e8 	.word	0x100022e8

00003d64 <disk_write>:
    3d64:	b510      	push	{r4, lr}
    3d66:	468e      	mov	lr, r1
    3d68:	4611      	mov	r1, r2
    3d6a:	461a      	mov	r2, r3
    3d6c:	b118      	cbz	r0, 3d76 <disk_write+0x12>
    3d6e:	2801      	cmp	r0, #1
    3d70:	d005      	beq.n	3d7e <disk_write+0x1a>
    3d72:	2004      	movs	r0, #4
    3d74:	e012      	b.n	3d9c <disk_write+0x38>
    3d76:	4670      	mov	r0, lr
    3d78:	f000 f9b4 	bl	40e4 <MMC_disk_write>
    3d7c:	e00e      	b.n	3d9c <disk_write+0x38>
    3d7e:	4b08      	ldr	r3, [pc, #32]	(3da0 <disk_write+0x3c>)
    3d80:	681b      	ldr	r3, [r3, #0]
    3d82:	f013 0f01 	tst.w	r3, #1	; 0x1
    3d86:	d001      	beq.n	3d8c <disk_write+0x28>
    3d88:	2003      	movs	r0, #3
    3d8a:	e007      	b.n	3d9c <disk_write+0x38>
    3d8c:	4608      	mov	r0, r1
    3d8e:	4611      	mov	r1, r2
    3d90:	4672      	mov	r2, lr
    3d92:	f001 fd71 	bl	5878 <MS_BulkSend>
    3d96:	3800      	subs	r0, #0
    3d98:	bf18      	it	ne
    3d9a:	2001      	movne	r0, #1
    3d9c:	bd10      	pop	{r4, pc}
    3d9e:	46c0      	nop			(mov r8, r8)
    3da0:	10000000 	.word	0x10000000

00003da4 <disk_read>:
    3da4:	b510      	push	{r4, lr}
    3da6:	468e      	mov	lr, r1
    3da8:	4611      	mov	r1, r2
    3daa:	461a      	mov	r2, r3
    3dac:	b118      	cbz	r0, 3db6 <disk_read+0x12>
    3dae:	2801      	cmp	r0, #1
    3db0:	d005      	beq.n	3dbe <disk_read+0x1a>
    3db2:	2004      	movs	r0, #4
    3db4:	e012      	b.n	3ddc <disk_read+0x38>
    3db6:	4670      	mov	r0, lr
    3db8:	f000 f9e6 	bl	4188 <MMC_disk_read>
    3dbc:	e00e      	b.n	3ddc <disk_read+0x38>
    3dbe:	4b08      	ldr	r3, [pc, #32]	(3de0 <disk_read+0x3c>)
    3dc0:	681b      	ldr	r3, [r3, #0]
    3dc2:	f013 0f01 	tst.w	r3, #1	; 0x1
    3dc6:	d001      	beq.n	3dcc <disk_read+0x28>
    3dc8:	2003      	movs	r0, #3
    3dca:	e007      	b.n	3ddc <disk_read+0x38>
    3dcc:	4608      	mov	r0, r1
    3dce:	4611      	mov	r1, r2
    3dd0:	4672      	mov	r2, lr
    3dd2:	f001 fd95 	bl	5900 <MS_BulkRecv>
    3dd6:	3800      	subs	r0, #0
    3dd8:	bf18      	it	ne
    3dda:	2001      	movne	r0, #1
    3ddc:	bd10      	pop	{r4, pc}
    3dde:	46c0      	nop			(mov r8, r8)
    3de0:	10000000 	.word	0x10000000

00003de4 <disk_status>:
    3de4:	b510      	push	{r4, lr}
    3de6:	b118      	cbz	r0, 3df0 <disk_status+0xc>
    3de8:	2801      	cmp	r0, #1
    3dea:	d004      	beq.n	3df6 <disk_status+0x12>
    3dec:	2001      	movs	r0, #1
    3dee:	e004      	b.n	3dfa <disk_status+0x16>
    3df0:	f000 f8f0 	bl	3fd4 <MMC_disk_status>
    3df4:	e001      	b.n	3dfa <disk_status+0x16>
    3df6:	4b01      	ldr	r3, [pc, #4]	(3dfc <disk_status+0x18>)
    3df8:	6818      	ldr	r0, [r3, #0]
    3dfa:	bd10      	pop	{r4, pc}
    3dfc:	10000000 	.word	0x10000000

00003e00 <disk_initialize>:
    3e00:	b510      	push	{r4, lr}
    3e02:	b118      	cbz	r0, 3e0c <disk_initialize+0xc>
    3e04:	2801      	cmp	r0, #1
    3e06:	d004      	beq.n	3e12 <disk_initialize+0x12>
    3e08:	2001      	movs	r0, #1
    3e0a:	e018      	b.n	3e3e <disk_initialize+0x3e>
    3e0c:	f000 fad8 	bl	43c0 <MMC_disk_initialize>
    3e10:	e015      	b.n	3e3e <disk_initialize+0x3e>
    3e12:	4c0b      	ldr	r4, [pc, #44]	(3e40 <disk_initialize+0x40>)
    3e14:	6823      	ldr	r3, [r4, #0]
    3e16:	f013 0f01 	tst.w	r3, #1	; 0x1
    3e1a:	d00e      	beq.n	3e3a <disk_initialize+0x3a>
    3e1c:	f001 fa82 	bl	5324 <Host_Init>
    3e20:	f001 fc5e 	bl	56e0 <Host_EnumDev>
    3e24:	b948      	cbnz	r0, 3e3a <disk_initialize+0x3a>
    3e26:	4807      	ldr	r0, [pc, #28]	(3e44 <disk_initialize+0x44>)
    3e28:	4907      	ldr	r1, [pc, #28]	(3e48 <disk_initialize+0x48>)
    3e2a:	4a08      	ldr	r2, [pc, #32]	(3e4c <disk_initialize+0x4c>)
    3e2c:	f001 feb6 	bl	5b9c <MS_Init>
    3e30:	b918      	cbnz	r0, 3e3a <disk_initialize+0x3a>
    3e32:	6823      	ldr	r3, [r4, #0]
    3e34:	f023 0301 	bic.w	r3, r3, #1	; 0x1
    3e38:	6023      	str	r3, [r4, #0]
    3e3a:	4b01      	ldr	r3, [pc, #4]	(3e40 <disk_initialize+0x40>)
    3e3c:	6818      	ldr	r0, [r3, #0]
    3e3e:	bd10      	pop	{r4, pc}
    3e40:	10000000 	.word	0x10000000
    3e44:	100022e4 	.word	0x100022e4
    3e48:	100022e8 	.word	0x100022e8
    3e4c:	100022c0 	.word	0x100022c0

00003e50 <disk_timerproc>:
    3e50:	b510      	push	{r4, lr}
    3e52:	f000 f8c5 	bl	3fe0 <MMC_disk_timerproc>
    3e56:	bd10      	pop	{r4, pc}

00003e58 <spi_rw>:
    3e58:	4b04      	ldr	r3, [pc, #16]	(3e6c <spi_rw+0x14>)
    3e5a:	6098      	str	r0, [r3, #8]
    3e5c:	4a03      	ldr	r2, [pc, #12]	(3e6c <spi_rw+0x14>)
    3e5e:	68d3      	ldr	r3, [r2, #12]
    3e60:	f013 0f10 	tst.w	r3, #16	; 0x10
    3e64:	d1fa      	bne.n	3e5c <spi_rw+0x4>
    3e66:	6890      	ldr	r0, [r2, #8]
    3e68:	b2c0      	uxtb	r0, r0
    3e6a:	4770      	bx	lr
    3e6c:	40030000 	.word	0x40030000

00003e70 <rcvr_spi>:
    3e70:	b510      	push	{r4, lr}
    3e72:	20ff      	movs	r0, #255
    3e74:	f7ff fff0 	bl	3e58 <spi_rw>
    3e78:	bd10      	pop	{r4, pc}
    3e7a:	46c0      	nop			(mov r8, r8)

00003e7c <wait_ready>:
    3e7c:	4b07      	ldr	r3, [pc, #28]	(3e9c <wait_ready+0x20>)
    3e7e:	2232      	movs	r2, #50
    3e80:	b510      	push	{r4, lr}
    3e82:	601a      	str	r2, [r3, #0]
    3e84:	f7ff fff4 	bl	3e70 <rcvr_spi>
    3e88:	f7ff fff2 	bl	3e70 <rcvr_spi>
    3e8c:	28ff      	cmp	r0, #255
    3e8e:	d003      	beq.n	3e98 <wait_ready+0x1c>
    3e90:	4b02      	ldr	r3, [pc, #8]	(3e9c <wait_ready+0x20>)
    3e92:	681b      	ldr	r3, [r3, #0]
    3e94:	2b00      	cmp	r3, #0
    3e96:	d1f7      	bne.n	3e88 <wait_ready+0xc>
    3e98:	bd10      	pop	{r4, pc}
    3e9a:	46c0      	nop			(mov r8, r8)
    3e9c:	10000440 	.word	0x10000440

00003ea0 <rcvr_datablock>:
    3ea0:	4b25      	ldr	r3, [pc, #148]	(3f38 <rcvr_datablock+0x98>)
    3ea2:	220a      	movs	r2, #10
    3ea4:	b570      	push	{r4, r5, r6, lr}
    3ea6:	601a      	str	r2, [r3, #0]
    3ea8:	4605      	mov	r5, r0
    3eaa:	460c      	mov	r4, r1
    3eac:	f7ff ffe0 	bl	3e70 <rcvr_spi>
    3eb0:	28ff      	cmp	r0, #255
    3eb2:	d104      	bne.n	3ebe <rcvr_datablock+0x1e>
    3eb4:	4b20      	ldr	r3, [pc, #128]	(3f38 <rcvr_datablock+0x98>)
    3eb6:	681b      	ldr	r3, [r3, #0]
    3eb8:	2b00      	cmp	r3, #0
    3eba:	d1f7      	bne.n	3eac <rcvr_datablock+0xc>
    3ebc:	e039      	b.n	3f32 <rcvr_datablock+0x92>
    3ebe:	28fe      	cmp	r0, #254
    3ec0:	d137      	bne.n	3f32 <rcvr_datablock+0x92>
    3ec2:	4a1e      	ldr	r2, [pc, #120]	(3f3c <rcvr_datablock+0x9c>)
    3ec4:	ea4f 0e54 	mov.w	lr, r4, lsr #1
    3ec8:	6813      	ldr	r3, [r2, #0]
    3eca:	2c07      	cmp	r4, #7
    3ecc:	bf94      	ite	ls
    3ece:	46f4      	movls	ip, lr
    3ed0:	f04f 0c08 	movhi.w	ip, #8	; 0x8
    3ed4:	f043 030f 	orr.w	r3, r3, #15	; 0xf
    3ed8:	6013      	str	r3, [r2, #0]
    3eda:	4660      	mov	r0, ip
    3edc:	e004      	b.n	3ee8 <rcvr_datablock+0x48>
    3ede:	4b17      	ldr	r3, [pc, #92]	(3f3c <rcvr_datablock+0x9c>)
    3ee0:	f64f 72ff 	movw	r2, #65535	; 0xffff
    3ee4:	609a      	str	r2, [r3, #8]
    3ee6:	3801      	subs	r0, #1
    3ee8:	2800      	cmp	r0, #0
    3eea:	d1f8      	bne.n	3ede <rcvr_datablock+0x3e>
    3eec:	4c13      	ldr	r4, [pc, #76]	(3f3c <rcvr_datablock+0x9c>)
    3eee:	68e3      	ldr	r3, [r4, #12]
    3ef0:	f013 0f04 	tst.w	r3, #4	; 0x4
    3ef4:	d0fa      	beq.n	3eec <rcvr_datablock+0x4c>
    3ef6:	ebcc 030e 	rsb	r3, ip, lr
    3efa:	4298      	cmp	r0, r3
    3efc:	68a1      	ldr	r1, [r4, #8]
    3efe:	bf3c      	itt	cc
    3f00:	f64f 73ff 	movwcc	r3, #65535	; 0xffff
    3f04:	60a3      	strcc	r3, [r4, #8]
    3f06:	3001      	adds	r0, #1
    3f08:	0a0b      	lsrs	r3, r1, #8
    3f0a:	462a      	mov	r2, r5
    3f0c:	4570      	cmp	r0, lr
    3f0e:	f802 3b01 	strb.w	r3, [r2], #1
    3f12:	7069      	strb	r1, [r5, #1]
    3f14:	d201      	bcs.n	3f1a <rcvr_datablock+0x7a>
    3f16:	1c55      	adds	r5, r2, #1
    3f18:	e7e8      	b.n	3eec <rcvr_datablock+0x4c>
    3f1a:	6823      	ldr	r3, [r4, #0]
    3f1c:	f023 030f 	bic.w	r3, r3, #15	; 0xf
    3f20:	f043 0307 	orr.w	r3, r3, #7	; 0x7
    3f24:	6023      	str	r3, [r4, #0]
    3f26:	f7ff ffa3 	bl	3e70 <rcvr_spi>
    3f2a:	f7ff ffa1 	bl	3e70 <rcvr_spi>
    3f2e:	2001      	movs	r0, #1
    3f30:	e000      	b.n	3f34 <rcvr_datablock+0x94>
    3f32:	2000      	movs	r0, #0
    3f34:	bd70      	pop	{r4, r5, r6, pc}
    3f36:	46c0      	nop			(mov r8, r8)
    3f38:	1000043c 	.word	0x1000043c
    3f3c:	40030000 	.word	0x40030000

00003f40 <xmit_datablock>:
    3f40:	b570      	push	{r4, r5, r6, lr}
    3f42:	4605      	mov	r5, r0
    3f44:	460c      	mov	r4, r1
    3f46:	f7ff ff99 	bl	3e7c <wait_ready>
    3f4a:	28ff      	cmp	r0, #255
    3f4c:	d001      	beq.n	3f52 <xmit_datablock+0x12>
    3f4e:	2000      	movs	r0, #0
    3f50:	e03d      	b.n	3fce <xmit_datablock+0x8e>
    3f52:	4620      	mov	r0, r4
    3f54:	f7ff ff80 	bl	3e58 <spi_rw>
    3f58:	2cfd      	cmp	r4, #253
    3f5a:	d101      	bne.n	3f60 <xmit_datablock+0x20>
    3f5c:	2001      	movs	r0, #1
    3f5e:	e036      	b.n	3fce <xmit_datablock+0x8e>
    3f60:	4a1b      	ldr	r2, [pc, #108]	(3fd0 <xmit_datablock+0x90>)
    3f62:	2000      	movs	r0, #0
    3f64:	6813      	ldr	r3, [r2, #0]
    3f66:	f043 030f 	orr.w	r3, r3, #15	; 0xf
    3f6a:	6013      	str	r3, [r2, #0]
    3f6c:	4c18      	ldr	r4, [pc, #96]	(3fd0 <xmit_datablock+0x90>)
    3f6e:	68e3      	ldr	r3, [r4, #12]
    3f70:	f013 0f02 	tst.w	r3, #2	; 0x2
    3f74:	d0fa      	beq.n	3f6c <xmit_datablock+0x2c>
    3f76:	4629      	mov	r1, r5
    3f78:	f811 2b01 	ldrb.w	r2, [r1], #1
    3f7c:	786b      	ldrb	r3, [r5, #1]
    3f7e:	3001      	adds	r0, #1
    3f80:	ea43 2302 	orr.w	r3, r3, r2, lsl #8
    3f84:	28ff      	cmp	r0, #255
    3f86:	60a3      	str	r3, [r4, #8]
    3f88:	d801      	bhi.n	3f8e <xmit_datablock+0x4e>
    3f8a:	1c4d      	adds	r5, r1, #1
    3f8c:	e7ee      	b.n	3f6c <xmit_datablock+0x2c>
    3f8e:	4b10      	ldr	r3, [pc, #64]	(3fd0 <xmit_datablock+0x90>)
    3f90:	68db      	ldr	r3, [r3, #12]
    3f92:	f013 0f10 	tst.w	r3, #16	; 0x10
    3f96:	d1fa      	bne.n	3f8e <xmit_datablock+0x4e>
    3f98:	e000      	b.n	3f9c <xmit_datablock+0x5c>
    3f9a:	6893      	ldr	r3, [r2, #8]
    3f9c:	4a0c      	ldr	r2, [pc, #48]	(3fd0 <xmit_datablock+0x90>)
    3f9e:	68d3      	ldr	r3, [r2, #12]
    3fa0:	f013 0f04 	tst.w	r3, #4	; 0x4
    3fa4:	d1f9      	bne.n	3f9a <xmit_datablock+0x5a>
    3fa6:	6813      	ldr	r3, [r2, #0]
    3fa8:	20ff      	movs	r0, #255
    3faa:	f023 030f 	bic.w	r3, r3, #15	; 0xf
    3fae:	f043 0307 	orr.w	r3, r3, #7	; 0x7
    3fb2:	6013      	str	r3, [r2, #0]
    3fb4:	f7ff ff50 	bl	3e58 <spi_rw>
    3fb8:	20ff      	movs	r0, #255
    3fba:	f7ff ff4d 	bl	3e58 <spi_rw>
    3fbe:	f7ff ff57 	bl	3e70 <rcvr_spi>
    3fc2:	f000 001f 	and.w	r0, r0, #31	; 0x1f
    3fc6:	2805      	cmp	r0, #5
    3fc8:	bf14      	ite	ne
    3fca:	2000      	movne	r0, #0
    3fcc:	2001      	moveq	r0, #1
    3fce:	bd70      	pop	{r4, r5, r6, pc}
    3fd0:	40030000 	.word	0x40030000

00003fd4 <MMC_disk_status>:
    3fd4:	4b01      	ldr	r3, [pc, #4]	(3fdc <MMC_disk_status+0x8>)
    3fd6:	6818      	ldr	r0, [r3, #0]
    3fd8:	4770      	bx	lr
    3fda:	46c0      	nop			(mov r8, r8)
    3fdc:	10000004 	.word	0x10000004

00003fe0 <MMC_disk_timerproc>:
    3fe0:	4a0c      	ldr	r2, [pc, #48]	(4014 <MMC_disk_timerproc+0x34>)
    3fe2:	6813      	ldr	r3, [r2, #0]
    3fe4:	b2db      	uxtb	r3, r3
    3fe6:	b113      	cbz	r3, 3fee <MMC_disk_timerproc+0xe>
    3fe8:	3b01      	subs	r3, #1
    3fea:	b2db      	uxtb	r3, r3
    3fec:	6013      	str	r3, [r2, #0]
    3fee:	4a0a      	ldr	r2, [pc, #40]	(4018 <MMC_disk_timerproc+0x38>)
    3ff0:	6813      	ldr	r3, [r2, #0]
    3ff2:	b2db      	uxtb	r3, r3
    3ff4:	b113      	cbz	r3, 3ffc <MMC_disk_timerproc+0x1c>
    3ff6:	3b01      	subs	r3, #1
    3ff8:	b2db      	uxtb	r3, r3
    3ffa:	6013      	str	r3, [r2, #0]
    3ffc:	4b07      	ldr	r3, [pc, #28]	(401c <MMC_disk_timerproc+0x3c>)
    3ffe:	2200      	movs	r2, #0
    4000:	6819      	ldr	r1, [r3, #0]
    4002:	601a      	str	r2, [r3, #0]
    4004:	b921      	cbnz	r1, 4010 <MMC_disk_timerproc+0x30>
    4006:	4a06      	ldr	r2, [pc, #24]	(4020 <MMC_disk_timerproc+0x40>)
    4008:	6813      	ldr	r3, [r2, #0]
    400a:	f003 03f9 	and.w	r3, r3, #249	; 0xf9
    400e:	6013      	str	r3, [r2, #0]
    4010:	4770      	bx	lr
    4012:	46c0      	nop			(mov r8, r8)
    4014:	1000043c 	.word	0x1000043c
    4018:	10000440 	.word	0x10000440
    401c:	10000448 	.word	0x10000448
    4020:	10000004 	.word	0x10000004

00004024 <de_select_card>:
    4024:	b510      	push	{r4, lr}
    4026:	2000      	movs	r0, #0
    4028:	2140      	movs	r1, #64
    402a:	f000 fd1f 	bl	4a6c <GPIO_SetValue>
    402e:	bd10      	pop	{r4, pc}

00004030 <release_spi>:
    4030:	b510      	push	{r4, lr}
    4032:	f7ff fff7 	bl	4024 <de_select_card>
    4036:	f7ff ff1b 	bl	3e70 <rcvr_spi>
    403a:	bd10      	pop	{r4, pc}

0000403c <socket_power_off>:
    403c:	b510      	push	{r4, lr}
    403e:	2000      	movs	r0, #0
    4040:	f44f 1100 	mov.w	r1, #2097152	; 0x200000
    4044:	f000 fd12 	bl	4a6c <GPIO_SetValue>
    4048:	4b01      	ldr	r3, [pc, #4]	(4050 <socket_power_off+0x14>)
    404a:	2200      	movs	r2, #0
    404c:	701a      	strb	r2, [r3, #0]
    404e:	bd10      	pop	{r4, pc}
    4050:	10000445 	.word	0x10000445

00004054 <select_card>:
    4054:	b510      	push	{r4, lr}
    4056:	2000      	movs	r0, #0
    4058:	2140      	movs	r1, #64
    405a:	f000 fd0f 	bl	4a7c <GPIO_ClearValue>
    405e:	bd10      	pop	{r4, pc}

00004060 <send_cmd>:
    4060:	f010 0f80 	tst.w	r0, #128	; 0x80
    4064:	b570      	push	{r4, r5, r6, lr}
    4066:	4604      	mov	r4, r0
    4068:	460d      	mov	r5, r1
    406a:	d007      	beq.n	407c <send_cmd+0x1c>
    406c:	2077      	movs	r0, #119
    406e:	2100      	movs	r1, #0
    4070:	f7ff fff6 	bl	4060 <send_cmd>
    4074:	2801      	cmp	r0, #1
    4076:	d834      	bhi.n	40e2 <send_cmd+0x82>
    4078:	f004 047f 	and.w	r4, r4, #127	; 0x7f
    407c:	f7ff ffd2 	bl	4024 <de_select_card>
    4080:	f7ff ffe8 	bl	4054 <select_card>
    4084:	f7ff fefa 	bl	3e7c <wait_ready>
    4088:	28ff      	cmp	r0, #255
    408a:	d001      	beq.n	4090 <send_cmd+0x30>
    408c:	20ff      	movs	r0, #255
    408e:	e028      	b.n	40e2 <send_cmd+0x82>
    4090:	4620      	mov	r0, r4
    4092:	f7ff fee1 	bl	3e58 <spi_rw>
    4096:	0e28      	lsrs	r0, r5, #24
    4098:	f7ff fede 	bl	3e58 <spi_rw>
    409c:	f3c5 4007 	ubfx	r0, r5, #16, #8
    40a0:	f7ff feda 	bl	3e58 <spi_rw>
    40a4:	f3c5 2007 	ubfx	r0, r5, #8, #8
    40a8:	f7ff fed6 	bl	3e58 <spi_rw>
    40ac:	b2e8      	uxtb	r0, r5
    40ae:	f7ff fed3 	bl	3e58 <spi_rw>
    40b2:	2c40      	cmp	r4, #64
    40b4:	d101      	bne.n	40ba <send_cmd+0x5a>
    40b6:	2095      	movs	r0, #149
    40b8:	e003      	b.n	40c2 <send_cmd+0x62>
    40ba:	2c48      	cmp	r4, #72
    40bc:	bf14      	ite	ne
    40be:	2001      	movne	r0, #1
    40c0:	2087      	moveq	r0, #135
    40c2:	f7ff fec9 	bl	3e58 <spi_rw>
    40c6:	2c4c      	cmp	r4, #76
    40c8:	d101      	bne.n	40ce <send_cmd+0x6e>
    40ca:	f7ff fed1 	bl	3e70 <rcvr_spi>
    40ce:	240a      	movs	r4, #10
    40d0:	f7ff fece 	bl	3e70 <rcvr_spi>
    40d4:	f010 0f80 	tst.w	r0, #128	; 0x80
    40d8:	d003      	beq.n	40e2 <send_cmd+0x82>
    40da:	1e63      	subs	r3, r4, #1
    40dc:	b2dc      	uxtb	r4, r3
    40de:	2c00      	cmp	r4, #0
    40e0:	d1f6      	bne.n	40d0 <send_cmd+0x70>
    40e2:	bd70      	pop	{r4, r5, r6, pc}

000040e4 <MMC_disk_write>:
    40e4:	b570      	push	{r4, r5, r6, lr}
    40e6:	4606      	mov	r6, r0
    40e8:	460d      	mov	r5, r1
    40ea:	4614      	mov	r4, r2
    40ec:	b90a      	cbnz	r2, 40f2 <MMC_disk_write+0xe>
    40ee:	2004      	movs	r0, #4
    40f0:	e044      	b.n	417c <MMC_disk_write+0x98>
    40f2:	4a23      	ldr	r2, [pc, #140]	(4180 <MMC_disk_write+0x9c>)
    40f4:	6813      	ldr	r3, [r2, #0]
    40f6:	f013 0f01 	tst.w	r3, #1	; 0x1
    40fa:	d001      	beq.n	4100 <MMC_disk_write+0x1c>
    40fc:	2003      	movs	r0, #3
    40fe:	e03d      	b.n	417c <MMC_disk_write+0x98>
    4100:	6813      	ldr	r3, [r2, #0]
    4102:	f013 0f04 	tst.w	r3, #4	; 0x4
    4106:	d001      	beq.n	410c <MMC_disk_write+0x28>
    4108:	2002      	movs	r0, #2
    410a:	e037      	b.n	417c <MMC_disk_write+0x98>
    410c:	4b1d      	ldr	r3, [pc, #116]	(4184 <MMC_disk_write+0xa0>)
    410e:	781b      	ldrb	r3, [r3, #0]
    4110:	f013 0f08 	tst.w	r3, #8	; 0x8
    4114:	bf08      	it	eq
    4116:	024d      	lsleq	r5, r1, #9
    4118:	2c01      	cmp	r4, #1
    411a:	d10c      	bne.n	4136 <MMC_disk_write+0x52>
    411c:	4629      	mov	r1, r5
    411e:	2058      	movs	r0, #88
    4120:	f7ff ff9e 	bl	4060 <send_cmd>
    4124:	4605      	mov	r5, r0
    4126:	bb20      	cbnz	r0, 4172 <MMC_disk_write+0x8e>
    4128:	4630      	mov	r0, r6
    412a:	21fe      	movs	r1, #254
    412c:	f7ff ff08 	bl	3f40 <xmit_datablock>
    4130:	b1f8      	cbz	r0, 4172 <MMC_disk_write+0x8e>
    4132:	462c      	mov	r4, r5
    4134:	e01d      	b.n	4172 <MMC_disk_write+0x8e>
    4136:	f013 0f06 	tst.w	r3, #6	; 0x6
    413a:	d003      	beq.n	4144 <MMC_disk_write+0x60>
    413c:	20d7      	movs	r0, #215
    413e:	4621      	mov	r1, r4
    4140:	f7ff ff8e 	bl	4060 <send_cmd>
    4144:	2059      	movs	r0, #89
    4146:	4629      	mov	r1, r5
    4148:	f7ff ff8a 	bl	4060 <send_cmd>
    414c:	b988      	cbnz	r0, 4172 <MMC_disk_write+0x8e>
    414e:	4630      	mov	r0, r6
    4150:	21fc      	movs	r1, #252
    4152:	f7ff fef5 	bl	3f40 <xmit_datablock>
    4156:	b128      	cbz	r0, 4164 <MMC_disk_write+0x80>
    4158:	1e63      	subs	r3, r4, #1
    415a:	b2dc      	uxtb	r4, r3
    415c:	b114      	cbz	r4, 4164 <MMC_disk_write+0x80>
    415e:	f506 7600 	add.w	r6, r6, #512	; 0x200
    4162:	e7f4      	b.n	414e <MMC_disk_write+0x6a>
    4164:	2000      	movs	r0, #0
    4166:	21fd      	movs	r1, #253
    4168:	f7ff feea 	bl	3f40 <xmit_datablock>
    416c:	2800      	cmp	r0, #0
    416e:	bf08      	it	eq
    4170:	2401      	moveq	r4, #1
    4172:	f7ff ff5d 	bl	4030 <release_spi>
    4176:	1e20      	subs	r0, r4, #0
    4178:	bf18      	it	ne
    417a:	2001      	movne	r0, #1
    417c:	bd70      	pop	{r4, r5, r6, pc}
    417e:	46c0      	nop			(mov r8, r8)
    4180:	10000004 	.word	0x10000004
    4184:	10000444 	.word	0x10000444

00004188 <MMC_disk_read>:
    4188:	b570      	push	{r4, r5, r6, lr}
    418a:	4605      	mov	r5, r0
    418c:	4614      	mov	r4, r2
    418e:	b90a      	cbnz	r2, 4194 <MMC_disk_read+0xc>
    4190:	2004      	movs	r0, #4
    4192:	e034      	b.n	41fe <MMC_disk_read+0x76>
    4194:	4b1a      	ldr	r3, [pc, #104]	(4200 <MMC_disk_read+0x78>)
    4196:	681b      	ldr	r3, [r3, #0]
    4198:	f013 0f01 	tst.w	r3, #1	; 0x1
    419c:	d001      	beq.n	41a2 <MMC_disk_read+0x1a>
    419e:	2003      	movs	r0, #3
    41a0:	e02d      	b.n	41fe <MMC_disk_read+0x76>
    41a2:	4b18      	ldr	r3, [pc, #96]	(4204 <MMC_disk_read+0x7c>)
    41a4:	781b      	ldrb	r3, [r3, #0]
    41a6:	f013 0f08 	tst.w	r3, #8	; 0x8
    41aa:	bf08      	it	eq
    41ac:	0249      	lsleq	r1, r1, #9
    41ae:	2a01      	cmp	r2, #1
    41b0:	d10c      	bne.n	41cc <MMC_disk_read+0x44>
    41b2:	2051      	movs	r0, #81
    41b4:	f7ff ff54 	bl	4060 <send_cmd>
    41b8:	4606      	mov	r6, r0
    41ba:	b9d8      	cbnz	r0, 41f4 <MMC_disk_read+0x6c>
    41bc:	4628      	mov	r0, r5
    41be:	f44f 7100 	mov.w	r1, #512	; 0x200
    41c2:	f7ff fe6d 	bl	3ea0 <rcvr_datablock>
    41c6:	b1a8      	cbz	r0, 41f4 <MMC_disk_read+0x6c>
    41c8:	4634      	mov	r4, r6
    41ca:	e013      	b.n	41f4 <MMC_disk_read+0x6c>
    41cc:	2052      	movs	r0, #82
    41ce:	f7ff ff47 	bl	4060 <send_cmd>
    41d2:	b978      	cbnz	r0, 41f4 <MMC_disk_read+0x6c>
    41d4:	4628      	mov	r0, r5
    41d6:	f44f 7100 	mov.w	r1, #512	; 0x200
    41da:	f7ff fe61 	bl	3ea0 <rcvr_datablock>
    41de:	b128      	cbz	r0, 41ec <MMC_disk_read+0x64>
    41e0:	1e63      	subs	r3, r4, #1
    41e2:	b2dc      	uxtb	r4, r3
    41e4:	b114      	cbz	r4, 41ec <MMC_disk_read+0x64>
    41e6:	f505 7500 	add.w	r5, r5, #512	; 0x200
    41ea:	e7f3      	b.n	41d4 <MMC_disk_read+0x4c>
    41ec:	204c      	movs	r0, #76
    41ee:	2100      	movs	r1, #0
    41f0:	f7ff ff36 	bl	4060 <send_cmd>
    41f4:	f7ff ff1c 	bl	4030 <release_spi>
    41f8:	1e20      	subs	r0, r4, #0
    41fa:	bf18      	it	ne
    41fc:	2001      	movne	r0, #1
    41fe:	bd70      	pop	{r4, r5, r6, pc}
    4200:	10000004 	.word	0x10000004
    4204:	10000444 	.word	0x10000444

00004208 <spi_set_speed>:
    4208:	b510      	push	{r4, lr}
    420a:	b910      	cbnz	r0, 4212 <spi_set_speed+0xa>
    420c:	4803      	ldr	r0, [pc, #12]	(421c <spi_set_speed+0x14>)
    420e:	4904      	ldr	r1, [pc, #16]	(4220 <spi_set_speed+0x18>)
    4210:	e001      	b.n	4216 <spi_set_speed+0xe>
    4212:	4802      	ldr	r0, [pc, #8]	(421c <spi_set_speed+0x14>)
    4214:	4903      	ldr	r1, [pc, #12]	(4224 <spi_set_speed+0x1c>)
    4216:	f000 ff33 	bl	5080 <SSP_SetClock>
    421a:	bd10      	pop	{r4, pc}
    421c:	40030000 	.word	0x40030000
    4220:	00061a80 	.word	0x00061a80
    4224:	017d7840 	.word	0x017d7840

00004228 <power_on>:
    4228:	b570      	push	{r4, r5, r6, lr}
    422a:	b08a      	sub	sp, #40
    422c:	2400      	movs	r4, #0
    422e:	2315      	movs	r3, #21
    4230:	2501      	movs	r5, #1
    4232:	f10d 001f 	add.w	r0, sp, #31	; 0x1f
    4236:	4e3a      	ldr	r6, [pc, #232]	(4320 <power_on+0xf8>)
    4238:	f88d 3020 	strb.w	r3, [sp, #32]
    423c:	f88d 4021 	strb.w	r4, [sp, #33]
    4240:	f88d 5023 	strb.w	r5, [sp, #35]
    4244:	f88d 4022 	strb.w	r4, [sp, #34]
    4248:	f88d 401f 	strb.w	r4, [sp, #31]
    424c:	f000 fbcc 	bl	49e8 <PINSEL_ConfigPin>
    4250:	f7ff fef4 	bl	403c <socket_power_off>
    4254:	462a      	mov	r2, r5
    4256:	4620      	mov	r0, r4
    4258:	f44f 1100 	mov.w	r1, #2097152	; 0x200000
    425c:	7034      	strb	r4, [r6, #0]
    425e:	f000 fbf3 	bl	4a48 <GPIO_SetDir>
    4262:	4620      	mov	r0, r4
    4264:	f44f 1100 	mov.w	r1, #2097152	; 0x200000
    4268:	f000 fc08 	bl	4a7c <GPIO_ClearValue>
    426c:	4b2d      	ldr	r3, [pc, #180]	(4324 <power_on+0xfc>)
    426e:	2219      	movs	r2, #25
    4270:	7035      	strb	r5, [r6, #0]
    4272:	601a      	str	r2, [r3, #0]
    4274:	4b2b      	ldr	r3, [pc, #172]	(4324 <power_on+0xfc>)
    4276:	681c      	ldr	r4, [r3, #0]
    4278:	2c00      	cmp	r4, #0
    427a:	d1fb      	bne.n	4274 <power_on+0x4c>
    427c:	2306      	movs	r3, #6
    427e:	f88d 3020 	strb.w	r3, [sp, #32]
    4282:	f88d 4021 	strb.w	r4, [sp, #33]
    4286:	f88d 4023 	strb.w	r4, [sp, #35]
    428a:	f88d 4022 	strb.w	r4, [sp, #34]
    428e:	f88d 401f 	strb.w	r4, [sp, #31]
    4292:	f7ff fec7 	bl	4024 <de_select_card>
    4296:	2201      	movs	r2, #1
    4298:	2140      	movs	r1, #64
    429a:	4620      	mov	r0, r4
    429c:	f10d 041f 	add.w	r4, sp, #31	; 0x1f
    42a0:	f000 fbd2 	bl	4a48 <GPIO_SetDir>
    42a4:	4620      	mov	r0, r4
    42a6:	f000 fb9f 	bl	49e8 <PINSEL_ConfigPin>
    42aa:	2502      	movs	r5, #2
    42ac:	2307      	movs	r3, #7
    42ae:	4620      	mov	r0, r4
    42b0:	f88d 3020 	strb.w	r3, [sp, #32]
    42b4:	f88d 5021 	strb.w	r5, [sp, #33]
    42b8:	f000 fb96 	bl	49e8 <PINSEL_ConfigPin>
    42bc:	2308      	movs	r3, #8
    42be:	4620      	mov	r0, r4
    42c0:	f88d 3020 	strb.w	r3, [sp, #32]
    42c4:	f000 fb90 	bl	49e8 <PINSEL_ConfigPin>
    42c8:	2309      	movs	r3, #9
    42ca:	4620      	mov	r0, r4
    42cc:	ac01      	add	r4, sp, #4
    42ce:	f88d 3020 	strb.w	r3, [sp, #32]
    42d2:	f000 fb89 	bl	49e8 <PINSEL_ConfigPin>
    42d6:	4620      	mov	r0, r4
    42d8:	f000 fea8 	bl	502c <SSP_ConfigStructInit>
    42dc:	4812      	ldr	r0, [pc, #72]	(4328 <power_on+0x100>)
    42de:	4621      	mov	r1, r4
    42e0:	f000 ff04 	bl	50ec <SSP_Init>
    42e4:	2014      	movs	r0, #20
    42e6:	4629      	mov	r1, r5
    42e8:	f000 fabc 	bl	4864 <CLKPWR_SetPCLKDiv>
    42ec:	480e      	ldr	r0, [pc, #56]	(4328 <power_on+0x100>)
    42ee:	2101      	movs	r1, #1
    42f0:	f000 fea8 	bl	5044 <SSP_Cmd>
    42f4:	4b0c      	ldr	r3, [pc, #48]	(4328 <power_on+0x100>)
    42f6:	68db      	ldr	r3, [r3, #12]
    42f8:	f013 0f10 	tst.w	r3, #16	; 0x10
    42fc:	d1fa      	bne.n	42f4 <power_on+0xcc>
    42fe:	e003      	b.n	4308 <power_on+0xe0>
    4300:	4b0a      	ldr	r3, [pc, #40]	(432c <power_on+0x104>)
    4302:	689b      	ldr	r3, [r3, #8]
    4304:	9309      	str	r3, [sp, #36]
    4306:	9b09      	ldr	r3, [sp, #36]
    4308:	4b07      	ldr	r3, [pc, #28]	(4328 <power_on+0x100>)
    430a:	68db      	ldr	r3, [r3, #12]
    430c:	f013 0004 	ands.w	r0, r3, #4	; 0x4
    4310:	d1f6      	bne.n	4300 <power_on+0xd8>
    4312:	f7ff ff79 	bl	4208 <spi_set_speed>
    4316:	f7ff fe85 	bl	4024 <de_select_card>
    431a:	b00a      	add	sp, #40
    431c:	bd70      	pop	{r4, r5, r6, pc}
    431e:	46c0      	nop			(mov r8, r8)
    4320:	10000445 	.word	0x10000445
    4324:	1000043c 	.word	0x1000043c
    4328:	40030000 	.word	0x40030000
    432c:	40088000 	.word	0x40088000

00004330 <spi_close>:
    4330:	b513      	push	{r0, r1, r4, lr}
    4332:	4c16      	ldr	r4, [pc, #88]	(438c <spi_close+0x5c>)
    4334:	2100      	movs	r1, #0
    4336:	4620      	mov	r0, r4
    4338:	f000 fe84 	bl	5044 <SSP_Cmd>
    433c:	4620      	mov	r0, r4
    433e:	f000 fe8b 	bl	5058 <SSP_DeInit>
    4342:	f10d 0403 	add.w	r4, sp, #3	; 0x3
    4346:	2303      	movs	r3, #3
    4348:	2200      	movs	r2, #0
    434a:	f88d 3006 	strb.w	r3, [sp, #6]
    434e:	4620      	mov	r0, r4
    4350:	18db      	adds	r3, r3, r3
    4352:	f88d 2005 	strb.w	r2, [sp, #5]
    4356:	f88d 2007 	strb.w	r2, [sp, #7]
    435a:	f88d 2003 	strb.w	r2, [sp, #3]
    435e:	f88d 3004 	strb.w	r3, [sp, #4]
    4362:	f000 fb41 	bl	49e8 <PINSEL_ConfigPin>
    4366:	2307      	movs	r3, #7
    4368:	4620      	mov	r0, r4
    436a:	f88d 3004 	strb.w	r3, [sp, #4]
    436e:	f000 fb3b 	bl	49e8 <PINSEL_ConfigPin>
    4372:	2308      	movs	r3, #8
    4374:	4620      	mov	r0, r4
    4376:	f88d 3004 	strb.w	r3, [sp, #4]
    437a:	f000 fb35 	bl	49e8 <PINSEL_ConfigPin>
    437e:	2309      	movs	r3, #9
    4380:	4620      	mov	r0, r4
    4382:	f88d 3004 	strb.w	r3, [sp, #4]
    4386:	f000 fb2f 	bl	49e8 <PINSEL_ConfigPin>
    438a:	bd1c      	pop	{r2, r3, r4, pc}
    438c:	40030000 	.word	0x40030000

00004390 <power_off>:
    4390:	b510      	push	{r4, lr}
    4392:	4c0a      	ldr	r4, [pc, #40]	(43bc <power_off+0x2c>)
    4394:	6823      	ldr	r3, [r4, #0]
    4396:	f013 0f01 	tst.w	r3, #1	; 0x1
    439a:	d105      	bne.n	43a8 <power_off+0x18>
    439c:	f7ff fe5a 	bl	4054 <select_card>
    43a0:	f7ff fd6c 	bl	3e7c <wait_ready>
    43a4:	f7ff fe44 	bl	4030 <release_spi>
    43a8:	f7ff ffc2 	bl	4330 <spi_close>
    43ac:	f7ff fe46 	bl	403c <socket_power_off>
    43b0:	6823      	ldr	r3, [r4, #0]
    43b2:	f043 0301 	orr.w	r3, r3, #1	; 0x1
    43b6:	6023      	str	r3, [r4, #0]
    43b8:	bd10      	pop	{r4, pc}
    43ba:	46c0      	nop			(mov r8, r8)
    43bc:	10000004 	.word	0x10000004

000043c0 <MMC_disk_initialize>:
    43c0:	b573      	push	{r0, r1, r4, r5, r6, lr}
    43c2:	4842      	ldr	r0, [pc, #264]	(44cc <MMC_disk_initialize+0x10c>)
    43c4:	6803      	ldr	r3, [r0, #0]
    43c6:	f013 0402 	ands.w	r4, r3, #2	; 0x2
    43ca:	d001      	beq.n	43d0 <MMC_disk_initialize+0x10>
    43cc:	6800      	ldr	r0, [r0, #0]
    43ce:	e07b      	b.n	44c8 <MMC_disk_initialize+0x108>
    43d0:	f7ff ff2a 	bl	4228 <power_on>
    43d4:	4620      	mov	r0, r4
    43d6:	f7ff ff17 	bl	4208 <spi_set_speed>
    43da:	240a      	movs	r4, #10
    43dc:	f7ff fd48 	bl	3e70 <rcvr_spi>
    43e0:	1e63      	subs	r3, r4, #1
    43e2:	b2dc      	uxtb	r4, r3
    43e4:	2c00      	cmp	r4, #0
    43e6:	d1f9      	bne.n	43dc <MMC_disk_initialize+0x1c>
    43e8:	2040      	movs	r0, #64
    43ea:	4621      	mov	r1, r4
    43ec:	f7ff fe38 	bl	4060 <send_cmd>
    43f0:	2801      	cmp	r0, #1
    43f2:	d156      	bne.n	44a2 <MMC_disk_initialize+0xe2>
    43f4:	4b36      	ldr	r3, [pc, #216]	(44d0 <MMC_disk_initialize+0x110>)
    43f6:	2264      	movs	r2, #100
    43f8:	3047      	adds	r0, #71
    43fa:	601a      	str	r2, [r3, #0]
    43fc:	f44f 71d5 	mov.w	r1, #426	; 0x1aa
    4400:	f7ff fe2e 	bl	4060 <send_cmd>
    4404:	2801      	cmp	r0, #1
    4406:	d130      	bne.n	446a <MMC_disk_initialize+0xaa>
    4408:	f7ff fd32 	bl	3e70 <rcvr_spi>
    440c:	ab01      	add	r3, sp, #4
    440e:	54e0      	strb	r0, [r4, r3]
    4410:	3401      	adds	r4, #1
    4412:	2c04      	cmp	r4, #4
    4414:	d1f8      	bne.n	4408 <MMC_disk_initialize+0x48>
    4416:	f89d 3006 	ldrb.w	r3, [sp, #6]
    441a:	2b01      	cmp	r3, #1
    441c:	d141      	bne.n	44a2 <MMC_disk_initialize+0xe2>
    441e:	f89d 3007 	ldrb.w	r3, [sp, #7]
    4422:	2baa      	cmp	r3, #170
    4424:	d13d      	bne.n	44a2 <MMC_disk_initialize+0xe2>
    4426:	4c2a      	ldr	r4, [pc, #168]	(44d0 <MMC_disk_initialize+0x110>)
    4428:	6823      	ldr	r3, [r4, #0]
    442a:	b133      	cbz	r3, 443a <MMC_disk_initialize+0x7a>
    442c:	20e9      	movs	r0, #233
    442e:	f04f 4180 	mov.w	r1, #1073741824	; 0x40000000
    4432:	f7ff fe15 	bl	4060 <send_cmd>
    4436:	2800      	cmp	r0, #0
    4438:	d1f5      	bne.n	4426 <MMC_disk_initialize+0x66>
    443a:	6823      	ldr	r3, [r4, #0]
    443c:	2b00      	cmp	r3, #0
    443e:	d030      	beq.n	44a2 <MMC_disk_initialize+0xe2>
    4440:	207a      	movs	r0, #122
    4442:	2100      	movs	r1, #0
    4444:	f7ff fe0c 	bl	4060 <send_cmd>
    4448:	bb58      	cbnz	r0, 44a2 <MMC_disk_initialize+0xe2>
    444a:	4604      	mov	r4, r0
    444c:	f7ff fd10 	bl	3e70 <rcvr_spi>
    4450:	ab01      	add	r3, sp, #4
    4452:	54e0      	strb	r0, [r4, r3]
    4454:	3401      	adds	r4, #1
    4456:	2c04      	cmp	r4, #4
    4458:	d1f8      	bne.n	444c <MMC_disk_initialize+0x8c>
    445a:	f89d 3004 	ldrb.w	r3, [sp, #4]
    445e:	f013 0f40 	tst.w	r3, #64	; 0x40
    4462:	bf0c      	ite	eq
    4464:	2404      	moveq	r4, #4
    4466:	240c      	movne	r4, #12
    4468:	e01c      	b.n	44a4 <MMC_disk_initialize+0xe4>
    446a:	20e9      	movs	r0, #233
    446c:	4621      	mov	r1, r4
    446e:	f7ff fdf7 	bl	4060 <send_cmd>
    4472:	2801      	cmp	r0, #1
    4474:	bf8c      	ite	hi
    4476:	2541      	movhi	r5, #65
    4478:	25e9      	movls	r5, #233
    447a:	bf8c      	ite	hi
    447c:	2401      	movhi	r4, #1
    447e:	2402      	movls	r4, #2
    4480:	4e13      	ldr	r6, [pc, #76]	(44d0 <MMC_disk_initialize+0x110>)
    4482:	6833      	ldr	r3, [r6, #0]
    4484:	b12b      	cbz	r3, 4492 <MMC_disk_initialize+0xd2>
    4486:	4628      	mov	r0, r5
    4488:	2100      	movs	r1, #0
    448a:	f7ff fde9 	bl	4060 <send_cmd>
    448e:	2800      	cmp	r0, #0
    4490:	d1f6      	bne.n	4480 <MMC_disk_initialize+0xc0>
    4492:	6833      	ldr	r3, [r6, #0]
    4494:	b12b      	cbz	r3, 44a2 <MMC_disk_initialize+0xe2>
    4496:	2050      	movs	r0, #80
    4498:	f44f 7100 	mov.w	r1, #512	; 0x200
    449c:	f7ff fde0 	bl	4060 <send_cmd>
    44a0:	b100      	cbz	r0, 44a4 <MMC_disk_initialize+0xe4>
    44a2:	2400      	movs	r4, #0
    44a4:	4b0b      	ldr	r3, [pc, #44]	(44d4 <MMC_disk_initialize+0x114>)
    44a6:	701c      	strb	r4, [r3, #0]
    44a8:	f7ff fdc2 	bl	4030 <release_spi>
    44ac:	b144      	cbz	r4, 44c0 <MMC_disk_initialize+0x100>
    44ae:	4a07      	ldr	r2, [pc, #28]	(44cc <MMC_disk_initialize+0x10c>)
    44b0:	2001      	movs	r0, #1
    44b2:	6813      	ldr	r3, [r2, #0]
    44b4:	f023 0301 	bic.w	r3, r3, #1	; 0x1
    44b8:	6013      	str	r3, [r2, #0]
    44ba:	f7ff fea5 	bl	4208 <spi_set_speed>
    44be:	e001      	b.n	44c4 <MMC_disk_initialize+0x104>
    44c0:	f7ff ff66 	bl	4390 <power_off>
    44c4:	4b01      	ldr	r3, [pc, #4]	(44cc <MMC_disk_initialize+0x10c>)
    44c6:	6818      	ldr	r0, [r3, #0]
    44c8:	bd7c      	pop	{r2, r3, r4, r5, r6, pc}
    44ca:	46c0      	nop			(mov r8, r8)
    44cc:	10000004 	.word	0x10000004
    44d0:	1000043c 	.word	0x1000043c
    44d4:	10000444 	.word	0x10000444

000044d8 <MMC_disk_ioctl>:
    44d8:	2804      	cmp	r0, #4
    44da:	b57f      	push	{r0, r1, r2, r3, r4, r5, r6, lr}
    44dc:	460d      	mov	r5, r1
    44de:	d116      	bne.n	450e <MMC_disk_ioctl+0x36>
    44e0:	780b      	ldrb	r3, [r1, #0]
    44e2:	2b01      	cmp	r3, #1
    44e4:	d00b      	beq.n	44fe <MMC_disk_ioctl+0x26>
    44e6:	d302      	bcc.n	44ee <MMC_disk_ioctl+0x16>
    44e8:	2b02      	cmp	r3, #2
    44ea:	d00b      	beq.n	4504 <MMC_disk_ioctl+0x2c>
    44ec:	e002      	b.n	44f4 <MMC_disk_ioctl+0x1c>
    44ee:	4b76      	ldr	r3, [pc, #472]	(46c8 <MMC_disk_ioctl+0x1f0>)
    44f0:	7818      	ldrb	r0, [r3, #0]
    44f2:	b908      	cbnz	r0, 44f8 <MMC_disk_ioctl+0x20>
    44f4:	4604      	mov	r4, r0
    44f6:	e0e3      	b.n	46c0 <MMC_disk_ioctl+0x1e8>
    44f8:	f7ff ff4a 	bl	4390 <power_off>
    44fc:	e005      	b.n	450a <MMC_disk_ioctl+0x32>
    44fe:	f7ff fe93 	bl	4228 <power_on>
    4502:	e002      	b.n	450a <MMC_disk_ioctl+0x32>
    4504:	4b70      	ldr	r3, [pc, #448]	(46c8 <MMC_disk_ioctl+0x1f0>)
    4506:	781b      	ldrb	r3, [r3, #0]
    4508:	704b      	strb	r3, [r1, #1]
    450a:	2400      	movs	r4, #0
    450c:	e0d8      	b.n	46c0 <MMC_disk_ioctl+0x1e8>
    450e:	4b6f      	ldr	r3, [pc, #444]	(46cc <MMC_disk_ioctl+0x1f4>)
    4510:	681b      	ldr	r3, [r3, #0]
    4512:	f013 0f01 	tst.w	r3, #1	; 0x1
    4516:	d001      	beq.n	451c <MMC_disk_ioctl+0x44>
    4518:	2003      	movs	r0, #3
    451a:	e0d2      	b.n	46c2 <MMC_disk_ioctl+0x1ea>
    451c:	280e      	cmp	r0, #14
    451e:	d809      	bhi.n	4534 <MMC_disk_ioctl+0x5c>
    4520:	e8df f000 	tbb	[pc, r0]
    4524:	514d120a 	.word	0x514d120a
    4528:	08080808 	.word	0x08080808
    452c:	a6a20808 	.word	0xa6a20808
    4530:	00bdb0a8 	.word	0x00bdb0a8
    4534:	2404      	movs	r4, #4
    4536:	e0c1      	b.n	46bc <MMC_disk_ioctl+0x1e4>
    4538:	f7ff fd8c 	bl	4054 <select_card>
    453c:	f7ff fc9e 	bl	3e7c <wait_ready>
    4540:	28ff      	cmp	r0, #255
    4542:	f000 80b8 	beq.w	46b6 <MMC_disk_ioctl+0x1de>
    4546:	e0b8      	b.n	46ba <MMC_disk_ioctl+0x1e2>
    4548:	2049      	movs	r0, #73
    454a:	2100      	movs	r1, #0
    454c:	f7ff fd88 	bl	4060 <send_cmd>
    4550:	4604      	mov	r4, r0
    4552:	2800      	cmp	r0, #0
    4554:	f040 80b1 	bne.w	46ba <MMC_disk_ioctl+0x1e2>
    4558:	4668      	mov	r0, sp
    455a:	2110      	movs	r1, #16
    455c:	f7ff fca0 	bl	3ea0 <rcvr_datablock>
    4560:	2800      	cmp	r0, #0
    4562:	f000 80aa 	beq.w	46ba <MMC_disk_ioctl+0x1e2>
    4566:	f89d 3000 	ldrb.w	r3, [sp]
    456a:	f89d 1009 	ldrb.w	r1, [sp, #9]
    456e:	099b      	lsrs	r3, r3, #6
    4570:	2b01      	cmp	r3, #1
    4572:	f89d 0008 	ldrb.w	r0, [sp, #8]
    4576:	d105      	bne.n	4584 <MMC_disk_ioctl+0xac>
    4578:	1c4b      	adds	r3, r1, #1
    457a:	eb03 2300 	add.w	r3, r3, r0, lsl #8
    457e:	b29b      	uxth	r3, r3
    4580:	029b      	lsls	r3, r3, #10
    4582:	e03f      	b.n	4604 <MMC_disk_ioctl+0x12c>
    4584:	f89d 2007 	ldrb.w	r2, [sp, #7]
    4588:	f89d 3006 	ldrb.w	r3, [sp, #6]
    458c:	0092      	lsls	r2, r2, #2
    458e:	eb02 1290 	add.w	r2, r2, r0, lsr #6
    4592:	f003 0303 	and.w	r3, r3, #3	; 0x3
    4596:	3201      	adds	r2, #1
    4598:	eb02 2283 	add.w	r2, r2, r3, lsl #10
    459c:	f89d 3005 	ldrb.w	r3, [sp, #5]
    45a0:	f001 0103 	and.w	r1, r1, #3	; 0x3
    45a4:	f003 030f 	and.w	r3, r3, #15	; 0xf
    45a8:	3302      	adds	r3, #2
    45aa:	eb03 0341 	add.w	r3, r3, r1, lsl #1
    45ae:	f89d 100a 	ldrb.w	r1, [sp, #10]
    45b2:	eb03 13d1 	add.w	r3, r3, r1, lsr #7
    45b6:	3b09      	subs	r3, #9
    45b8:	409a      	lsls	r2, r3
    45ba:	602a      	str	r2, [r5, #0]
    45bc:	e07e      	b.n	46bc <MMC_disk_ioctl+0x1e4>
    45be:	f44f 7300 	mov.w	r3, #512	; 0x200
    45c2:	800b      	strh	r3, [r1, #0]
    45c4:	e077      	b.n	46b6 <MMC_disk_ioctl+0x1de>
    45c6:	4c42      	ldr	r4, [pc, #264]	(46d0 <MMC_disk_ioctl+0x1f8>)
    45c8:	7823      	ldrb	r3, [r4, #0]
    45ca:	f013 0104 	ands.w	r1, r3, #4	; 0x4
    45ce:	d01b      	beq.n	4608 <MMC_disk_ioctl+0x130>
    45d0:	20cd      	movs	r0, #205
    45d2:	2100      	movs	r1, #0
    45d4:	f7ff fd44 	bl	4060 <send_cmd>
    45d8:	2800      	cmp	r0, #0
    45da:	d16e      	bne.n	46ba <MMC_disk_ioctl+0x1e2>
    45dc:	f7ff fc48 	bl	3e70 <rcvr_spi>
    45e0:	4668      	mov	r0, sp
    45e2:	2110      	movs	r1, #16
    45e4:	f7ff fc5c 	bl	3ea0 <rcvr_datablock>
    45e8:	2800      	cmp	r0, #0
    45ea:	d066      	beq.n	46ba <MMC_disk_ioctl+0x1e2>
    45ec:	2430      	movs	r4, #48
    45ee:	f7ff fc3f 	bl	3e70 <rcvr_spi>
    45f2:	1e63      	subs	r3, r4, #1
    45f4:	b2dc      	uxtb	r4, r3
    45f6:	2c00      	cmp	r4, #0
    45f8:	d1f9      	bne.n	45ee <MMC_disk_ioctl+0x116>
    45fa:	f89d 200a 	ldrb.w	r2, [sp, #10]
    45fe:	2310      	movs	r3, #16
    4600:	0912      	lsrs	r2, r2, #4
    4602:	4093      	lsls	r3, r2
    4604:	602b      	str	r3, [r5, #0]
    4606:	e059      	b.n	46bc <MMC_disk_ioctl+0x1e4>
    4608:	2049      	movs	r0, #73
    460a:	f7ff fd29 	bl	4060 <send_cmd>
    460e:	4606      	mov	r6, r0
    4610:	2800      	cmp	r0, #0
    4612:	d152      	bne.n	46ba <MMC_disk_ioctl+0x1e2>
    4614:	4668      	mov	r0, sp
    4616:	2110      	movs	r1, #16
    4618:	f7ff fc42 	bl	3ea0 <rcvr_datablock>
    461c:	2800      	cmp	r0, #0
    461e:	d04c      	beq.n	46ba <MMC_disk_ioctl+0x1e2>
    4620:	7823      	ldrb	r3, [r4, #0]
    4622:	f89d 200b 	ldrb.w	r2, [sp, #11]
    4626:	f013 0002 	ands.w	r0, r3, #2	; 0x2
    462a:	f89d 300a 	ldrb.w	r3, [sp, #10]
    462e:	d00d      	beq.n	464c <MMC_disk_ioctl+0x174>
    4630:	f003 033f 	and.w	r3, r3, #63	; 0x3f
    4634:	09d2      	lsrs	r2, r2, #7
    4636:	eb02 0243 	add.w	r2, r2, r3, lsl #1
    463a:	f89d 300d 	ldrb.w	r3, [sp, #13]
    463e:	3201      	adds	r2, #1
    4640:	099b      	lsrs	r3, r3, #6
    4642:	3b01      	subs	r3, #1
    4644:	409a      	lsls	r2, r3
    4646:	4634      	mov	r4, r6
    4648:	602a      	str	r2, [r5, #0]
    464a:	e037      	b.n	46bc <MMC_disk_ioctl+0x1e4>
    464c:	f002 0103 	and.w	r1, r2, #3	; 0x3
    4650:	0952      	lsrs	r2, r2, #5
    4652:	f3c3 0384 	ubfx	r3, r3, #2, #5
    4656:	eb02 02c1 	add.w	r2, r2, r1, lsl #3
    465a:	3301      	adds	r3, #1
    465c:	3201      	adds	r2, #1
    465e:	fb02 f203 	mul.w	r2, r2, r3
    4662:	4604      	mov	r4, r0
    4664:	602a      	str	r2, [r5, #0]
    4666:	e029      	b.n	46bc <MMC_disk_ioctl+0x1e4>
    4668:	4b19      	ldr	r3, [pc, #100]	(46d0 <MMC_disk_ioctl+0x1f8>)
    466a:	781b      	ldrb	r3, [r3, #0]
    466c:	700b      	strb	r3, [r1, #0]
    466e:	e022      	b.n	46b6 <MMC_disk_ioctl+0x1de>
    4670:	2049      	movs	r0, #73
    4672:	e000      	b.n	4676 <MMC_disk_ioctl+0x19e>
    4674:	204a      	movs	r0, #74
    4676:	2100      	movs	r1, #0
    4678:	f7ff fcf2 	bl	4060 <send_cmd>
    467c:	b9e8      	cbnz	r0, 46ba <MMC_disk_ioctl+0x1e2>
    467e:	4628      	mov	r0, r5
    4680:	2110      	movs	r1, #16
    4682:	e015      	b.n	46b0 <MMC_disk_ioctl+0x1d8>
    4684:	207a      	movs	r0, #122
    4686:	2100      	movs	r1, #0
    4688:	f7ff fcea 	bl	4060 <send_cmd>
    468c:	b9a8      	cbnz	r0, 46ba <MMC_disk_ioctl+0x1e2>
    468e:	4604      	mov	r4, r0
    4690:	f7ff fbee 	bl	3e70 <rcvr_spi>
    4694:	5560      	strb	r0, [r4, r5]
    4696:	3401      	adds	r4, #1
    4698:	2c04      	cmp	r4, #4
    469a:	d1f9      	bne.n	4690 <MMC_disk_ioctl+0x1b8>
    469c:	e00b      	b.n	46b6 <MMC_disk_ioctl+0x1de>
    469e:	20cd      	movs	r0, #205
    46a0:	2100      	movs	r1, #0
    46a2:	f7ff fcdd 	bl	4060 <send_cmd>
    46a6:	b940      	cbnz	r0, 46ba <MMC_disk_ioctl+0x1e2>
    46a8:	f7ff fbe2 	bl	3e70 <rcvr_spi>
    46ac:	4628      	mov	r0, r5
    46ae:	2140      	movs	r1, #64
    46b0:	f7ff fbf6 	bl	3ea0 <rcvr_datablock>
    46b4:	b108      	cbz	r0, 46ba <MMC_disk_ioctl+0x1e2>
    46b6:	2400      	movs	r4, #0
    46b8:	e000      	b.n	46bc <MMC_disk_ioctl+0x1e4>
    46ba:	2401      	movs	r4, #1
    46bc:	f7ff fcb8 	bl	4030 <release_spi>
    46c0:	4620      	mov	r0, r4
    46c2:	b004      	add	sp, #16
    46c4:	bd70      	pop	{r4, r5, r6, pc}
    46c6:	46c0      	nop			(mov r8, r8)
    46c8:	10000445 	.word	0x10000445
    46cc:	10000004 	.word	0x10000004
    46d0:	10000444 	.word	0x10000444

000046d4 <get_fattime>:
    46d4:	b500      	push	{lr}
    46d6:	b089      	sub	sp, #36
    46d8:	4668      	mov	r0, sp
    46da:	f7fc ff55 	bl	1588 <rtc_cal_gettime>
    46de:	9b06      	ldr	r3, [sp, #24]
    46e0:	9a03      	ldr	r2, [sp, #12]
    46e2:	055b      	lsls	r3, r3, #21
    46e4:	ea43 4302 	orr.w	r3, r3, r2, lsl #16
    46e8:	9a02      	ldr	r2, [sp, #8]
    46ea:	9807      	ldr	r0, [sp, #28]
    46ec:	ea43 23c2 	orr.w	r3, r3, r2, lsl #11
    46f0:	9a01      	ldr	r2, [sp, #4]
    46f2:	f5a0 60f6 	sub.w	r0, r0, #1968	; 0x7b0
    46f6:	ea43 1342 	orr.w	r3, r3, r2, lsl #5
    46fa:	9a00      	ldr	r2, [sp, #0]
    46fc:	380c      	subs	r0, #12
    46fe:	ea43 0352 	orr.w	r3, r3, r2, lsr #1
    4702:	ea43 6040 	orr.w	r0, r3, r0, lsl #25
    4706:	b009      	add	sp, #36
    4708:	bd00      	pop	{pc}
    470a:	46c0      	nop			(mov r8, r8)

0000470c <SystemInit>:
    470c:	4b33      	ldr	r3, [pc, #204]	(47dc <SystemInit+0xd0>)
    470e:	2220      	movs	r2, #32
    4710:	f8c3 21a0 	str.w	r2, [r3, #416]
    4714:	4831      	ldr	r0, [pc, #196]	(47dc <SystemInit+0xd0>)
    4716:	f8d0 31a0 	ldr.w	r3, [r0, #416]
    471a:	f013 0f40 	tst.w	r3, #64	; 0x40
    471e:	d0f9      	beq.n	4714 <SystemInit+0x8>
    4720:	2303      	movs	r3, #3
    4722:	f8c0 3104 	str.w	r3, [r0, #260]
    4726:	2300      	movs	r3, #0
    4728:	f8c0 31a8 	str.w	r3, [r0, #424]
    472c:	f8c0 31ac 	str.w	r3, [r0, #428]
    4730:	4b2b      	ldr	r3, [pc, #172]	(47e0 <SystemInit+0xd4>)
    4732:	2101      	movs	r1, #1
    4734:	f8c0 110c 	str.w	r1, [r0, #268]
    4738:	22aa      	movs	r2, #170
    473a:	f8c0 3084 	str.w	r3, [r0, #132]
    473e:	2355      	movs	r3, #85
    4740:	f8c0 208c 	str.w	r2, [r0, #140]
    4744:	f8c0 308c 	str.w	r3, [r0, #140]
    4748:	f8c0 1080 	str.w	r1, [r0, #128]
    474c:	f8c0 208c 	str.w	r2, [r0, #140]
    4750:	f8c0 308c 	str.w	r3, [r0, #140]
    4754:	4a21      	ldr	r2, [pc, #132]	(47dc <SystemInit+0xd0>)
    4756:	f8d2 3088 	ldr.w	r3, [r2, #136]
    475a:	f013 6f80 	tst.w	r3, #67108864	; 0x4000000
    475e:	d0f9      	beq.n	4754 <SystemInit+0x48>
    4760:	2303      	movs	r3, #3
    4762:	f8c2 3080 	str.w	r3, [r2, #128]
    4766:	33a7      	adds	r3, #167
    4768:	f8c2 308c 	str.w	r3, [r2, #140]
    476c:	2355      	movs	r3, #85
    476e:	f8c2 308c 	str.w	r3, [r2, #140]
    4772:	481a      	ldr	r0, [pc, #104]	(47dc <SystemInit+0xd0>)
    4774:	f8d0 3088 	ldr.w	r3, [r0, #136]
    4778:	f013 7f40 	tst.w	r3, #50331648	; 0x3000000
    477c:	d0f9      	beq.n	4772 <SystemInit+0x66>
    477e:	2323      	movs	r3, #35
    4780:	f8c0 30a4 	str.w	r3, [r0, #164]
    4784:	21aa      	movs	r1, #170
    4786:	2255      	movs	r2, #85
    4788:	2301      	movs	r3, #1
    478a:	f8c0 10ac 	str.w	r1, [r0, #172]
    478e:	f8c0 20ac 	str.w	r2, [r0, #172]
    4792:	f8c0 30a0 	str.w	r3, [r0, #160]
    4796:	f8c0 10ac 	str.w	r1, [r0, #172]
    479a:	f8c0 20ac 	str.w	r2, [r0, #172]
    479e:	4a0f      	ldr	r2, [pc, #60]	(47dc <SystemInit+0xd0>)
    47a0:	f8d2 30a8 	ldr.w	r3, [r2, #168]
    47a4:	f413 6f80 	tst.w	r3, #1024	; 0x400
    47a8:	d0f9      	beq.n	479e <SystemInit+0x92>
    47aa:	2303      	movs	r3, #3
    47ac:	f8c2 30a0 	str.w	r3, [r2, #160]
    47b0:	33a7      	adds	r3, #167
    47b2:	f8c2 30ac 	str.w	r3, [r2, #172]
    47b6:	2355      	movs	r3, #85
    47b8:	f8c2 30ac 	str.w	r3, [r2, #172]
    47bc:	4a07      	ldr	r2, [pc, #28]	(47dc <SystemInit+0xd0>)
    47be:	f8d2 30a8 	ldr.w	r3, [r2, #168]
    47c2:	f413 7f40 	tst.w	r3, #768	; 0x300
    47c6:	d0f9      	beq.n	47bc <SystemInit+0xb0>
    47c8:	4b06      	ldr	r3, [pc, #24]	(47e4 <SystemInit+0xd8>)
    47ca:	f8c2 30c4 	str.w	r3, [r2, #196]
    47ce:	2300      	movs	r3, #0
    47d0:	f8c2 31c8 	str.w	r3, [r2, #456]
    47d4:	f243 033a 	movw	r3, #12346	; 0x303a
    47d8:	6013      	str	r3, [r2, #0]
    47da:	4770      	bx	lr
    47dc:	400fc000 	.word	0x400fc000
    47e0:	00050063 	.word	0x00050063
    47e4:	042887de 	.word	0x042887de

000047e8 <NVIC_DeInit>:
    47e8:	4b0a      	ldr	r3, [pc, #40]	(4814 <NVIC_DeInit+0x2c>)
    47ea:	f04f 31ff 	mov.w	r1, #4294967295	; 0xffffffff
    47ee:	2201      	movs	r2, #1
    47f0:	f8c3 1080 	str.w	r1, [r3, #128]
    47f4:	f8c3 2084 	str.w	r2, [r3, #132]
    47f8:	f8c3 1180 	str.w	r1, [r3, #384]
    47fc:	f8c3 2184 	str.w	r2, [r3, #388]
    4800:	1889      	adds	r1, r1, r2
    4802:	4b04      	ldr	r3, [pc, #16]	(4814 <NVIC_DeInit+0x2c>)
    4804:	2200      	movs	r2, #0
    4806:	18cb      	adds	r3, r1, r3
    4808:	3101      	adds	r1, #1
    480a:	2920      	cmp	r1, #32
    480c:	f883 2300 	strb.w	r2, [r3, #768]
    4810:	d1f7      	bne.n	4802 <NVIC_DeInit+0x1a>
    4812:	4770      	bx	lr
    4814:	e000e100 	.word	0xe000e100

00004818 <NVIC_SCBDeInit>:
    4818:	490b      	ldr	r1, [pc, #44]	(4848 <NVIC_SCBDeInit+0x30>)
    481a:	f04f 6320 	mov.w	r3, #167772160	; 0xa000000
    481e:	604b      	str	r3, [r1, #4]
    4820:	4b0a      	ldr	r3, [pc, #40]	(484c <NVIC_SCBDeInit+0x34>)
    4822:	2200      	movs	r2, #0
    4824:	608a      	str	r2, [r1, #8]
    4826:	60cb      	str	r3, [r1, #12]
    4828:	610a      	str	r2, [r1, #16]
    482a:	614a      	str	r2, [r1, #20]
    482c:	4906      	ldr	r1, [pc, #24]	(4848 <NVIC_SCBDeInit+0x30>)
    482e:	2000      	movs	r0, #0
    4830:	1853      	adds	r3, r2, r1
    4832:	3201      	adds	r2, #1
    4834:	2a20      	cmp	r2, #32
    4836:	7618      	strb	r0, [r3, #24]
    4838:	d1f8      	bne.n	482c <NVIC_SCBDeInit+0x14>
    483a:	f04f 33ff 	mov.w	r3, #4294967295	; 0xffffffff
    483e:	6248      	str	r0, [r1, #36]
    4840:	628b      	str	r3, [r1, #40]
    4842:	62cb      	str	r3, [r1, #44]
    4844:	630b      	str	r3, [r1, #48]
    4846:	4770      	bx	lr
    4848:	e000ed00 	.word	0xe000ed00
    484c:	05fa0000 	.word	0x05fa0000

00004850 <NVIC_SetVTOR>:
    4850:	f020 4040 	bic.w	r0, r0, #3221225472	; 0xc0000000
    4854:	4b02      	ldr	r3, [pc, #8]	(4860 <NVIC_SetVTOR+0x10>)
    4856:	f020 007f 	bic.w	r0, r0, #127	; 0x7f
    485a:	6098      	str	r0, [r3, #8]
    485c:	4770      	bx	lr
    485e:	46c0      	nop			(mov r8, r8)
    4860:	e000ed00 	.word	0xe000ed00

00004864 <CLKPWR_SetPCLKDiv>:
    4864:	281f      	cmp	r0, #31
    4866:	b500      	push	{lr}
    4868:	468c      	mov	ip, r1
    486a:	4686      	mov	lr, r0
    486c:	d912      	bls.n	4894 <CLKPWR_SetPCLKDiv+0x30>
    486e:	f1ae 0220 	sub.w	r2, lr, #32	; 0x20
    4872:	2303      	movs	r3, #3
    4874:	4093      	lsls	r3, r2
    4876:	fa0c f202 	lsl.w	r2, ip, r2
    487a:	480f      	ldr	r0, [pc, #60]	(48b8 <CLKPWR_SetPCLKDiv+0x54>)
    487c:	f8d0 11ac 	ldr.w	r1, [r0, #428]
    4880:	ea21 0103 	bic.w	r1, r1, r3
    4884:	f8c0 11ac 	str.w	r1, [r0, #428]
    4888:	f8d0 31ac 	ldr.w	r3, [r0, #428]
    488c:	431a      	orrs	r2, r3
    488e:	f8c0 21ac 	str.w	r2, [r0, #428]
    4892:	e010      	b.n	48b6 <CLKPWR_SetPCLKDiv+0x52>
    4894:	2303      	movs	r3, #3
    4896:	fa03 f300 	lsl.w	r3, r3, r0
    489a:	4907      	ldr	r1, [pc, #28]	(48b8 <CLKPWR_SetPCLKDiv+0x54>)
    489c:	f8d1 21a8 	ldr.w	r2, [r1, #424]
    48a0:	ea22 0203 	bic.w	r2, r2, r3
    48a4:	fa0c f300 	lsl.w	r3, ip, r0
    48a8:	f8c1 21a8 	str.w	r2, [r1, #424]
    48ac:	f8d1 21a8 	ldr.w	r2, [r1, #424]
    48b0:	4313      	orrs	r3, r2
    48b2:	f8c1 31a8 	str.w	r3, [r1, #424]
    48b6:	bd00      	pop	{pc}
    48b8:	400fc000 	.word	0x400fc000

000048bc <CLKPWR_GetPCLKSEL>:
    48bc:	281f      	cmp	r0, #31
    48be:	d803      	bhi.n	48c8 <CLKPWR_GetPCLKSEL+0xc>
    48c0:	4b06      	ldr	r3, [pc, #24]	(48dc <CLKPWR_GetPCLKSEL+0x20>)
    48c2:	f8d3 31a8 	ldr.w	r3, [r3, #424]
    48c6:	e003      	b.n	48d0 <CLKPWR_GetPCLKSEL+0x14>
    48c8:	4b04      	ldr	r3, [pc, #16]	(48dc <CLKPWR_GetPCLKSEL+0x20>)
    48ca:	3820      	subs	r0, #32
    48cc:	f8d3 31ac 	ldr.w	r3, [r3, #428]
    48d0:	fa33 f000 	lsrs.w	r0, r3, r0
    48d4:	f000 0003 	and.w	r0, r0, #3	; 0x3
    48d8:	4770      	bx	lr
    48da:	46c0      	nop			(mov r8, r8)
    48dc:	400fc000 	.word	0x400fc000

000048e0 <CLKPWR_GetPCLK>:
    48e0:	4b07      	ldr	r3, [pc, #28]	(4900 <CLKPWR_GetPCLK+0x20>)
    48e2:	b510      	push	{r4, lr}
    48e4:	681c      	ldr	r4, [r3, #0]
    48e6:	f7ff ffe9 	bl	48bc <CLKPWR_GetPCLKSEL>
    48ea:	4603      	mov	r3, r0
    48ec:	b118      	cbz	r0, 48f6 <CLKPWR_GetPCLK+0x16>
    48ee:	2803      	cmp	r0, #3
    48f0:	d102      	bne.n	48f8 <CLKPWR_GetPCLK+0x18>
    48f2:	1d43      	adds	r3, r0, #5
    48f4:	e000      	b.n	48f8 <CLKPWR_GetPCLK+0x18>
    48f6:	2304      	movs	r3, #4
    48f8:	fbb4 f0f3 	udiv	r0, r4, r3
    48fc:	bd10      	pop	{r4, pc}
    48fe:	46c0      	nop			(mov r8, r8)
    4900:	10000008 	.word	0x10000008

00004904 <CLKPWR_ConfigPPWR>:
    4904:	2901      	cmp	r1, #1
    4906:	d107      	bne.n	4918 <CLKPWR_ConfigPPWR+0x14>
    4908:	4909      	ldr	r1, [pc, #36]	(4930 <CLKPWR_ConfigPPWR+0x2c>)
    490a:	4b0a      	ldr	r3, [pc, #40]	(4934 <CLKPWR_ConfigPPWR+0x30>)
    490c:	f8d1 20c4 	ldr.w	r2, [r1, #196]
    4910:	ea00 0303 	and.w	r3, r0, r3
    4914:	4313      	orrs	r3, r2
    4916:	e008      	b.n	492a <CLKPWR_ConfigPPWR+0x26>
    4918:	b949      	cbnz	r1, 492e <CLKPWR_ConfigPPWR+0x2a>
    491a:	4905      	ldr	r1, [pc, #20]	(4930 <CLKPWR_ConfigPPWR+0x2c>)
    491c:	4b05      	ldr	r3, [pc, #20]	(4934 <CLKPWR_ConfigPPWR+0x30>)
    491e:	f8d1 20c4 	ldr.w	r2, [r1, #196]
    4922:	ea02 0303 	and.w	r3, r2, r3
    4926:	ea23 0300 	bic.w	r3, r3, r0
    492a:	f8c1 30c4 	str.w	r3, [r1, #196]
    492e:	4770      	bx	lr
    4930:	400fc000 	.word	0x400fc000
    4934:	efeff7de 	.word	0xefeff7de

00004938 <PINSEL_SetPinFunc>:
    4938:	290f      	cmp	r1, #15
    493a:	b500      	push	{lr}
    493c:	4694      	mov	ip, r2
    493e:	ea4f 0e40 	mov.w	lr, r0, lsl #1
    4942:	d902      	bls.n	494a <PINSEL_SetPinFunc+0x12>
    4944:	3910      	subs	r1, #16
    4946:	f10e 0e01 	add.w	lr, lr, #1	; 0x1
    494a:	0049      	lsls	r1, r1, #1
    494c:	2303      	movs	r3, #3
    494e:	408b      	lsls	r3, r1
    4950:	fa0c f101 	lsl.w	r1, ip, r1
    4954:	4806      	ldr	r0, [pc, #24]	(4970 <PINSEL_SetPinFunc+0x38>)
    4956:	f850 202e 	ldr.w	r2, [r0, lr, lsl #2]
    495a:	ea22 0203 	bic.w	r2, r2, r3
    495e:	f840 202e 	str.w	r2, [r0, lr, lsl #2]
    4962:	f850 302e 	ldr.w	r3, [r0, lr, lsl #2]
    4966:	430b      	orrs	r3, r1
    4968:	f840 302e 	str.w	r3, [r0, lr, lsl #2]
    496c:	bd00      	pop	{pc}
    496e:	46c0      	nop			(mov r8, r8)
    4970:	4002c000 	.word	0x4002c000

00004974 <PINSEL_SetResistorMode>:
    4974:	290f      	cmp	r1, #15
    4976:	b500      	push	{lr}
    4978:	4694      	mov	ip, r2
    497a:	ea4f 0e40 	mov.w	lr, r0, lsl #1
    497e:	d902      	bls.n	4986 <PINSEL_SetResistorMode+0x12>
    4980:	3910      	subs	r1, #16
    4982:	f10e 0e01 	add.w	lr, lr, #1	; 0x1
    4986:	0049      	lsls	r1, r1, #1
    4988:	2303      	movs	r3, #3
    498a:	408b      	lsls	r3, r1
    498c:	fa0c f101 	lsl.w	r1, ip, r1
    4990:	4806      	ldr	r0, [pc, #24]	(49ac <PINSEL_SetResistorMode+0x38>)
    4992:	f850 202e 	ldr.w	r2, [r0, lr, lsl #2]
    4996:	ea22 0203 	bic.w	r2, r2, r3
    499a:	f840 202e 	str.w	r2, [r0, lr, lsl #2]
    499e:	f850 302e 	ldr.w	r3, [r0, lr, lsl #2]
    49a2:	430b      	orrs	r3, r1
    49a4:	f840 302e 	str.w	r3, [r0, lr, lsl #2]
    49a8:	bd00      	pop	{pc}
    49aa:	46c0      	nop			(mov r8, r8)
    49ac:	4002c040 	.word	0x4002c040

000049b0 <PINSEL_SetOpenDrainMode>:
    49b0:	2a01      	cmp	r2, #1
    49b2:	b500      	push	{lr}
    49b4:	468e      	mov	lr, r1
    49b6:	4611      	mov	r1, r2
    49b8:	d108      	bne.n	49cc <PINSEL_SetOpenDrainMode+0x1c>
    49ba:	fa01 f10e 	lsl.w	r1, r1, lr
    49be:	4b09      	ldr	r3, [pc, #36]	(49e4 <PINSEL_SetOpenDrainMode+0x34>)
    49c0:	f853 2020 	ldr.w	r2, [r3, r0, lsl #2]
    49c4:	430a      	orrs	r2, r1
    49c6:	f843 2020 	str.w	r2, [r3, r0, lsl #2]
    49ca:	e009      	b.n	49e0 <PINSEL_SetOpenDrainMode+0x30>
    49cc:	2301      	movs	r3, #1
    49ce:	fa03 f30e 	lsl.w	r3, r3, lr
    49d2:	4904      	ldr	r1, [pc, #16]	(49e4 <PINSEL_SetOpenDrainMode+0x34>)
    49d4:	f851 2020 	ldr.w	r2, [r1, r0, lsl #2]
    49d8:	ea22 0203 	bic.w	r2, r2, r3
    49dc:	f841 2020 	str.w	r2, [r1, r0, lsl #2]
    49e0:	bd00      	pop	{pc}
    49e2:	46c0      	nop			(mov r8, r8)
    49e4:	4002c068 	.word	0x4002c068

000049e8 <PINSEL_ConfigPin>:
    49e8:	b510      	push	{r4, lr}
    49ea:	4604      	mov	r4, r0
    49ec:	7861      	ldrb	r1, [r4, #1]
    49ee:	78a2      	ldrb	r2, [r4, #2]
    49f0:	7800      	ldrb	r0, [r0, #0]
    49f2:	f7ff ffa1 	bl	4938 <PINSEL_SetPinFunc>
    49f6:	7820      	ldrb	r0, [r4, #0]
    49f8:	7861      	ldrb	r1, [r4, #1]
    49fa:	78e2      	ldrb	r2, [r4, #3]
    49fc:	f7ff ffba 	bl	4974 <PINSEL_SetResistorMode>
    4a00:	7820      	ldrb	r0, [r4, #0]
    4a02:	7861      	ldrb	r1, [r4, #1]
    4a04:	7922      	ldrb	r2, [r4, #4]
    4a06:	f7ff ffd3 	bl	49b0 <PINSEL_SetOpenDrainMode>
    4a0a:	bd10      	pop	{r4, pc}

00004a0c <GPIO_GetPointer>:
    4a0c:	2804      	cmp	r0, #4
    4a0e:	d806      	bhi.n	4a1e <GPIO_GetPointer+0x12>
    4a10:	e8df f000 	tbb	[pc, r0]
    4a14:	0d0b0907 	.word	0x0d0b0907
    4a18:	0003      	.short	0x0003
    4a1a:	4806      	ldr	r0, [pc, #24]	(4a34 <GPIO_GetPointer+0x28>)
    4a1c:	e008      	b.n	4a30 <GPIO_GetPointer+0x24>
    4a1e:	2000      	movs	r0, #0
    4a20:	e006      	b.n	4a30 <GPIO_GetPointer+0x24>
    4a22:	4805      	ldr	r0, [pc, #20]	(4a38 <GPIO_GetPointer+0x2c>)
    4a24:	e004      	b.n	4a30 <GPIO_GetPointer+0x24>
    4a26:	4805      	ldr	r0, [pc, #20]	(4a3c <GPIO_GetPointer+0x30>)
    4a28:	e002      	b.n	4a30 <GPIO_GetPointer+0x24>
    4a2a:	4805      	ldr	r0, [pc, #20]	(4a40 <GPIO_GetPointer+0x34>)
    4a2c:	e000      	b.n	4a30 <GPIO_GetPointer+0x24>
    4a2e:	4805      	ldr	r0, [pc, #20]	(4a44 <GPIO_GetPointer+0x38>)
    4a30:	4770      	bx	lr
    4a32:	46c0      	nop			(mov r8, r8)
    4a34:	2009c080 	.word	0x2009c080
    4a38:	2009c000 	.word	0x2009c000
    4a3c:	2009c020 	.word	0x2009c020
    4a40:	2009c040 	.word	0x2009c040
    4a44:	2009c060 	.word	0x2009c060

00004a48 <GPIO_SetDir>:
    4a48:	b570      	push	{r4, r5, r6, lr}
    4a4a:	4614      	mov	r4, r2
    4a4c:	460d      	mov	r5, r1
    4a4e:	f7ff ffdd 	bl	4a0c <GPIO_GetPointer>
    4a52:	4602      	mov	r2, r0
    4a54:	b140      	cbz	r0, 4a68 <GPIO_SetDir+0x20>
    4a56:	b11c      	cbz	r4, 4a60 <GPIO_SetDir+0x18>
    4a58:	6803      	ldr	r3, [r0, #0]
    4a5a:	ea45 0303 	orr.w	r3, r5, r3
    4a5e:	e002      	b.n	4a66 <GPIO_SetDir+0x1e>
    4a60:	6803      	ldr	r3, [r0, #0]
    4a62:	ea23 0305 	bic.w	r3, r3, r5
    4a66:	6013      	str	r3, [r2, #0]
    4a68:	bd70      	pop	{r4, r5, r6, pc}
    4a6a:	46c0      	nop			(mov r8, r8)

00004a6c <GPIO_SetValue>:
    4a6c:	b510      	push	{r4, lr}
    4a6e:	460c      	mov	r4, r1
    4a70:	f7ff ffcc 	bl	4a0c <GPIO_GetPointer>
    4a74:	b100      	cbz	r0, 4a78 <GPIO_SetValue+0xc>
    4a76:	6184      	str	r4, [r0, #24]
    4a78:	bd10      	pop	{r4, pc}
    4a7a:	46c0      	nop			(mov r8, r8)

00004a7c <GPIO_ClearValue>:
    4a7c:	b510      	push	{r4, lr}
    4a7e:	460c      	mov	r4, r1
    4a80:	f7ff ffc4 	bl	4a0c <GPIO_GetPointer>
    4a84:	b100      	cbz	r0, 4a88 <GPIO_ClearValue+0xc>
    4a86:	61c4      	str	r4, [r0, #28]
    4a88:	bd10      	pop	{r4, pc}
    4a8a:	46c0      	nop			(mov r8, r8)

00004a8c <FIO_SetValue>:
    4a8c:	b510      	push	{r4, lr}
    4a8e:	f7ff ffed 	bl	4a6c <GPIO_SetValue>
    4a92:	bd10      	pop	{r4, pc}

00004a94 <FIO_ClearValue>:
    4a94:	b510      	push	{r4, lr}
    4a96:	f7ff fff1 	bl	4a7c <GPIO_ClearValue>
    4a9a:	bd10      	pop	{r4, pc}

00004a9c <getUartNum>:
    4a9c:	4b07      	ldr	r3, [pc, #28]	(4abc <getUartNum+0x20>)
    4a9e:	4298      	cmp	r0, r3
    4aa0:	d101      	bne.n	4aa6 <getUartNum+0xa>
    4aa2:	2000      	movs	r0, #0
    4aa4:	e009      	b.n	4aba <getUartNum+0x1e>
    4aa6:	4b06      	ldr	r3, [pc, #24]	(4ac0 <getUartNum+0x24>)
    4aa8:	4298      	cmp	r0, r3
    4aaa:	d101      	bne.n	4ab0 <getUartNum+0x14>
    4aac:	2001      	movs	r0, #1
    4aae:	e004      	b.n	4aba <getUartNum+0x1e>
    4ab0:	4b04      	ldr	r3, [pc, #16]	(4ac4 <getUartNum+0x28>)
    4ab2:	4298      	cmp	r0, r3
    4ab4:	bf14      	ite	ne
    4ab6:	2003      	movne	r0, #3
    4ab8:	2002      	moveq	r0, #2
    4aba:	4770      	bx	lr
    4abc:	4000c000 	.word	0x4000c000
    4ac0:	40010000 	.word	0x40010000
    4ac4:	40098000 	.word	0x40098000

00004ac8 <UART_GenIntHandler>:
    4ac8:	e92d 41f0 	stmdb	sp!, {r4, r5, r6, r7, r8, lr}
    4acc:	4605      	mov	r5, r0
    4ace:	f7ff ffe5 	bl	4a9c <getUartNum>
    4ad2:	68af      	ldr	r7, [r5, #8]
    4ad4:	2801      	cmp	r0, #1
    4ad6:	4606      	mov	r6, r0
    4ad8:	f007 040e 	and.w	r4, r7, #14	; 0xe
    4adc:	d10b      	bne.n	4af6 <UART_GenIntHandler+0x2e>
    4ade:	b954      	cbnz	r4, 4af6 <UART_GenIntHandler+0x2e>
    4ae0:	4a25      	ldr	r2, [pc, #148]	(4b78 <UART_GenIntHandler+0xb0>)
    4ae2:	7e13      	ldrb	r3, [r2, #24]
    4ae4:	4618      	mov	r0, r3
    4ae6:	4b25      	ldr	r3, [pc, #148]	(4b7c <UART_GenIntHandler+0xb4>)
    4ae8:	681b      	ldr	r3, [r3, #0]
    4aea:	b97b      	cbnz	r3, 4b0c <UART_GenIntHandler+0x44>
    4aec:	6853      	ldr	r3, [r2, #4]
    4aee:	f023 0388 	bic.w	r3, r3, #136	; 0x88
    4af2:	6053      	str	r3, [r2, #4]
    4af4:	e02b      	b.n	4b4e <UART_GenIntHandler+0x86>
    4af6:	2c06      	cmp	r4, #6
    4af8:	d10e      	bne.n	4b18 <UART_GenIntHandler+0x50>
    4afa:	7d2b      	ldrb	r3, [r5, #20]
    4afc:	f013 009e 	ands.w	r0, r3, #158	; 0x9e
    4b00:	d025      	beq.n	4b4e <UART_GenIntHandler+0x86>
    4b02:	4b1f      	ldr	r3, [pc, #124]	(4b80 <UART_GenIntHandler+0xb8>)
    4b04:	eb03 1306 	add.w	r3, r3, r6, lsl #4
    4b08:	68db      	ldr	r3, [r3, #12]
    4b0a:	b10b      	cbz	r3, 4b10 <UART_GenIntHandler+0x48>
    4b0c:	4798      	blx	r3
    4b0e:	e01e      	b.n	4b4e <UART_GenIntHandler+0x86>
    4b10:	686b      	ldr	r3, [r5, #4]
    4b12:	f023 0304 	bic.w	r3, r3, #4	; 0x4
    4b16:	e019      	b.n	4b4c <UART_GenIntHandler+0x84>
    4b18:	2c04      	cmp	r4, #4
    4b1a:	d001      	beq.n	4b20 <UART_GenIntHandler+0x58>
    4b1c:	2c0c      	cmp	r4, #12
    4b1e:	d10a      	bne.n	4b36 <UART_GenIntHandler+0x6e>
    4b20:	4b17      	ldr	r3, [pc, #92]	(4b80 <UART_GenIntHandler+0xb8>)
    4b22:	eb03 1306 	add.w	r3, r3, r6, lsl #4
    4b26:	685b      	ldr	r3, [r3, #4]
    4b28:	b10b      	cbz	r3, 4b2e <UART_GenIntHandler+0x66>
    4b2a:	4798      	blx	r3
    4b2c:	e003      	b.n	4b36 <UART_GenIntHandler+0x6e>
    4b2e:	686b      	ldr	r3, [r5, #4]
    4b30:	f023 0301 	bic.w	r3, r3, #1	; 0x1
    4b34:	606b      	str	r3, [r5, #4]
    4b36:	2c02      	cmp	r4, #2
    4b38:	d109      	bne.n	4b4e <UART_GenIntHandler+0x86>
    4b3a:	4b11      	ldr	r3, [pc, #68]	(4b80 <UART_GenIntHandler+0xb8>)
    4b3c:	0132      	lsls	r2, r6, #4
    4b3e:	58d3      	ldr	r3, [r2, r3]
    4b40:	b10b      	cbz	r3, 4b46 <UART_GenIntHandler+0x7e>
    4b42:	4798      	blx	r3
    4b44:	e003      	b.n	4b4e <UART_GenIntHandler+0x86>
    4b46:	686b      	ldr	r3, [r5, #4]
    4b48:	f023 0302 	bic.w	r3, r3, #2	; 0x2
    4b4c:	606b      	str	r3, [r5, #4]
    4b4e:	f417 7040 	ands.w	r0, r7, #768	; 0x300
    4b52:	d00e      	beq.n	4b72 <UART_GenIntHandler+0xaa>
    4b54:	6a2b      	ldr	r3, [r5, #32]
    4b56:	ea40 0303 	orr.w	r3, r0, r3
    4b5a:	622b      	str	r3, [r5, #32]
    4b5c:	4b08      	ldr	r3, [pc, #32]	(4b80 <UART_GenIntHandler+0xb8>)
    4b5e:	eb03 1306 	add.w	r3, r3, r6, lsl #4
    4b62:	689a      	ldr	r2, [r3, #8]
    4b64:	b10a      	cbz	r2, 4b6a <UART_GenIntHandler+0xa2>
    4b66:	4790      	blx	r2
    4b68:	e003      	b.n	4b72 <UART_GenIntHandler+0xaa>
    4b6a:	686b      	ldr	r3, [r5, #4]
    4b6c:	f423 7340 	bic.w	r3, r3, #768	; 0x300
    4b70:	606b      	str	r3, [r5, #4]
    4b72:	e8bd 81f0 	ldmia.w	sp!, {r4, r5, r6, r7, r8, pc}
    4b76:	46c0      	nop			(mov r8, r8)
    4b78:	40010000 	.word	0x40010000
    4b7c:	1000044c 	.word	0x1000044c
    4b80:	10000450 	.word	0x10000450

00004b84 <UART_ConfigStructInit>:
    4b84:	f44f 5316 	mov.w	r3, #9600	; 0x2580
    4b88:	6003      	str	r3, [r0, #0]
    4b8a:	2303      	movs	r3, #3
    4b8c:	7143      	strb	r3, [r0, #5]
    4b8e:	2300      	movs	r3, #0
    4b90:	7103      	strb	r3, [r0, #4]
    4b92:	7183      	strb	r3, [r0, #6]
    4b94:	4770      	bx	lr
    4b96:	46c0      	nop			(mov r8, r8)

00004b98 <UART_SendData>:
    4b98:	7001      	strb	r1, [r0, #0]
    4b9a:	4770      	bx	lr

00004b9c <UART_ReceiveData>:
    4b9c:	7803      	ldrb	r3, [r0, #0]
    4b9e:	4618      	mov	r0, r3
    4ba0:	4770      	bx	lr
    4ba2:	46c0      	nop			(mov r8, r8)

00004ba4 <UART_IntConfig>:
    4ba4:	3901      	subs	r1, #1
    4ba6:	2905      	cmp	r1, #5
    4ba8:	d807      	bhi.n	4bba <UART_IntConfig+0x16>
    4baa:	e8df f001 	tbb	[pc, r1]
    4bae:	0a08      	.short	0x0a08
    4bb0:	03100e0c 	.word	0x03100e0c
    4bb4:	f44f 7100 	mov.w	r1, #512	; 0x200
    4bb8:	e00b      	b.n	4bd2 <UART_IntConfig+0x2e>
    4bba:	2101      	movs	r1, #1
    4bbc:	e009      	b.n	4bd2 <UART_IntConfig+0x2e>
    4bbe:	2102      	movs	r1, #2
    4bc0:	e007      	b.n	4bd2 <UART_IntConfig+0x2e>
    4bc2:	2104      	movs	r1, #4
    4bc4:	e005      	b.n	4bd2 <UART_IntConfig+0x2e>
    4bc6:	2108      	movs	r1, #8
    4bc8:	e003      	b.n	4bd2 <UART_IntConfig+0x2e>
    4bca:	2180      	movs	r1, #128
    4bcc:	e001      	b.n	4bd2 <UART_IntConfig+0x2e>
    4bce:	f44f 7180 	mov.w	r1, #256	; 0x100
    4bd2:	2a01      	cmp	r2, #1
    4bd4:	d103      	bne.n	4bde <UART_IntConfig+0x3a>
    4bd6:	6843      	ldr	r3, [r0, #4]
    4bd8:	ea41 0303 	orr.w	r3, r1, r3
    4bdc:	e00d      	b.n	4bfa <UART_IntConfig+0x56>
    4bde:	4b08      	ldr	r3, [pc, #32]	(4c00 <UART_IntConfig+0x5c>)
    4be0:	ea6f 0101 	mvn.w	r1, r1
    4be4:	4298      	cmp	r0, r3
    4be6:	bf0b      	itete	eq
    4be8:	6842      	ldreq	r2, [r0, #4]
    4bea:	6842      	ldrne	r2, [r0, #4]
    4bec:	f240 338f 	movweq	r3, #911	; 0x38f
    4bf0:	f240 3307 	movwne	r3, #775	; 0x307
    4bf4:	ea02 0303 	and.w	r3, r2, r3
    4bf8:	400b      	ands	r3, r1
    4bfa:	6043      	str	r3, [r0, #4]
    4bfc:	4770      	bx	lr
    4bfe:	46c0      	nop			(mov r8, r8)
    4c00:	40010000 	.word	0x40010000

00004c04 <UART_CheckBusy>:
    4c04:	7d00      	ldrb	r0, [r0, #20]
    4c06:	f3c0 1080 	ubfx	r0, r0, #6, #1
    4c0a:	f080 0001 	eor.w	r0, r0, #1	; 0x1
    4c0e:	4770      	bx	lr

00004c10 <UART_FIFOConfig>:
    4c10:	78cb      	ldrb	r3, [r1, #3]
    4c12:	2b01      	cmp	r3, #1
    4c14:	d007      	beq.n	4c26 <UART_FIFOConfig+0x16>
    4c16:	d304      	bcc.n	4c22 <UART_FIFOConfig+0x12>
    4c18:	2b02      	cmp	r3, #2
    4c1a:	bf14      	ite	ne
    4c1c:	22c1      	movne	r2, #193
    4c1e:	2281      	moveq	r2, #129
    4c20:	e002      	b.n	4c28 <UART_FIFOConfig+0x18>
    4c22:	2201      	movs	r2, #1
    4c24:	e000      	b.n	4c28 <UART_FIFOConfig+0x18>
    4c26:	2241      	movs	r2, #65
    4c28:	784b      	ldrb	r3, [r1, #1]
    4c2a:	2b01      	cmp	r3, #1
    4c2c:	780b      	ldrb	r3, [r1, #0]
    4c2e:	bf08      	it	eq
    4c30:	f042 0204 	orreq.w	r2, r2, #4	; 0x4
    4c34:	2b01      	cmp	r3, #1
    4c36:	788b      	ldrb	r3, [r1, #2]
    4c38:	bf08      	it	eq
    4c3a:	f042 0202 	orreq.w	r2, r2, #2	; 0x2
    4c3e:	2b01      	cmp	r3, #1
    4c40:	bf08      	it	eq
    4c42:	f042 0208 	orreq.w	r2, r2, #8	; 0x8
    4c46:	f002 03cf 	and.w	r3, r2, #207	; 0xcf
    4c4a:	7203      	strb	r3, [r0, #8]
    4c4c:	4770      	bx	lr
    4c4e:	46c0      	nop			(mov r8, r8)

00004c50 <UART_FIFOConfigStructInit>:
    4c50:	2300      	movs	r3, #0
    4c52:	7083      	strb	r3, [r0, #2]
    4c54:	70c3      	strb	r3, [r0, #3]
    4c56:	3301      	adds	r3, #1
    4c58:	7003      	strb	r3, [r0, #0]
    4c5a:	7043      	strb	r3, [r0, #1]
    4c5c:	4770      	bx	lr
    4c5e:	46c0      	nop			(mov r8, r8)

00004c60 <UART_TxCmd>:
    4c60:	2901      	cmp	r1, #1
    4c62:	bf0b      	itete	eq
    4c64:	f890 3030 	ldrbeq.w	r3, [r0, #48]
    4c68:	f890 3030 	ldrbne.w	r3, [r0, #48]
    4c6c:	f043 0380 	orreq.w	r3, r3, #128	; 0x80
    4c70:	2300      	movne	r3, #0
    4c72:	f880 3030 	strb.w	r3, [r0, #48]
    4c76:	4770      	bx	lr

00004c78 <UART_Send>:
    4c78:	2b01      	cmp	r3, #1
    4c7a:	e92d 41f0 	stmdb	sp!, {r4, r5, r6, r7, r8, lr}
    4c7e:	4606      	mov	r6, r0
    4c80:	d004      	beq.n	4c8c <UART_Send+0x14>
    4c82:	460f      	mov	r7, r1
    4c84:	4614      	mov	r4, r2
    4c86:	f04f 0800 	mov.w	r8, #0	; 0x0
    4c8a:	e031      	b.n	4cf0 <UART_Send+0x78>
    4c8c:	460f      	mov	r7, r1
    4c8e:	4614      	mov	r4, r2
    4c90:	f04f 0800 	mov.w	r8, #0	; 0x0
    4c94:	e015      	b.n	4cc2 <UART_Send+0x4a>
    4c96:	b36a      	cbz	r2, 4cf4 <UART_Send+0x7c>
    4c98:	3a01      	subs	r2, #1
    4c9a:	7d33      	ldrb	r3, [r6, #20]
    4c9c:	f013 0f20 	tst.w	r3, #32	; 0x20
    4ca0:	d0f9      	beq.n	4c96 <UART_Send+0x1e>
    4ca2:	b33a      	cbz	r2, 4cf4 <UART_Send+0x7c>
    4ca4:	2510      	movs	r5, #16
    4ca6:	4630      	mov	r0, r6
    4ca8:	f817 1b01 	ldrb.w	r1, [r7], #1
    4cac:	f7ff ff74 	bl	4b98 <UART_SendData>
    4cb0:	3c01      	subs	r4, #1
    4cb2:	f115 35ff 	adds.w	r5, r5, #4294967295	; 0xffffffff
    4cb6:	f108 0801 	add.w	r8, r8, #1	; 0x1
    4cba:	d002      	beq.n	4cc2 <UART_Send+0x4a>
    4cbc:	2c00      	cmp	r4, #0
    4cbe:	d1f2      	bne.n	4ca6 <UART_Send+0x2e>
    4cc0:	e018      	b.n	4cf4 <UART_Send+0x7c>
    4cc2:	b1bc      	cbz	r4, 4cf4 <UART_Send+0x7c>
    4cc4:	f04f 32ff 	mov.w	r2, #4294967295	; 0xffffffff
    4cc8:	e7e7      	b.n	4c9a <UART_Send+0x22>
    4cca:	7d33      	ldrb	r3, [r6, #20]
    4ccc:	f013 0f20 	tst.w	r3, #32	; 0x20
    4cd0:	d010      	beq.n	4cf4 <UART_Send+0x7c>
    4cd2:	2510      	movs	r5, #16
    4cd4:	4630      	mov	r0, r6
    4cd6:	f817 1b01 	ldrb.w	r1, [r7], #1
    4cda:	f7ff ff5d 	bl	4b98 <UART_SendData>
    4cde:	3c01      	subs	r4, #1
    4ce0:	f115 35ff 	adds.w	r5, r5, #4294967295	; 0xffffffff
    4ce4:	f108 0801 	add.w	r8, r8, #1	; 0x1
    4ce8:	d002      	beq.n	4cf0 <UART_Send+0x78>
    4cea:	2c00      	cmp	r4, #0
    4cec:	d1f2      	bne.n	4cd4 <UART_Send+0x5c>
    4cee:	e001      	b.n	4cf4 <UART_Send+0x7c>
    4cf0:	2c00      	cmp	r4, #0
    4cf2:	d1ea      	bne.n	4cca <UART_Send+0x52>
    4cf4:	4640      	mov	r0, r8
    4cf6:	e8bd 81f0 	ldmia.w	sp!, {r4, r5, r6, r7, r8, pc}
    4cfa:	46c0      	nop			(mov r8, r8)

00004cfc <UART_Receive>:
    4cfc:	2b01      	cmp	r3, #1
    4cfe:	e92d 41f0 	stmdb	sp!, {r4, r5, r6, r7, r8, lr}
    4d02:	4604      	mov	r4, r0
    4d04:	460f      	mov	r7, r1
    4d06:	4616      	mov	r6, r2
    4d08:	d001      	beq.n	4d0e <UART_Receive+0x12>
    4d0a:	2500      	movs	r5, #0
    4d0c:	e01b      	b.n	4d46 <UART_Receive+0x4a>
    4d0e:	2500      	movs	r5, #0
    4d10:	e00b      	b.n	4d2a <UART_Receive+0x2e>
    4d12:	b1da      	cbz	r2, 4d4c <UART_Receive+0x50>
    4d14:	3a01      	subs	r2, #1
    4d16:	7d23      	ldrb	r3, [r4, #20]
    4d18:	f013 0f01 	tst.w	r3, #1	; 0x1
    4d1c:	d0f9      	beq.n	4d12 <UART_Receive+0x16>
    4d1e:	b1aa      	cbz	r2, 4d4c <UART_Receive+0x50>
    4d20:	4620      	mov	r0, r4
    4d22:	f7ff ff3b 	bl	4b9c <UART_ReceiveData>
    4d26:	55e8      	strb	r0, [r5, r7]
    4d28:	3501      	adds	r5, #1
    4d2a:	42b5      	cmp	r5, r6
    4d2c:	d00d      	beq.n	4d4a <UART_Receive+0x4e>
    4d2e:	f04f 32ff 	mov.w	r2, #4294967295	; 0xffffffff
    4d32:	e7f0      	b.n	4d16 <UART_Receive+0x1a>
    4d34:	7d23      	ldrb	r3, [r4, #20]
    4d36:	f013 0f01 	tst.w	r3, #1	; 0x1
    4d3a:	d007      	beq.n	4d4c <UART_Receive+0x50>
    4d3c:	4620      	mov	r0, r4
    4d3e:	f7ff ff2d 	bl	4b9c <UART_ReceiveData>
    4d42:	55e8      	strb	r0, [r5, r7]
    4d44:	3501      	adds	r5, #1
    4d46:	42b5      	cmp	r5, r6
    4d48:	d1f4      	bne.n	4d34 <UART_Receive+0x38>
    4d4a:	4635      	mov	r5, r6
    4d4c:	4628      	mov	r0, r5
    4d4e:	e8bd 81f0 	ldmia.w	sp!, {r4, r5, r6, r7, r8, pc}
    4d52:	46c0      	nop			(mov r8, r8)

00004d54 <UART_SetupCbs>:
    4d54:	b570      	push	{r4, r5, r6, lr}
    4d56:	460c      	mov	r4, r1
    4d58:	4615      	mov	r5, r2
    4d5a:	f7ff fe9f 	bl	4a9c <getUartNum>
    4d5e:	2c04      	cmp	r4, #4
    4d60:	d819      	bhi.n	4d96 <UART_SetupCbs+0x42>
    4d62:	e8df f004 	tbb	[pc, r4]
    4d66:	0803      	.short	0x0803
    4d68:	0016110c 	.word	0x0016110c
    4d6c:	4b0a      	ldr	r3, [pc, #40]	(4d98 <UART_SetupCbs+0x44>)
    4d6e:	eb03 1300 	add.w	r3, r3, r0, lsl #4
    4d72:	605d      	str	r5, [r3, #4]
    4d74:	e00f      	b.n	4d96 <UART_SetupCbs+0x42>
    4d76:	4b08      	ldr	r3, [pc, #32]	(4d98 <UART_SetupCbs+0x44>)
    4d78:	0102      	lsls	r2, r0, #4
    4d7a:	50d5      	str	r5, [r2, r3]
    4d7c:	e00b      	b.n	4d96 <UART_SetupCbs+0x42>
    4d7e:	4b06      	ldr	r3, [pc, #24]	(4d98 <UART_SetupCbs+0x44>)
    4d80:	eb03 1300 	add.w	r3, r3, r0, lsl #4
    4d84:	609d      	str	r5, [r3, #8]
    4d86:	e006      	b.n	4d96 <UART_SetupCbs+0x42>
    4d88:	4b03      	ldr	r3, [pc, #12]	(4d98 <UART_SetupCbs+0x44>)
    4d8a:	eb03 1300 	add.w	r3, r3, r0, lsl #4
    4d8e:	60dd      	str	r5, [r3, #12]
    4d90:	e001      	b.n	4d96 <UART_SetupCbs+0x42>
    4d92:	4b02      	ldr	r3, [pc, #8]	(4d9c <UART_SetupCbs+0x48>)
    4d94:	601d      	str	r5, [r3, #0]
    4d96:	bd70      	pop	{r4, r5, r6, pc}
    4d98:	10000450 	.word	0x10000450
    4d9c:	1000044c 	.word	0x1000044c

00004da0 <UART0_StdIntHandler>:
    4da0:	b510      	push	{r4, lr}
    4da2:	4802      	ldr	r0, [pc, #8]	(4dac <UART0_StdIntHandler+0xc>)
    4da4:	f7ff fe90 	bl	4ac8 <UART_GenIntHandler>
    4da8:	bd10      	pop	{r4, pc}
    4daa:	46c0      	nop			(mov r8, r8)
    4dac:	4000c000 	.word	0x4000c000

00004db0 <uart_set_divisors>:
    4db0:	4b46      	ldr	r3, [pc, #280]	(4ecc <uart_set_divisors+0x11c>)
    4db2:	e92d 4ff7 	stmdb	sp!, {r0, r1, r2, r4, r5, r6, r7, r8, r9, sl, fp, lr}
    4db6:	4298      	cmp	r0, r3
    4db8:	4604      	mov	r4, r0
    4dba:	460d      	mov	r5, r1
    4dbc:	d101      	bne.n	4dc2 <uart_set_divisors+0x12>
    4dbe:	2006      	movs	r0, #6
    4dc0:	e00a      	b.n	4dd8 <uart_set_divisors+0x28>
    4dc2:	4b43      	ldr	r3, [pc, #268]	(4ed0 <uart_set_divisors+0x120>)
    4dc4:	4298      	cmp	r0, r3
    4dc6:	d101      	bne.n	4dcc <uart_set_divisors+0x1c>
    4dc8:	2008      	movs	r0, #8
    4dca:	e005      	b.n	4dd8 <uart_set_divisors+0x28>
    4dcc:	4b41      	ldr	r3, [pc, #260]	(4ed4 <uart_set_divisors+0x124>)
    4dce:	4298      	cmp	r0, r3
    4dd0:	d101      	bne.n	4dd6 <uart_set_divisors+0x26>
    4dd2:	2030      	movs	r0, #48
    4dd4:	e000      	b.n	4dd8 <uart_set_divisors+0x28>
    4dd6:	2032      	movs	r0, #50
    4dd8:	f7ff fd82 	bl	48e0 <CLKPWR_GetPCLK>
    4ddc:	f04f 0900 	mov.w	r9, #0	; 0x0
    4de0:	0900      	lsrs	r0, r0, #4
    4de2:	f04f 0b01 	mov.w	fp, #1	; 0x1
    4de6:	9001      	str	r0, [sp, #4]
    4de8:	4606      	mov	r6, r0
    4dea:	46ca      	mov	sl, r9
    4dec:	4648      	mov	r0, r9
    4dee:	f8df 80e8 	ldr.w	r8, [pc, #232]	; 4ed8 <uart_set_divisors+0x128>
    4df2:	465f      	mov	r7, fp
    4df4:	e065      	b.n	4ec2 <uart_set_divisors+0x112>
    4df6:	eb0c 0307 	add.w	r3, ip, r7
    4dfa:	fbb6 fef3 	udiv	lr, r6, r3
    4dfe:	fbbe f1f5 	udiv	r1, lr, r5
    4e02:	fb05 e311 	mls	r3, r5, r1, lr
    4e06:	ebb3 0f55 	cmp.w	r3, r5, lsr #1
    4e0a:	bf88      	it	hi
    4e0c:	3101      	addhi	r1, #1
    4e0e:	1eca      	subs	r2, r1, #3
    4e10:	f64f 73fc 	movw	r3, #65532	; 0xfffc
    4e14:	429a      	cmp	r2, r3
    4e16:	d812      	bhi.n	4e3e <uart_set_divisors+0x8e>
    4e18:	fbbe f3f1 	udiv	r3, lr, r1
    4e1c:	42ab      	cmp	r3, r5
    4e1e:	d801      	bhi.n	4e24 <uart_set_divisors+0x74>
    4e20:	1ae8      	subs	r0, r5, r3
    4e22:	e000      	b.n	4e26 <uart_set_divisors+0x76>
    4e24:	1b58      	subs	r0, r3, r5
    4e26:	4540      	cmp	r0, r8
    4e28:	d209      	bcs.n	4e3e <uart_set_divisors+0x8e>
    4e2a:	b920      	cbnz	r0, 4e36 <uart_set_divisors+0x86>
    4e2c:	46bb      	mov	fp, r7
    4e2e:	46e1      	mov	r9, ip
    4e30:	468a      	mov	sl, r1
    4e32:	4680      	mov	r8, r0
    4e34:	e00e      	b.n	4e54 <uart_set_divisors+0xa4>
    4e36:	46bb      	mov	fp, r7
    4e38:	46e1      	mov	r9, ip
    4e3a:	468a      	mov	sl, r1
    4e3c:	4680      	mov	r8, r0
    4e3e:	f10c 0c01 	add.w	ip, ip, #1	; 0x1
    4e42:	f1bc 0f10 	cmp.w	ip, #16	; 0x10
    4e46:	d1d6      	bne.n	4df6 <uart_set_divisors+0x46>
    4e48:	b120      	cbz	r0, 4e54 <uart_set_divisors+0xa4>
    4e4a:	9b01      	ldr	r3, [sp, #4]
    4e4c:	3701      	adds	r7, #1
    4e4e:	18f6      	adds	r6, r6, r3
    4e50:	2f10      	cmp	r7, #16
    4e52:	d136      	bne.n	4ec2 <uart_set_divisors+0x112>
    4e54:	2303      	movs	r3, #3
    4e56:	fb05 f303 	mul.w	r3, r5, r3
    4e5a:	2264      	movs	r2, #100
    4e5c:	fbb3 f3f2 	udiv	r3, r3, r2
    4e60:	4598      	cmp	r8, r3
    4e62:	d301      	bcc.n	4e68 <uart_set_divisors+0xb8>
    4e64:	2000      	movs	r0, #0
    4e66:	e02f      	b.n	4ec8 <uart_set_divisors+0x118>
    4e68:	4b19      	ldr	r3, [pc, #100]	(4ed0 <uart_set_divisors+0x120>)
    4e6a:	ea4f 221a 	mov.w	r2, sl, lsr #8
    4e6e:	429c      	cmp	r4, r3
    4e70:	fa5f f18a 	uxtb.w	r1, sl
    4e74:	ea4f 100b 	mov.w	r0, fp, lsl #4
    4e78:	f009 050f 	and.w	r5, r9, #15	; 0xf
    4e7c:	d10f      	bne.n	4e9e <uart_set_divisors+0xee>
    4e7e:	7b23      	ldrb	r3, [r4, #12]
    4e80:	f043 0380 	orr.w	r3, r3, #128	; 0x80
    4e84:	7323      	strb	r3, [r4, #12]
    4e86:	b2d3      	uxtb	r3, r2
    4e88:	7123      	strb	r3, [r4, #4]
    4e8a:	7021      	strb	r1, [r4, #0]
    4e8c:	7b23      	ldrb	r3, [r4, #12]
    4e8e:	f003 037f 	and.w	r3, r3, #127	; 0x7f
    4e92:	7323      	strb	r3, [r4, #12]
    4e94:	f000 03f0 	and.w	r3, r0, #240	; 0xf0
    4e98:	432b      	orrs	r3, r5
    4e9a:	62a3      	str	r3, [r4, #40]
    4e9c:	e00f      	b.n	4ebe <uart_set_divisors+0x10e>
    4e9e:	7b23      	ldrb	r3, [r4, #12]
    4ea0:	f043 0380 	orr.w	r3, r3, #128	; 0x80
    4ea4:	7323      	strb	r3, [r4, #12]
    4ea6:	b2d3      	uxtb	r3, r2
    4ea8:	7123      	strb	r3, [r4, #4]
    4eaa:	7021      	strb	r1, [r4, #0]
    4eac:	7b23      	ldrb	r3, [r4, #12]
    4eae:	f003 037f 	and.w	r3, r3, #127	; 0x7f
    4eb2:	7323      	strb	r3, [r4, #12]
    4eb4:	ea40 0305 	orr.w	r3, r0, r5
    4eb8:	b2db      	uxtb	r3, r3
    4eba:	f884 3028 	strb.w	r3, [r4, #40]
    4ebe:	2001      	movs	r0, #1
    4ec0:	e002      	b.n	4ec8 <uart_set_divisors+0x118>
    4ec2:	f04f 0c00 	mov.w	ip, #0	; 0x0
    4ec6:	e796      	b.n	4df6 <uart_set_divisors+0x46>
    4ec8:	e8bd 8ffe 	ldmia.w	sp!, {r1, r2, r3, r4, r5, r6, r7, r8, r9, sl, fp, pc}
    4ecc:	4000c000 	.word	0x4000c000
    4ed0:	40010000 	.word	0x40010000
    4ed4:	40098000 	.word	0x40098000
    4ed8:	000186a0 	.word	0x000186a0

00004edc <UART_Init>:
    4edc:	4b47      	ldr	r3, [pc, #284]	(4ffc <UART_Init+0x120>)
    4ede:	b570      	push	{r4, r5, r6, lr}
    4ee0:	4298      	cmp	r0, r3
    4ee2:	4604      	mov	r4, r0
    4ee4:	460d      	mov	r5, r1
    4ee6:	d103      	bne.n	4ef0 <UART_Init+0x14>
    4ee8:	2008      	movs	r0, #8
    4eea:	2101      	movs	r1, #1
    4eec:	f7ff fd0a 	bl	4904 <CLKPWR_ConfigPPWR>
    4ef0:	4b43      	ldr	r3, [pc, #268]	(5000 <UART_Init+0x124>)
    4ef2:	429c      	cmp	r4, r3
    4ef4:	d108      	bne.n	4f08 <UART_Init+0x2c>
    4ef6:	2010      	movs	r0, #16
    4ef8:	2101      	movs	r1, #1
    4efa:	f7ff fd03 	bl	4904 <CLKPWR_ConfigPPWR>
    4efe:	2307      	movs	r3, #7
    4f00:	7223      	strb	r3, [r4, #8]
    4f02:	2300      	movs	r3, #0
    4f04:	7223      	strb	r3, [r4, #8]
    4f06:	e00f      	b.n	4f28 <UART_Init+0x4c>
    4f08:	4b3e      	ldr	r3, [pc, #248]	(5004 <UART_Init+0x128>)
    4f0a:	429c      	cmp	r4, r3
    4f0c:	d102      	bne.n	4f14 <UART_Init+0x38>
    4f0e:	f04f 7080 	mov.w	r0, #16777216	; 0x1000000
    4f12:	e004      	b.n	4f1e <UART_Init+0x42>
    4f14:	4b3c      	ldr	r3, [pc, #240]	(5008 <UART_Init+0x12c>)
    4f16:	429c      	cmp	r4, r3
    4f18:	d122      	bne.n	4f60 <UART_Init+0x84>
    4f1a:	f04f 7000 	mov.w	r0, #33554432	; 0x2000000
    4f1e:	2101      	movs	r1, #1
    4f20:	f7ff fcf0 	bl	4904 <CLKPWR_ConfigPPWR>
    4f24:	e01c      	b.n	4f60 <UART_Init+0x84>
    4f26:	7823      	ldrb	r3, [r4, #0]
    4f28:	7d23      	ldrb	r3, [r4, #20]
    4f2a:	f013 0f01 	tst.w	r3, #1	; 0x1
    4f2e:	d1fa      	bne.n	4f26 <UART_Init+0x4a>
    4f30:	f06f 037f 	mvn.w	r3, #127	; 0x7f
    4f34:	f884 3030 	strb.w	r3, [r4, #48]
    4f38:	7d23      	ldrb	r3, [r4, #20]
    4f3a:	f013 0f20 	tst.w	r3, #32	; 0x20
    4f3e:	d0fb      	beq.n	4f38 <UART_Init+0x5c>
    4f40:	2300      	movs	r3, #0
    4f42:	f884 3030 	strb.w	r3, [r4, #48]
    4f46:	6063      	str	r3, [r4, #4]
    4f48:	7323      	strb	r3, [r4, #12]
    4f4a:	6223      	str	r3, [r4, #32]
    4f4c:	7423      	strb	r3, [r4, #16]
    4f4e:	f884 304c 	strb.w	r3, [r4, #76]
    4f52:	f884 3054 	strb.w	r3, [r4, #84]
    4f56:	f884 3050 	strb.w	r3, [r4, #80]
    4f5a:	7e23      	ldrb	r3, [r4, #24]
    4f5c:	7d23      	ldrb	r3, [r4, #20]
    4f5e:	e01d      	b.n	4f9c <UART_Init+0xc0>
    4f60:	2307      	movs	r3, #7
    4f62:	7223      	strb	r3, [r4, #8]
    4f64:	2300      	movs	r3, #0
    4f66:	7223      	strb	r3, [r4, #8]
    4f68:	e000      	b.n	4f6c <UART_Init+0x90>
    4f6a:	7823      	ldrb	r3, [r4, #0]
    4f6c:	7d23      	ldrb	r3, [r4, #20]
    4f6e:	f013 0f01 	tst.w	r3, #1	; 0x1
    4f72:	d1fa      	bne.n	4f6a <UART_Init+0x8e>
    4f74:	f06f 037f 	mvn.w	r3, #127	; 0x7f
    4f78:	f884 3030 	strb.w	r3, [r4, #48]
    4f7c:	7d23      	ldrb	r3, [r4, #20]
    4f7e:	f013 0f20 	tst.w	r3, #32	; 0x20
    4f82:	d0fb      	beq.n	4f7c <UART_Init+0xa0>
    4f84:	2200      	movs	r2, #0
    4f86:	f884 2030 	strb.w	r2, [r4, #48]
    4f8a:	6062      	str	r2, [r4, #4]
    4f8c:	7322      	strb	r2, [r4, #12]
    4f8e:	6222      	str	r2, [r4, #32]
    4f90:	7d23      	ldrb	r3, [r4, #20]
    4f92:	4b1d      	ldr	r3, [pc, #116]	(5008 <UART_Init+0x12c>)
    4f94:	429c      	cmp	r4, r3
    4f96:	bf08      	it	eq
    4f98:	f884 2024 	strbeq.w	r2, [r4, #36]
    4f9c:	4620      	mov	r0, r4
    4f9e:	6829      	ldr	r1, [r5, #0]
    4fa0:	f7ff ff06 	bl	4db0 <uart_set_divisors>
    4fa4:	7b23      	ldrb	r3, [r4, #12]
    4fa6:	f003 02c0 	and.w	r2, r3, #192	; 0xc0
    4faa:	796b      	ldrb	r3, [r5, #5]
    4fac:	2b01      	cmp	r3, #1
    4fae:	d003      	beq.n	4fb8 <UART_Init+0xdc>
    4fb0:	d30a      	bcc.n	4fc8 <UART_Init+0xec>
    4fb2:	2b02      	cmp	r3, #2
    4fb4:	d003      	beq.n	4fbe <UART_Init+0xe2>
    4fb6:	e005      	b.n	4fc4 <UART_Init+0xe8>
    4fb8:	f042 0201 	orr.w	r2, r2, #1	; 0x1
    4fbc:	e004      	b.n	4fc8 <UART_Init+0xec>
    4fbe:	f042 0202 	orr.w	r2, r2, #2	; 0x2
    4fc2:	e001      	b.n	4fc8 <UART_Init+0xec>
    4fc4:	f042 0203 	orr.w	r2, r2, #3	; 0x3
    4fc8:	792b      	ldrb	r3, [r5, #4]
    4fca:	b17b      	cbz	r3, 4fec <UART_Init+0x110>
    4fcc:	2b03      	cmp	r3, #3
    4fce:	f042 0208 	orr.w	r2, r2, #8	; 0x8
    4fd2:	d006      	beq.n	4fe2 <UART_Init+0x106>
    4fd4:	2b04      	cmp	r3, #4
    4fd6:	d007      	beq.n	4fe8 <UART_Init+0x10c>
    4fd8:	2b02      	cmp	r3, #2
    4fda:	d107      	bne.n	4fec <UART_Init+0x110>
    4fdc:	f042 0210 	orr.w	r2, r2, #16	; 0x10
    4fe0:	e004      	b.n	4fec <UART_Init+0x110>
    4fe2:	f042 0220 	orr.w	r2, r2, #32	; 0x20
    4fe6:	e001      	b.n	4fec <UART_Init+0x110>
    4fe8:	f042 0230 	orr.w	r2, r2, #48	; 0x30
    4fec:	79ab      	ldrb	r3, [r5, #6]
    4fee:	2b01      	cmp	r3, #1
    4ff0:	bf08      	it	eq
    4ff2:	f042 0204 	orreq.w	r2, r2, #4	; 0x4
    4ff6:	b2d3      	uxtb	r3, r2
    4ff8:	7323      	strb	r3, [r4, #12]
    4ffa:	bd70      	pop	{r4, r5, r6, pc}
    4ffc:	4000c000 	.word	0x4000c000
    5000:	40010000 	.word	0x40010000
    5004:	40098000 	.word	0x40098000
    5008:	4009c000 	.word	0x4009c000

0000500c <SSP_getNum>:
    500c:	4b05      	ldr	r3, [pc, #20]	(5024 <SSP_getNum+0x18>)
    500e:	4298      	cmp	r0, r3
    5010:	d101      	bne.n	5016 <SSP_getNum+0xa>
    5012:	2000      	movs	r0, #0
    5014:	e005      	b.n	5022 <SSP_getNum+0x16>
    5016:	4b04      	ldr	r3, [pc, #16]	(5028 <SSP_getNum+0x1c>)
    5018:	4298      	cmp	r0, r3
    501a:	bf14      	ite	ne
    501c:	f04f 30ff 	movne.w	r0, #4294967295	; 0xffffffff
    5020:	2001      	moveq	r0, #1
    5022:	4770      	bx	lr
    5024:	40088000 	.word	0x40088000
    5028:	40030000 	.word	0x40030000

0000502c <SSP_ConfigStructInit>:
    502c:	4b04      	ldr	r3, [pc, #16]	(5040 <SSP_ConfigStructInit+0x14>)
    502e:	2200      	movs	r2, #0
    5030:	6143      	str	r3, [r0, #20]
    5032:	2307      	movs	r3, #7
    5034:	6042      	str	r2, [r0, #4]
    5036:	6082      	str	r2, [r0, #8]
    5038:	6003      	str	r3, [r0, #0]
    503a:	60c2      	str	r2, [r0, #12]
    503c:	6102      	str	r2, [r0, #16]
    503e:	4770      	bx	lr
    5040:	000f4240 	.word	0x000f4240

00005044 <SSP_Cmd>:
    5044:	2901      	cmp	r1, #1
    5046:	bf0b      	itete	eq
    5048:	6843      	ldreq	r3, [r0, #4]
    504a:	6843      	ldrne	r3, [r0, #4]
    504c:	f043 0302 	orreq.w	r3, r3, #2	; 0x2
    5050:	f003 030d 	andne.w	r3, r3, #13	; 0xd
    5054:	6043      	str	r3, [r0, #4]
    5056:	4770      	bx	lr

00005058 <SSP_DeInit>:
    5058:	4b07      	ldr	r3, [pc, #28]	(5078 <SSP_DeInit+0x20>)
    505a:	b510      	push	{r4, lr}
    505c:	4298      	cmp	r0, r3
    505e:	d102      	bne.n	5066 <SSP_DeInit+0xe>
    5060:	f44f 1000 	mov.w	r0, #2097152	; 0x200000
    5064:	e004      	b.n	5070 <SSP_DeInit+0x18>
    5066:	4b05      	ldr	r3, [pc, #20]	(507c <SSP_DeInit+0x24>)
    5068:	4298      	cmp	r0, r3
    506a:	d104      	bne.n	5076 <SSP_DeInit+0x1e>
    506c:	f44f 6080 	mov.w	r0, #1024	; 0x400
    5070:	2100      	movs	r1, #0
    5072:	f7ff fc47 	bl	4904 <CLKPWR_ConfigPPWR>
    5076:	bd10      	pop	{r4, pc}
    5078:	40088000 	.word	0x40088000
    507c:	40030000 	.word	0x40030000

00005080 <SSP_SetClock>:
    5080:	4b18      	ldr	r3, [pc, #96]	(50e4 <SSP_SetClock+0x64>)
    5082:	b570      	push	{r4, r5, r6, lr}
    5084:	4298      	cmp	r0, r3
    5086:	4604      	mov	r4, r0
    5088:	460d      	mov	r5, r1
    508a:	d101      	bne.n	5090 <SSP_SetClock+0x10>
    508c:	202a      	movs	r0, #42
    508e:	e003      	b.n	5098 <SSP_SetClock+0x18>
    5090:	4b15      	ldr	r3, [pc, #84]	(50e8 <SSP_SetClock+0x68>)
    5092:	4298      	cmp	r0, r3
    5094:	d124      	bne.n	50e0 <SSP_SetClock+0x60>
    5096:	2014      	movs	r0, #20
    5098:	f7ff fc22 	bl	48e0 <CLKPWR_GetPCLK>
    509c:	f04f 0e02 	mov.w	lr, #2	; 0x2
    50a0:	2200      	movs	r2, #0
    50a2:	f04f 33ff 	mov.w	r3, #4294967295	; 0xffffffff
    50a6:	e00c      	b.n	50c2 <SSP_SetClock+0x42>
    50a8:	1c51      	adds	r1, r2, #1
    50aa:	fb0e f301 	mul.w	r3, lr, r1
    50ae:	fbb0 f3f3 	udiv	r3, r0, r3
    50b2:	42ab      	cmp	r3, r5
    50b4:	d907      	bls.n	50c6 <SSP_SetClock+0x46>
    50b6:	29ff      	cmp	r1, #255
    50b8:	bf92      	itee	ls
    50ba:	460a      	movls	r2, r1
    50bc:	f10e 0e02 	addhi.w	lr, lr, #2	; 0x2
    50c0:	2200      	movhi	r2, #0
    50c2:	42ab      	cmp	r3, r5
    50c4:	d8f0      	bhi.n	50a8 <SSP_SetClock+0x28>
    50c6:	6823      	ldr	r3, [r4, #0]
    50c8:	f002 02ff 	and.w	r2, r2, #255	; 0xff
    50cc:	f003 03ff 	and.w	r3, r3, #255	; 0xff
    50d0:	6023      	str	r3, [r4, #0]
    50d2:	6823      	ldr	r3, [r4, #0]
    50d4:	ea43 2302 	orr.w	r3, r3, r2, lsl #8
    50d8:	6023      	str	r3, [r4, #0]
    50da:	f00e 03ff 	and.w	r3, lr, #255	; 0xff
    50de:	6123      	str	r3, [r4, #16]
    50e0:	bd70      	pop	{r4, r5, r6, pc}
    50e2:	46c0      	nop			(mov r8, r8)
    50e4:	40088000 	.word	0x40088000
    50e8:	40030000 	.word	0x40030000

000050ec <SSP_Init>:
    50ec:	4b1a      	ldr	r3, [pc, #104]	(5158 <SSP_Init+0x6c>)
    50ee:	b570      	push	{r4, r5, r6, lr}
    50f0:	4298      	cmp	r0, r3
    50f2:	4605      	mov	r5, r0
    50f4:	460c      	mov	r4, r1
    50f6:	d102      	bne.n	50fe <SSP_Init+0x12>
    50f8:	f44f 1000 	mov.w	r0, #2097152	; 0x200000
    50fc:	e004      	b.n	5108 <SSP_Init+0x1c>
    50fe:	4b17      	ldr	r3, [pc, #92]	(515c <SSP_Init+0x70>)
    5100:	4298      	cmp	r0, r3
    5102:	d127      	bne.n	5154 <SSP_Init+0x68>
    5104:	f44f 6080 	mov.w	r0, #1024	; 0x400
    5108:	2101      	movs	r1, #1
    510a:	f7ff fbfb 	bl	4904 <CLKPWR_ConfigPPWR>
    510e:	6862      	ldr	r2, [r4, #4]
    5110:	68a3      	ldr	r3, [r4, #8]
    5112:	4628      	mov	r0, r5
    5114:	4313      	orrs	r3, r2
    5116:	6922      	ldr	r2, [r4, #16]
    5118:	4313      	orrs	r3, r2
    511a:	6822      	ldr	r2, [r4, #0]
    511c:	4313      	orrs	r3, r2
    511e:	041b      	lsls	r3, r3, #16
    5120:	0c1b      	lsrs	r3, r3, #16
    5122:	602b      	str	r3, [r5, #0]
    5124:	f7ff ff72 	bl	500c <SSP_getNum>
    5128:	6823      	ldr	r3, [r4, #0]
    512a:	490d      	ldr	r1, [pc, #52]	(5160 <SSP_Init+0x74>)
    512c:	2b07      	cmp	r3, #7
    512e:	d904      	bls.n	513a <SSP_Init+0x4e>
    5130:	230c      	movs	r3, #12
    5132:	fb00 f303 	mul.w	r3, r0, r3
    5136:	2201      	movs	r2, #1
    5138:	e003      	b.n	5142 <SSP_Init+0x56>
    513a:	230c      	movs	r3, #12
    513c:	fb00 f303 	mul.w	r3, r0, r3
    5140:	2200      	movs	r2, #0
    5142:	505a      	str	r2, [r3, r1]
    5144:	68e3      	ldr	r3, [r4, #12]
    5146:	4628      	mov	r0, r5
    5148:	f003 030f 	and.w	r3, r3, #15	; 0xf
    514c:	606b      	str	r3, [r5, #4]
    514e:	6961      	ldr	r1, [r4, #20]
    5150:	f7ff ff96 	bl	5080 <SSP_SetClock>
    5154:	bd70      	pop	{r4, r5, r6, pc}
    5156:	46c0      	nop			(mov r8, r8)
    5158:	40088000 	.word	0x40088000
    515c:	40030000 	.word	0x40030000
    5160:	10000490 	.word	0x10000490

00005164 <RTC_Cmd>:
    5164:	2901      	cmp	r1, #1
    5166:	bf0b      	itete	eq
    5168:	7a03      	ldrbeq	r3, [r0, #8]
    516a:	7a03      	ldrbne	r3, [r0, #8]
    516c:	f043 0301 	orreq.w	r3, r3, #1	; 0x1
    5170:	f003 0312 	andne.w	r3, r3, #18	; 0x12
    5174:	7203      	strb	r3, [r0, #8]
    5176:	4770      	bx	lr

00005178 <RTC_SetFullTime>:
    5178:	7b0b      	ldrb	r3, [r1, #12]
    517a:	f003 031f 	and.w	r3, r3, #31	; 0x1f
    517e:	f880 302c 	strb.w	r3, [r0, #44]
    5182:	7c0b      	ldrb	r3, [r1, #16]
    5184:	f003 0307 	and.w	r3, r3, #7	; 0x7
    5188:	f880 3030 	strb.w	r3, [r0, #48]
    518c:	8a8b      	ldrh	r3, [r1, #20]
    518e:	05db      	lsls	r3, r3, #23
    5190:	0ddb      	lsrs	r3, r3, #23
    5192:	8683      	strh	r3, [r0, #52]
    5194:	7a0b      	ldrb	r3, [r1, #8]
    5196:	f003 031f 	and.w	r3, r3, #31	; 0x1f
    519a:	f880 3028 	strb.w	r3, [r0, #40]
    519e:	790b      	ldrb	r3, [r1, #4]
    51a0:	f003 033f 	and.w	r3, r3, #63	; 0x3f
    51a4:	f880 3024 	strb.w	r3, [r0, #36]
    51a8:	780b      	ldrb	r3, [r1, #0]
    51aa:	f003 033f 	and.w	r3, r3, #63	; 0x3f
    51ae:	f880 3020 	strb.w	r3, [r0, #32]
    51b2:	7e0b      	ldrb	r3, [r1, #24]
    51b4:	f003 030f 	and.w	r3, r3, #15	; 0xf
    51b8:	f880 3038 	strb.w	r3, [r0, #56]
    51bc:	8b8b      	ldrh	r3, [r1, #28]
    51be:	051b      	lsls	r3, r3, #20
    51c0:	0d1b      	lsrs	r3, r3, #20
    51c2:	8783      	strh	r3, [r0, #60]
    51c4:	4770      	bx	lr
    51c6:	46c0      	nop			(mov r8, r8)

000051c8 <RTC_CalibCounterCmd>:
    51c8:	2901      	cmp	r1, #1
    51ca:	bf0b      	itete	eq
    51cc:	7a03      	ldrbeq	r3, [r0, #8]
    51ce:	7a03      	ldrbne	r3, [r0, #8]
    51d0:	f003 0303 	andeq.w	r3, r3, #3	; 0x3
    51d4:	f043 0310 	orrne.w	r3, r3, #16	; 0x10
    51d8:	7203      	strb	r3, [r0, #8]
    51da:	4770      	bx	lr

000051dc <RTC_CalibConfig>:
    51dc:	3901      	subs	r1, #1
    51de:	f021 417f 	bic.w	r1, r1, #4278190080	; 0xff000000
    51e2:	2a01      	cmp	r2, #1
    51e4:	bf0c      	ite	eq
    51e6:	f44f 3200 	moveq.w	r2, #131072	; 0x20000
    51ea:	2200      	movne	r2, #0
    51ec:	f421 017e 	bic.w	r1, r1, #16646144	; 0xfe0000
    51f0:	430a      	orrs	r2, r1
    51f2:	6402      	str	r2, [r0, #64]
    51f4:	4770      	bx	lr
    51f6:	46c0      	nop			(mov r8, r8)

000051f8 <RTC_Init>:
    51f8:	b510      	push	{r4, lr}
    51fa:	2101      	movs	r1, #1
    51fc:	4604      	mov	r4, r0
    51fe:	f44f 7000 	mov.w	r0, #512	; 0x200
    5202:	f7ff fb7f 	bl	4904 <CLKPWR_ConfigPPWR>
    5206:	2200      	movs	r2, #0
    5208:	f04f 33ff 	mov.w	r3, #4294967295	; 0xffffffff
    520c:	7022      	strb	r2, [r4, #0]
    520e:	7222      	strb	r2, [r4, #8]
    5210:	7322      	strb	r2, [r4, #12]
    5212:	7423      	strb	r3, [r4, #16]
    5214:	6422      	str	r2, [r4, #64]
    5216:	bd10      	pop	{r4, pc}

00005218 <Host_DelayUS>:
    5218:	b082      	sub	sp, #8
    521a:	2300      	movs	r3, #0
    521c:	9301      	str	r3, [sp, #4]
    521e:	0080      	lsls	r0, r0, #2
    5220:	e002      	b.n	5228 <Host_DelayUS+0x10>
    5222:	9b01      	ldr	r3, [sp, #4]
    5224:	3301      	adds	r3, #1
    5226:	9301      	str	r3, [sp, #4]
    5228:	9b01      	ldr	r3, [sp, #4]
    522a:	4283      	cmp	r3, r0
    522c:	d3f9      	bcc.n	5222 <Host_DelayUS+0xa>
    522e:	b002      	add	sp, #8
    5230:	4770      	bx	lr
    5232:	46c0      	nop			(mov r8, r8)

00005234 <Host_DelayMS>:
    5234:	b513      	push	{r0, r1, r4, lr}
    5236:	2300      	movs	r3, #0
    5238:	4604      	mov	r4, r0
    523a:	e005      	b.n	5248 <Host_DelayMS+0x14>
    523c:	f44f 707a 	mov.w	r0, #1000	; 0x3e8
    5240:	f7ff ffea 	bl	5218 <Host_DelayUS>
    5244:	9b01      	ldr	r3, [sp, #4]
    5246:	3301      	adds	r3, #1
    5248:	9301      	str	r3, [sp, #4]
    524a:	9b01      	ldr	r3, [sp, #4]
    524c:	42a3      	cmp	r3, r4
    524e:	d3f5      	bcc.n	523c <Host_DelayMS+0x8>
    5250:	bd1c      	pop	{r2, r3, r4, pc}
    5252:	46c0      	nop			(mov r8, r8)

00005254 <USB_IRQHandler>:
    5254:	4921      	ldr	r1, [pc, #132]	(52dc <USB_IRQHandler+0x88>)
    5256:	b510      	push	{r4, lr}
    5258:	68ca      	ldr	r2, [r1, #12]
    525a:	690b      	ldr	r3, [r1, #16]
    525c:	ea13 0402 	ands.w	r4, r3, r2
    5260:	d03b      	beq.n	52da <USB_IRQHandler+0x86>
    5262:	f014 0f40 	tst.w	r4, #64	; 0x40
    5266:	d02a      	beq.n	52be <USB_IRQHandler+0x6a>
    5268:	6d4b      	ldr	r3, [r1, #84]
    526a:	f413 3f80 	tst.w	r3, #65536	; 0x10000
    526e:	d01e      	beq.n	52ae <USB_IRQHandler+0x5a>
    5270:	6d0b      	ldr	r3, [r1, #80]
    5272:	f413 4f00 	tst.w	r3, #32768	; 0x8000
    5276:	d003      	beq.n	5280 <USB_IRQHandler+0x2c>
    5278:	4b19      	ldr	r3, [pc, #100]	(52e0 <USB_IRQHandler+0x8c>)
    527a:	2201      	movs	r2, #1
    527c:	601a      	str	r2, [r3, #0]
    527e:	e012      	b.n	52a6 <USB_IRQHandler+0x52>
    5280:	6d4b      	ldr	r3, [r1, #84]
    5282:	4818      	ldr	r0, [pc, #96]	(52e4 <USB_IRQHandler+0x90>)
    5284:	f013 0201 	ands.w	r2, r3, #1	; 0x1
    5288:	d007      	beq.n	529a <USB_IRQHandler+0x46>
    528a:	6802      	ldr	r2, [r0, #0]
    528c:	b95a      	cbnz	r2, 52a6 <USB_IRQHandler+0x52>
    528e:	4b16      	ldr	r3, [pc, #88]	(52e8 <USB_IRQHandler+0x94>)
    5290:	701a      	strb	r2, [r3, #0]
    5292:	4b16      	ldr	r3, [pc, #88]	(52ec <USB_IRQHandler+0x98>)
    5294:	601a      	str	r2, [r3, #0]
    5296:	3201      	adds	r2, #1
    5298:	e002      	b.n	52a0 <USB_IRQHandler+0x4c>
    529a:	6803      	ldr	r3, [r0, #0]
    529c:	b11b      	cbz	r3, 52a6 <USB_IRQHandler+0x52>
    529e:	610a      	str	r2, [r1, #16]
    52a0:	4b0f      	ldr	r3, [pc, #60]	(52e0 <USB_IRQHandler+0x8c>)
    52a2:	6002      	str	r2, [r0, #0]
    52a4:	601a      	str	r2, [r3, #0]
    52a6:	4b0d      	ldr	r3, [pc, #52]	(52dc <USB_IRQHandler+0x88>)
    52a8:	f44f 3280 	mov.w	r2, #65536	; 0x10000
    52ac:	655a      	str	r2, [r3, #84]
    52ae:	4a0b      	ldr	r2, [pc, #44]	(52dc <USB_IRQHandler+0x88>)
    52b0:	6d53      	ldr	r3, [r2, #84]
    52b2:	f413 1f80 	tst.w	r3, #1048576	; 0x100000
    52b6:	bf1c      	itt	ne
    52b8:	f44f 1380 	movne.w	r3, #1048576	; 0x100000
    52bc:	6553      	strne	r3, [r2, #84]
    52be:	f014 0f02 	tst.w	r4, #2	; 0x2
    52c2:	d008      	beq.n	52d6 <USB_IRQHandler+0x82>
    52c4:	4b09      	ldr	r3, [pc, #36]	(52ec <USB_IRQHandler+0x98>)
    52c6:	2201      	movs	r2, #1
    52c8:	601a      	str	r2, [r3, #0]
    52ca:	4b09      	ldr	r3, [pc, #36]	(52f0 <USB_IRQHandler+0x9c>)
    52cc:	4a06      	ldr	r2, [pc, #24]	(52e8 <USB_IRQHandler+0x94>)
    52ce:	681b      	ldr	r3, [r3, #0]
    52d0:	681b      	ldr	r3, [r3, #0]
    52d2:	0f1b      	lsrs	r3, r3, #28
    52d4:	7013      	strb	r3, [r2, #0]
    52d6:	4b01      	ldr	r3, [pc, #4]	(52dc <USB_IRQHandler+0x88>)
    52d8:	60dc      	str	r4, [r3, #12]
    52da:	bd10      	pop	{r4, pc}
    52dc:	5000c000 	.word	0x5000c000
    52e0:	100004ac 	.word	0x100004ac
    52e4:	10002304 	.word	0x10002304
    52e8:	100004a8 	.word	0x100004a8
    52ec:	100004b0 	.word	0x100004b0
    52f0:	10002314 	.word	0x10002314

000052f4 <Host_TDInit>:
    52f4:	2300      	movs	r3, #0
    52f6:	6003      	str	r3, [r0, #0]
    52f8:	6043      	str	r3, [r0, #4]
    52fa:	6083      	str	r3, [r0, #8]
    52fc:	60c3      	str	r3, [r0, #12]
    52fe:	4770      	bx	lr

00005300 <Host_EDInit>:
    5300:	2300      	movs	r3, #0
    5302:	6003      	str	r3, [r0, #0]
    5304:	6043      	str	r3, [r0, #4]
    5306:	6083      	str	r3, [r0, #8]
    5308:	60c3      	str	r3, [r0, #12]
    530a:	4770      	bx	lr

0000530c <Host_HCCAInit>:
    530c:	2200      	movs	r2, #0
    530e:	2300      	movs	r3, #0
    5310:	f840 3022 	str.w	r3, [r0, r2, lsl #2]
    5314:	3201      	adds	r2, #1
    5316:	2a20      	cmp	r2, #32
    5318:	f8c0 3080 	str.w	r3, [r0, #128]
    531c:	f8c0 3084 	str.w	r3, [r0, #132]
    5320:	d1f5      	bne.n	530e <Host_HCCAInit+0x2>
    5322:	4770      	bx	lr

00005324 <Host_Init>:
    5324:	4a40      	ldr	r2, [pc, #256]	(5428 <Host_Init+0x104>)
    5326:	e92d 47f0 	stmdb	sp!, {r4, r5, r6, r7, r8, r9, sl, lr}
    532a:	f8d2 30c4 	ldr.w	r3, [r2, #196]
    532e:	f043 4300 	orr.w	r3, r3, #2147483648	; 0x80000000
    5332:	f8c2 30c4 	str.w	r3, [r2, #196]
    5336:	4b3d      	ldr	r3, [pc, #244]	(542c <Host_Init+0x108>)
    5338:	221f      	movs	r2, #31
    533a:	f8c3 2ff4 	str.w	r2, [r3, #4084]
    533e:	4f3b      	ldr	r7, [pc, #236]	(542c <Host_Init+0x108>)
    5340:	f8d7 3ff8 	ldr.w	r3, [r7, #4088]
    5344:	f013 0f1f 	tst.w	r3, #31	; 0x1f
    5348:	d0f9      	beq.n	533e <Host_Init+0x1a>
    534a:	4a39      	ldr	r2, [pc, #228]	(5430 <Host_Init+0x10c>)
    534c:	2303      	movs	r3, #3
    534e:	f8c7 3110 	str.w	r3, [r7, #272]
    5352:	68d1      	ldr	r1, [r2, #12]
    5354:	4b37      	ldr	r3, [pc, #220]	(5434 <Host_Init+0x110>)
    5356:	4e38      	ldr	r6, [pc, #224]	(5438 <Host_Init+0x114>)
    5358:	ea01 0303 	and.w	r3, r1, r3
    535c:	60d3      	str	r3, [r2, #12]
    535e:	68d1      	ldr	r1, [r2, #12]
    5360:	4b36      	ldr	r3, [pc, #216]	(543c <Host_Init+0x118>)
    5362:	f8df 9110 	ldr.w	r9, [pc, #272]	; 5474 <Host_Init+0x150>
    5366:	ea41 0303 	orr.w	r3, r1, r3
    536a:	60d3      	str	r3, [r2, #12]
    536c:	6853      	ldr	r3, [r2, #4]
    536e:	f8df 8108 	ldr.w	r8, [pc, #264]	; 5478 <Host_Init+0x154>
    5372:	f023 5370 	bic.w	r3, r3, #1006632960	; 0x3c000000
    5376:	6053      	str	r3, [r2, #4]
    5378:	6853      	ldr	r3, [r2, #4]
    537a:	4831      	ldr	r0, [pc, #196]	(5440 <Host_Init+0x11c>)
    537c:	f043 53a0 	orr.w	r3, r3, #335544320	; 0x14000000
    5380:	6053      	str	r3, [r2, #4]
    5382:	4b30      	ldr	r3, [pc, #192]	(5444 <Host_Init+0x120>)
    5384:	4d30      	ldr	r5, [pc, #192]	(5448 <Host_Init+0x124>)
    5386:	6033      	str	r3, [r6, #0]
    5388:	f503 7380 	add.w	r3, r3, #256	; 0x100
    538c:	f8c9 3000 	str.w	r3, [r9]
    5390:	3310      	adds	r3, #16
    5392:	f8c8 3000 	str.w	r3, [r8]
    5396:	4b2d      	ldr	r3, [pc, #180]	(544c <Host_Init+0x128>)
    5398:	4c2d      	ldr	r4, [pc, #180]	(5450 <Host_Init+0x12c>)
    539a:	6018      	str	r0, [r3, #0]
    539c:	4b2d      	ldr	r3, [pc, #180]	(5454 <Host_Init+0x130>)
    539e:	4a2e      	ldr	r2, [pc, #184]	(5458 <Host_Init+0x134>)
    53a0:	602b      	str	r3, [r5, #0]
    53a2:	3310      	adds	r3, #16
    53a4:	6023      	str	r3, [r4, #0]
    53a6:	4b2d      	ldr	r3, [pc, #180]	(545c <Host_Init+0x138>)
    53a8:	601a      	str	r2, [r3, #0]
    53aa:	4b2d      	ldr	r3, [pc, #180]	(5460 <Host_Init+0x13c>)
    53ac:	3280      	adds	r2, #128
    53ae:	601a      	str	r2, [r3, #0]
    53b0:	4b2c      	ldr	r3, [pc, #176]	(5464 <Host_Init+0x140>)
    53b2:	f502 6263 	add.w	r2, r2, #3632	; 0xe30
    53b6:	601a      	str	r2, [r3, #0]
    53b8:	f7ff ffa2 	bl	5300 <Host_EDInit>
    53bc:	6828      	ldr	r0, [r5, #0]
    53be:	f7ff ff9f 	bl	5300 <Host_EDInit>
    53c2:	6820      	ldr	r0, [r4, #0]
    53c4:	f7ff ff9c 	bl	5300 <Host_EDInit>
    53c8:	f8d9 0000 	ldr.w	r0, [r9]
    53cc:	f7ff ff92 	bl	52f4 <Host_TDInit>
    53d0:	f8d8 0000 	ldr.w	r0, [r8]
    53d4:	f7ff ff8e 	bl	52f4 <Host_TDInit>
    53d8:	6830      	ldr	r0, [r6, #0]
    53da:	f7ff ff97 	bl	530c <Host_HCCAInit>
    53de:	2032      	movs	r0, #50
    53e0:	f7ff ff28 	bl	5234 <Host_DelayMS>
    53e4:	2100      	movs	r1, #0
    53e6:	2301      	movs	r3, #1
    53e8:	6079      	str	r1, [r7, #4]
    53ea:	6239      	str	r1, [r7, #32]
    53ec:	62b9      	str	r1, [r7, #40]
    53ee:	60bb      	str	r3, [r7, #8]
    53f0:	4b1d      	ldr	r3, [pc, #116]	(5468 <Host_Init+0x144>)
    53f2:	637b      	str	r3, [r7, #52]
    53f4:	687b      	ldr	r3, [r7, #4]
    53f6:	f023 03c0 	bic.w	r3, r3, #192	; 0xc0
    53fa:	f043 0380 	orr.w	r3, r3, #128	; 0x80
    53fe:	607b      	str	r3, [r7, #4]
    5400:	f44f 3380 	mov.w	r3, #65536	; 0x10000
    5404:	653b      	str	r3, [r7, #80]
    5406:	6833      	ldr	r3, [r6, #0]
    5408:	61bb      	str	r3, [r7, #24]
    540a:	68fa      	ldr	r2, [r7, #12]
    540c:	68fb      	ldr	r3, [r7, #12]
    540e:	4313      	orrs	r3, r2
    5410:	60fb      	str	r3, [r7, #12]
    5412:	4b16      	ldr	r3, [pc, #88]	(546c <Host_Init+0x148>)
    5414:	4a16      	ldr	r2, [pc, #88]	(5470 <Host_Init+0x14c>)
    5416:	613b      	str	r3, [r7, #16]
    5418:	f04f 7380 	mov.w	r3, #16777216	; 0x1000000
    541c:	6013      	str	r3, [r2, #0]
    541e:	f882 1318 	strb.w	r1, [r2, #792]
    5422:	e8bd 87f0 	ldmia.w	sp!, {r4, r5, r6, r7, r8, r9, sl, pc}
    5426:	46c0      	nop			(mov r8, r8)
    5428:	400fc000 	.word	0x400fc000
    542c:	5000c000 	.word	0x5000c000
    5430:	4002c000 	.word	0x4002c000
    5434:	ff3fcf0f 	.word	0xff3fcf0f
    5438:	100022f4 	.word	0x100022f4
    543c:	00802090 	.word	0x00802090
    5440:	2007c120 	.word	0x2007c120
    5444:	2007c000 	.word	0x2007c000
    5448:	1000230c 	.word	0x1000230c
    544c:	10002310 	.word	0x10002310
    5450:	100022fc 	.word	0x100022fc
    5454:	2007c130 	.word	0x2007c130
    5458:	2007c150 	.word	0x2007c150
    545c:	10002308 	.word	0x10002308
    5460:	100022f0 	.word	0x100022f0
    5464:	10002300 	.word	0x10002300
    5468:	27782edf 	.word	0x27782edf
    546c:	80000042 	.word	0x80000042
    5470:	e000e100 	.word	0xe000e100
    5474:	10002314 	.word	0x10002314
    5478:	100022f8 	.word	0x100022f8

0000547c <Host_WDHWait>:
    547c:	4a03      	ldr	r2, [pc, #12]	(548c <Host_WDHWait+0x10>)
    547e:	6813      	ldr	r3, [r2, #0]
    5480:	2b00      	cmp	r3, #0
    5482:	d0fb      	beq.n	547c <Host_WDHWait>
    5484:	2300      	movs	r3, #0
    5486:	6013      	str	r3, [r2, #0]
    5488:	4770      	bx	lr
    548a:	46c0      	nop			(mov r8, r8)
    548c:	100004b0 	.word	0x100004b0

00005490 <Host_ProcessTD>:
    5490:	b57f      	push	{r0, r1, r2, r3, r4, r5, r6, lr}
    5492:	469e      	mov	lr, r3
    5494:	4b27      	ldr	r3, [pc, #156]	(5534 <Host_ProcessTD+0xa4>)
    5496:	4604      	mov	r4, r0
    5498:	681e      	ldr	r6, [r3, #0]
    549a:	9101      	str	r1, [sp, #4]
    549c:	42b0      	cmp	r0, r6
    549e:	4615      	mov	r5, r2
    54a0:	d107      	bne.n	54b2 <Host_ProcessTD+0x22>
    54a2:	9b01      	ldr	r3, [sp, #4]
    54a4:	b913      	cbnz	r3, 54ac <Host_ProcessTD+0x1c>
    54a6:	f103 7300 	add.w	r3, r3, #33554432	; 0x2000000
    54aa:	e003      	b.n	54b4 <Host_ProcessTD+0x24>
    54ac:	f04f 7340 	mov.w	r3, #50331648	; 0x3000000
    54b0:	e000      	b.n	54b4 <Host_ProcessTD+0x24>
    54b2:	2300      	movs	r3, #0
    54b4:	9303      	str	r3, [sp, #12]
    54b6:	4b20      	ldr	r3, [pc, #128]	(5538 <Host_ProcessTD+0xa8>)
    54b8:	2000      	movs	r0, #0
    54ba:	6819      	ldr	r1, [r3, #0]
    54bc:	9b01      	ldr	r3, [sp, #4]
    54be:	9a03      	ldr	r2, [sp, #12]
    54c0:	4313      	orrs	r3, r2
    54c2:	f043 4370 	orr.w	r3, r3, #4026531840	; 0xf0000000
    54c6:	f443 2380 	orr.w	r3, r3, #262144	; 0x40000
    54ca:	600b      	str	r3, [r1, #0]
    54cc:	4b1b      	ldr	r3, [pc, #108]	(553c <Host_ProcessTD+0xac>)
    54ce:	681a      	ldr	r2, [r3, #0]
    54d0:	1e6b      	subs	r3, r5, #1
    54d2:	4473      	add	r3, lr
    54d4:	6010      	str	r0, [r2, #0]
    54d6:	604d      	str	r5, [r1, #4]
    54d8:	6050      	str	r0, [r2, #4]
    54da:	608a      	str	r2, [r1, #8]
    54dc:	6090      	str	r0, [r2, #8]
    54de:	60cb      	str	r3, [r1, #12]
    54e0:	60d0      	str	r0, [r2, #12]
    54e2:	68a3      	ldr	r3, [r4, #8]
    54e4:	f003 0302 	and.w	r3, r3, #2	; 0x2
    54e8:	4319      	orrs	r1, r3
    54ea:	42b4      	cmp	r4, r6
    54ec:	60a1      	str	r1, [r4, #8]
    54ee:	6062      	str	r2, [r4, #4]
    54f0:	60e0      	str	r0, [r4, #12]
    54f2:	d109      	bne.n	5508 <Host_ProcessTD+0x78>
    54f4:	4b12      	ldr	r3, [pc, #72]	(5540 <Host_ProcessTD+0xb0>)
    54f6:	621c      	str	r4, [r3, #32]
    54f8:	689a      	ldr	r2, [r3, #8]
    54fa:	f042 0202 	orr.w	r2, r2, #2	; 0x2
    54fe:	609a      	str	r2, [r3, #8]
    5500:	685a      	ldr	r2, [r3, #4]
    5502:	f042 0210 	orr.w	r2, r2, #16	; 0x10
    5506:	e008      	b.n	551a <Host_ProcessTD+0x8a>
    5508:	4b0d      	ldr	r3, [pc, #52]	(5540 <Host_ProcessTD+0xb0>)
    550a:	629c      	str	r4, [r3, #40]
    550c:	689a      	ldr	r2, [r3, #8]
    550e:	f042 0204 	orr.w	r2, r2, #4	; 0x4
    5512:	609a      	str	r2, [r3, #8]
    5514:	685a      	ldr	r2, [r3, #4]
    5516:	f042 0220 	orr.w	r2, r2, #32	; 0x20
    551a:	605a      	str	r2, [r3, #4]
    551c:	f7ff ffae 	bl	547c <Host_WDHWait>
    5520:	4b08      	ldr	r3, [pc, #32]	(5544 <Host_ProcessTD+0xb4>)
    5522:	7818      	ldrb	r0, [r3, #0]
    5524:	2800      	cmp	r0, #0
    5526:	bf14      	ite	ne
    5528:	f04f 30ff 	movne.w	r0, #4294967295	; 0xffffffff
    552c:	2000      	moveq	r0, #0
    552e:	b004      	add	sp, #16
    5530:	bd70      	pop	{r4, r5, r6, pc}
    5532:	46c0      	nop			(mov r8, r8)
    5534:	10002310 	.word	0x10002310
    5538:	10002314 	.word	0x10002314
    553c:	100022f8 	.word	0x100022f8
    5540:	5000c000 	.word	0x5000c000
    5544:	100004a8 	.word	0x100004a8

00005548 <WriteLE32U>:
    5548:	b082      	sub	sp, #8
    554a:	9101      	str	r1, [sp, #4]
    554c:	f89d 3004 	ldrb.w	r3, [sp, #4]
    5550:	7003      	strb	r3, [r0, #0]
    5552:	f89d 3005 	ldrb.w	r3, [sp, #5]
    5556:	7043      	strb	r3, [r0, #1]
    5558:	f89d 3006 	ldrb.w	r3, [sp, #6]
    555c:	7083      	strb	r3, [r0, #2]
    555e:	f89d 3007 	ldrb.w	r3, [sp, #7]
    5562:	70c3      	strb	r3, [r0, #3]
    5564:	b002      	add	sp, #8
    5566:	4770      	bx	lr

00005568 <ReadLE16U>:
    5568:	7803      	ldrb	r3, [r0, #0]
    556a:	b082      	sub	sp, #8
    556c:	f88d 3006 	strb.w	r3, [sp, #6]
    5570:	7843      	ldrb	r3, [r0, #1]
    5572:	f88d 3007 	strb.w	r3, [sp, #7]
    5576:	f8bd 0006 	ldrh.w	r0, [sp, #6]
    557a:	b002      	add	sp, #8
    557c:	4770      	bx	lr
    557e:	46c0      	nop			(mov r8, r8)

00005580 <WriteLE16U>:
    5580:	b082      	sub	sp, #8
    5582:	f8ad 1006 	strh.w	r1, [sp, #6]
    5586:	f89d 3006 	ldrb.w	r3, [sp, #6]
    558a:	7003      	strb	r3, [r0, #0]
    558c:	f89d 3007 	ldrb.w	r3, [sp, #7]
    5590:	7043      	strb	r3, [r0, #1]
    5592:	b002      	add	sp, #8
    5594:	4770      	bx	lr
    5596:	46c0      	nop			(mov r8, r8)

00005598 <Host_FillSetup>:
    5598:	b570      	push	{r4, r5, r6, lr}
    559a:	4694      	mov	ip, r2
    559c:	461e      	mov	r6, r3
    559e:	f8bd 5010 	ldrh.w	r5, [sp, #16]
    55a2:	f04f 0e00 	mov.w	lr, #0	; 0x0
    55a6:	e005      	b.n	55b4 <Host_FillSetup+0x1c>
    55a8:	6822      	ldr	r2, [r4, #0]
    55aa:	2300      	movs	r3, #0
    55ac:	f80e 3002 	strb.w	r3, [lr, r2]
    55b0:	f10e 0e01 	add.w	lr, lr, #1	; 0x1
    55b4:	45ae      	cmp	lr, r5
    55b6:	4c0b      	ldr	r4, [pc, #44]	(55e4 <Host_FillSetup+0x4c>)
    55b8:	d1f6      	bne.n	55a8 <Host_FillSetup+0x10>
    55ba:	6823      	ldr	r3, [r4, #0]
    55bc:	7018      	strb	r0, [r3, #0]
    55be:	6823      	ldr	r3, [r4, #0]
    55c0:	7059      	strb	r1, [r3, #1]
    55c2:	6820      	ldr	r0, [r4, #0]
    55c4:	4661      	mov	r1, ip
    55c6:	3002      	adds	r0, #2
    55c8:	f7ff ffda 	bl	5580 <WriteLE16U>
    55cc:	6820      	ldr	r0, [r4, #0]
    55ce:	4631      	mov	r1, r6
    55d0:	3004      	adds	r0, #4
    55d2:	f7ff ffd5 	bl	5580 <WriteLE16U>
    55d6:	6820      	ldr	r0, [r4, #0]
    55d8:	4629      	mov	r1, r5
    55da:	3006      	adds	r0, #6
    55dc:	f7ff ffd0 	bl	5580 <WriteLE16U>
    55e0:	bd70      	pop	{r4, r5, r6, pc}
    55e2:	46c0      	nop			(mov r8, r8)
    55e4:	10002308 	.word	0x10002308

000055e8 <Host_CtrlSend>:
    55e8:	b573      	push	{r0, r1, r4, r5, r6, lr}
    55ea:	4d11      	ldr	r5, [pc, #68]	(5630 <Host_CtrlSend+0x48>)
    55ec:	f8bd 4018 	ldrh.w	r4, [sp, #24]
    55f0:	4e10      	ldr	r6, [pc, #64]	(5634 <Host_CtrlSend+0x4c>)
    55f2:	9400      	str	r4, [sp, #0]
    55f4:	f7ff ffd0 	bl	5598 <Host_FillSetup>
    55f8:	2308      	movs	r3, #8
    55fa:	6828      	ldr	r0, [r5, #0]
    55fc:	2100      	movs	r1, #0
    55fe:	6832      	ldr	r2, [r6, #0]
    5600:	f7ff ff46 	bl	5490 <Host_ProcessTD>
    5604:	4603      	mov	r3, r0
    5606:	b988      	cbnz	r0, 562c <Host_CtrlSend+0x44>
    5608:	b144      	cbz	r4, 561c <Host_CtrlSend+0x34>
    560a:	4623      	mov	r3, r4
    560c:	6828      	ldr	r0, [r5, #0]
    560e:	f44f 2100 	mov.w	r1, #524288	; 0x80000
    5612:	6832      	ldr	r2, [r6, #0]
    5614:	f7ff ff3c 	bl	5490 <Host_ProcessTD>
    5618:	4603      	mov	r3, r0
    561a:	b938      	cbnz	r0, 562c <Host_CtrlSend+0x44>
    561c:	2200      	movs	r2, #0
    561e:	4613      	mov	r3, r2
    5620:	6828      	ldr	r0, [r5, #0]
    5622:	f44f 1180 	mov.w	r1, #1048576	; 0x100000
    5626:	f7ff ff33 	bl	5490 <Host_ProcessTD>
    562a:	4603      	mov	r3, r0
    562c:	4618      	mov	r0, r3
    562e:	bd7c      	pop	{r2, r3, r4, r5, r6, pc}
    5630:	10002310 	.word	0x10002310
    5634:	10002308 	.word	0x10002308

00005638 <Host_CtrlRecv>:
    5638:	b573      	push	{r0, r1, r4, r5, r6, lr}
    563a:	4d11      	ldr	r5, [pc, #68]	(5680 <Host_CtrlRecv+0x48>)
    563c:	f8bd 4018 	ldrh.w	r4, [sp, #24]
    5640:	4e10      	ldr	r6, [pc, #64]	(5684 <Host_CtrlRecv+0x4c>)
    5642:	9400      	str	r4, [sp, #0]
    5644:	f7ff ffa8 	bl	5598 <Host_FillSetup>
    5648:	2308      	movs	r3, #8
    564a:	6828      	ldr	r0, [r5, #0]
    564c:	2100      	movs	r1, #0
    564e:	6832      	ldr	r2, [r6, #0]
    5650:	f7ff ff1e 	bl	5490 <Host_ProcessTD>
    5654:	4603      	mov	r3, r0
    5656:	b988      	cbnz	r0, 567c <Host_CtrlRecv+0x44>
    5658:	b144      	cbz	r4, 566c <Host_CtrlRecv+0x34>
    565a:	4623      	mov	r3, r4
    565c:	6828      	ldr	r0, [r5, #0]
    565e:	f44f 1180 	mov.w	r1, #1048576	; 0x100000
    5662:	6832      	ldr	r2, [r6, #0]
    5664:	f7ff ff14 	bl	5490 <Host_ProcessTD>
    5668:	4603      	mov	r3, r0
    566a:	b938      	cbnz	r0, 567c <Host_CtrlRecv+0x44>
    566c:	2200      	movs	r2, #0
    566e:	4613      	mov	r3, r2
    5670:	6828      	ldr	r0, [r5, #0]
    5672:	f44f 2100 	mov.w	r1, #524288	; 0x80000
    5676:	f7ff ff0b 	bl	5490 <Host_ProcessTD>
    567a:	4603      	mov	r3, r0
    567c:	4618      	mov	r0, r3
    567e:	bd7c      	pop	{r2, r3, r4, r5, r6, pc}
    5680:	10002310 	.word	0x10002310
    5684:	10002308 	.word	0x10002308

00005688 <ReadBE32U>:
    5688:	78c3      	ldrb	r3, [r0, #3]
    568a:	b082      	sub	sp, #8
    568c:	f88d 3004 	strb.w	r3, [sp, #4]
    5690:	7883      	ldrb	r3, [r0, #2]
    5692:	f88d 3005 	strb.w	r3, [sp, #5]
    5696:	7843      	ldrb	r3, [r0, #1]
    5698:	f88d 3006 	strb.w	r3, [sp, #6]
    569c:	7803      	ldrb	r3, [r0, #0]
    569e:	f88d 3007 	strb.w	r3, [sp, #7]
    56a2:	9801      	ldr	r0, [sp, #4]
    56a4:	b002      	add	sp, #8
    56a6:	4770      	bx	lr

000056a8 <WriteBE32U>:
    56a8:	b082      	sub	sp, #8
    56aa:	9101      	str	r1, [sp, #4]
    56ac:	f89d 3007 	ldrb.w	r3, [sp, #7]
    56b0:	7003      	strb	r3, [r0, #0]
    56b2:	f89d 3006 	ldrb.w	r3, [sp, #6]
    56b6:	7043      	strb	r3, [r0, #1]
    56b8:	f89d 3005 	ldrb.w	r3, [sp, #5]
    56bc:	7083      	strb	r3, [r0, #2]
    56be:	f89d 3004 	ldrb.w	r3, [sp, #4]
    56c2:	70c3      	strb	r3, [r0, #3]
    56c4:	b002      	add	sp, #8
    56c6:	4770      	bx	lr

000056c8 <WriteBE16U>:
    56c8:	b082      	sub	sp, #8
    56ca:	f8ad 1006 	strh.w	r1, [sp, #6]
    56ce:	f89d 3007 	ldrb.w	r3, [sp, #7]
    56d2:	7003      	strb	r3, [r0, #0]
    56d4:	f89d 3006 	ldrb.w	r3, [sp, #6]
    56d8:	7043      	strb	r3, [r0, #1]
    56da:	b002      	add	sp, #8
    56dc:	4770      	bx	lr
    56de:	46c0      	nop			(mov r8, r8)

000056e0 <Host_EnumDev>:
    56e0:	b573      	push	{r0, r1, r4, r5, r6, lr}
    56e2:	4b37      	ldr	r3, [pc, #220]	(57c0 <Host_EnumDev+0xe0>)
    56e4:	681b      	ldr	r3, [r3, #0]
    56e6:	2b00      	cmp	r3, #0
    56e8:	d0fb      	beq.n	56e2 <Host_EnumDev+0x2>
    56ea:	2064      	movs	r0, #100
    56ec:	f7ff fda2 	bl	5234 <Host_DelayMS>
    56f0:	4b34      	ldr	r3, [pc, #208]	(57c4 <Host_EnumDev+0xe4>)
    56f2:	2210      	movs	r2, #16
    56f4:	655a      	str	r2, [r3, #84]
    56f6:	4a33      	ldr	r2, [pc, #204]	(57c4 <Host_EnumDev+0xe4>)
    56f8:	6d53      	ldr	r3, [r2, #84]
    56fa:	f013 0410 	ands.w	r4, r3, #16	; 0x10
    56fe:	d1fa      	bne.n	56f6 <Host_EnumDev+0x16>
    5700:	f44f 1380 	mov.w	r3, #1048576	; 0x100000
    5704:	4e30      	ldr	r6, [pc, #192]	(57c8 <Host_EnumDev+0xe8>)
    5706:	6553      	str	r3, [r2, #84]
    5708:	20c8      	movs	r0, #200
    570a:	f7ff fd93 	bl	5234 <Host_DelayMS>
    570e:	4d2f      	ldr	r5, [pc, #188]	(57cc <Host_EnumDev+0xec>)
    5710:	6832      	ldr	r2, [r6, #0]
    5712:	f44f 2300 	mov.w	r3, #524288	; 0x80000
    5716:	6013      	str	r3, [r2, #0]
    5718:	682a      	ldr	r2, [r5, #0]
    571a:	2308      	movs	r3, #8
    571c:	9300      	str	r3, [sp, #0]
    571e:	9201      	str	r2, [sp, #4]
    5720:	4623      	mov	r3, r4
    5722:	2080      	movs	r0, #128
    5724:	2106      	movs	r1, #6
    5726:	f44f 7280 	mov.w	r2, #256	; 0x100
    572a:	f7ff ff85 	bl	5638 <Host_CtrlRecv>
    572e:	4604      	mov	r4, r0
    5730:	2800      	cmp	r0, #0
    5732:	d142      	bne.n	57ba <Host_EnumDev+0xda>
    5734:	682b      	ldr	r3, [r5, #0]
    5736:	6832      	ldr	r2, [r6, #0]
    5738:	79db      	ldrb	r3, [r3, #7]
    573a:	2105      	movs	r1, #5
    573c:	041b      	lsls	r3, r3, #16
    573e:	6013      	str	r3, [r2, #0]
    5740:	2201      	movs	r2, #1
    5742:	4603      	mov	r3, r0
    5744:	9000      	str	r0, [sp, #0]
    5746:	9001      	str	r0, [sp, #4]
    5748:	f7ff ff4e 	bl	55e8 <Host_CtrlSend>
    574c:	4604      	mov	r4, r0
    574e:	2800      	cmp	r0, #0
    5750:	d133      	bne.n	57ba <Host_EnumDev+0xda>
    5752:	3002      	adds	r0, #2
    5754:	f7ff fd6e 	bl	5234 <Host_DelayMS>
    5758:	6833      	ldr	r3, [r6, #0]
    575a:	2080      	movs	r0, #128
    575c:	681a      	ldr	r2, [r3, #0]
    575e:	2609      	movs	r6, #9
    5760:	f042 0201 	orr.w	r2, r2, #1	; 0x1
    5764:	601a      	str	r2, [r3, #0]
    5766:	682b      	ldr	r3, [r5, #0]
    5768:	2106      	movs	r1, #6
    576a:	9301      	str	r3, [sp, #4]
    576c:	f44f 7200 	mov.w	r2, #512	; 0x200
    5770:	4623      	mov	r3, r4
    5772:	9600      	str	r6, [sp, #0]
    5774:	f7ff ff60 	bl	5638 <Host_CtrlRecv>
    5778:	4604      	mov	r4, r0
    577a:	b9f0      	cbnz	r0, 57ba <Host_EnumDev+0xda>
    577c:	6828      	ldr	r0, [r5, #0]
    577e:	3002      	adds	r0, #2
    5780:	f7ff fef2 	bl	5568 <ReadLE16U>
    5784:	682b      	ldr	r3, [r5, #0]
    5786:	9000      	str	r0, [sp, #0]
    5788:	9301      	str	r3, [sp, #4]
    578a:	2080      	movs	r0, #128
    578c:	4623      	mov	r3, r4
    578e:	2106      	movs	r1, #6
    5790:	f44f 7200 	mov.w	r2, #512	; 0x200
    5794:	f7ff ff50 	bl	5638 <Host_CtrlRecv>
    5798:	4604      	mov	r4, r0
    579a:	b970      	cbnz	r0, 57ba <Host_EnumDev+0xda>
    579c:	f000 fa22 	bl	5be4 <MS_ParseConfiguration>
    57a0:	4604      	mov	r4, r0
    57a2:	b950      	cbnz	r0, 57ba <Host_EnumDev+0xda>
    57a4:	4631      	mov	r1, r6
    57a6:	2201      	movs	r2, #1
    57a8:	4603      	mov	r3, r0
    57aa:	9000      	str	r0, [sp, #0]
    57ac:	9001      	str	r0, [sp, #4]
    57ae:	f7ff ff1b 	bl	55e8 <Host_CtrlSend>
    57b2:	4604      	mov	r4, r0
    57b4:	2064      	movs	r0, #100
    57b6:	f7ff fd3d 	bl	5234 <Host_DelayMS>
    57ba:	4620      	mov	r0, r4
    57bc:	bd7c      	pop	{r2, r3, r4, r5, r6, pc}
    57be:	46c0      	nop			(mov r8, r8)
    57c0:	100004ac 	.word	0x100004ac
    57c4:	5000c000 	.word	0x5000c000
    57c8:	10002310 	.word	0x10002310
    57cc:	10002308 	.word	0x10002308

000057d0 <Fill_MSCommand>:
    57d0:	e92d 47f0 	stmdb	sp!, {r4, r5, r6, r7, r8, r9, sl, lr}
    57d4:	f89d 5020 	ldrb.w	r5, [sp, #32]
    57d8:	f89d 9024 	ldrb.w	r9, [sp, #36]
    57dc:	4682      	mov	sl, r0
    57de:	4690      	mov	r8, r2
    57e0:	461f      	mov	r7, r3
    57e2:	2000      	movs	r0, #0
    57e4:	4b22      	ldr	r3, [pc, #136]	(5870 <Fill_MSCommand+0xa0>)
    57e6:	681a      	ldr	r2, [r3, #0]
    57e8:	2300      	movs	r3, #0
    57ea:	5483      	strb	r3, [r0, r2]
    57ec:	3001      	adds	r0, #1
    57ee:	281f      	cmp	r0, #31
    57f0:	d1f8      	bne.n	57e4 <Fill_MSCommand+0x14>
    57f2:	2d03      	cmp	r5, #3
    57f4:	d007      	beq.n	5806 <Fill_MSCommand+0x36>
    57f6:	d801      	bhi.n	57fc <Fill_MSCommand+0x2c>
    57f8:	b14d      	cbz	r5, 580e <Fill_MSCommand+0x3e>
    57fa:	e00c      	b.n	5816 <Fill_MSCommand+0x46>
    57fc:	2d12      	cmp	r5, #18
    57fe:	d004      	beq.n	580a <Fill_MSCommand+0x3a>
    5800:	2d25      	cmp	r5, #37
    5802:	d006      	beq.n	5812 <Fill_MSCommand+0x42>
    5804:	e007      	b.n	5816 <Fill_MSCommand+0x46>
    5806:	2612      	movs	r6, #18
    5808:	e007      	b.n	581a <Fill_MSCommand+0x4a>
    580a:	2624      	movs	r6, #36
    580c:	e005      	b.n	581a <Fill_MSCommand+0x4a>
    580e:	462e      	mov	r6, r5
    5810:	e003      	b.n	581a <Fill_MSCommand+0x4a>
    5812:	2608      	movs	r6, #8
    5814:	e001      	b.n	581a <Fill_MSCommand+0x4a>
    5816:	fb01 f608 	mul.w	r6, r1, r8
    581a:	4c15      	ldr	r4, [pc, #84]	(5870 <Fill_MSCommand+0xa0>)
    581c:	4915      	ldr	r1, [pc, #84]	(5874 <Fill_MSCommand+0xa4>)
    581e:	6820      	ldr	r0, [r4, #0]
    5820:	f7ff fe92 	bl	5548 <WriteLE32U>
    5824:	6820      	ldr	r0, [r4, #0]
    5826:	2100      	movs	r1, #0
    5828:	3004      	adds	r0, #4
    582a:	f7ff fe8d 	bl	5548 <WriteLE32U>
    582e:	6820      	ldr	r0, [r4, #0]
    5830:	4631      	mov	r1, r6
    5832:	3008      	adds	r0, #8
    5834:	f7ff fe88 	bl	5548 <WriteLE32U>
    5838:	6820      	ldr	r0, [r4, #0]
    583a:	2f01      	cmp	r7, #1
    583c:	bf08      	it	eq
    583e:	2700      	moveq	r7, #0
    5840:	2d03      	cmp	r5, #3
    5842:	7307      	strb	r7, [r0, #12]
    5844:	f880 900e 	strb.w	r9, [r0, #14]
    5848:	73c5      	strb	r5, [r0, #15]
    584a:	d001      	beq.n	5850 <Fill_MSCommand+0x80>
    584c:	2d12      	cmp	r5, #18
    584e:	d102      	bne.n	5856 <Fill_MSCommand+0x86>
    5850:	b2f3      	uxtb	r3, r6
    5852:	74c3      	strb	r3, [r0, #19]
    5854:	e003      	b.n	585e <Fill_MSCommand+0x8e>
    5856:	3011      	adds	r0, #17
    5858:	4651      	mov	r1, sl
    585a:	f7ff ff25 	bl	56a8 <WriteBE32U>
    585e:	4b04      	ldr	r3, [pc, #16]	(5870 <Fill_MSCommand+0xa0>)
    5860:	4641      	mov	r1, r8
    5862:	6818      	ldr	r0, [r3, #0]
    5864:	3016      	adds	r0, #22
    5866:	f7ff ff2f 	bl	56c8 <WriteBE16U>
    586a:	e8bd 87f0 	ldmia.w	sp!, {r4, r5, r6, r7, r8, r9, sl, pc}
    586e:	46c0      	nop			(mov r8, r8)
    5870:	10002308 	.word	0x10002308
    5874:	43425355 	.word	0x43425355

00005878 <MS_BulkSend>:
    5878:	e92d 41f3 	stmdb	sp!, {r0, r1, r4, r5, r6, r7, r8, lr}
    587c:	232a      	movs	r3, #42
    587e:	f8df 807c 	ldr.w	r8, [pc, #124]	; 58fc <MS_BulkSend+0x84>
    5882:	460e      	mov	r6, r1
    5884:	9300      	str	r3, [sp, #0]
    5886:	4d1a      	ldr	r5, [pc, #104]	(58f0 <MS_BulkSend+0x78>)
    5888:	230a      	movs	r3, #10
    588a:	4c1a      	ldr	r4, [pc, #104]	(58f4 <MS_BulkSend+0x7c>)
    588c:	f8d8 1000 	ldr.w	r1, [r8]
    5890:	9301      	str	r3, [sp, #4]
    5892:	4617      	mov	r7, r2
    5894:	2300      	movs	r3, #0
    5896:	4632      	mov	r2, r6
    5898:	f7ff ff9a 	bl	57d0 <Fill_MSCommand>
    589c:	231f      	movs	r3, #31
    589e:	6828      	ldr	r0, [r5, #0]
    58a0:	f44f 2100 	mov.w	r1, #524288	; 0x80000
    58a4:	6822      	ldr	r2, [r4, #0]
    58a6:	f7ff fdf3 	bl	5490 <Host_ProcessTD>
    58aa:	4603      	mov	r3, r0
    58ac:	b9e0      	cbnz	r0, 58e8 <MS_BulkSend+0x70>
    58ae:	f8d8 3000 	ldr.w	r3, [r8]
    58b2:	6828      	ldr	r0, [r5, #0]
    58b4:	fb03 f306 	mul.w	r3, r3, r6
    58b8:	f44f 2100 	mov.w	r1, #524288	; 0x80000
    58bc:	463a      	mov	r2, r7
    58be:	f7ff fde7 	bl	5490 <Host_ProcessTD>
    58c2:	4603      	mov	r3, r0
    58c4:	b980      	cbnz	r0, 58e8 <MS_BulkSend+0x70>
    58c6:	4b0c      	ldr	r3, [pc, #48]	(58f8 <MS_BulkSend+0x80>)
    58c8:	f44f 1180 	mov.w	r1, #1048576	; 0x100000
    58cc:	6818      	ldr	r0, [r3, #0]
    58ce:	6822      	ldr	r2, [r4, #0]
    58d0:	230d      	movs	r3, #13
    58d2:	f7ff fddd 	bl	5490 <Host_ProcessTD>
    58d6:	4603      	mov	r3, r0
    58d8:	b930      	cbnz	r0, 58e8 <MS_BulkSend+0x70>
    58da:	6823      	ldr	r3, [r4, #0]
    58dc:	7b1b      	ldrb	r3, [r3, #12]
    58de:	2b00      	cmp	r3, #0
    58e0:	bf0c      	ite	eq
    58e2:	2300      	moveq	r3, #0
    58e4:	f06f 0309 	mvnne.w	r3, #9	; 0x9
    58e8:	4618      	mov	r0, r3
    58ea:	e8bd 81fc 	ldmia.w	sp!, {r2, r3, r4, r5, r6, r7, r8, pc}
    58ee:	46c0      	nop			(mov r8, r8)
    58f0:	100022fc 	.word	0x100022fc
    58f4:	10002308 	.word	0x10002308
    58f8:	1000230c 	.word	0x1000230c
    58fc:	10002318 	.word	0x10002318

00005900 <MS_BulkRecv>:
    5900:	4b21      	ldr	r3, [pc, #132]	(5988 <MS_BulkRecv+0x88>)
    5902:	b5f7      	push	{r0, r1, r2, r4, r5, r6, r7, lr}
    5904:	681d      	ldr	r5, [r3, #0]
    5906:	460c      	mov	r4, r1
    5908:	4617      	mov	r7, r2
    590a:	fb05 fe01 	mul.w	lr, r5, r1
    590e:	4611      	mov	r1, r2
    5910:	2200      	movs	r2, #0
    5912:	e003      	b.n	591c <MS_BulkRecv+0x1c>
    5914:	2300      	movs	r3, #0
    5916:	f801 3b01 	strb.w	r3, [r1], #1
    591a:	3201      	adds	r2, #1
    591c:	4572      	cmp	r2, lr
    591e:	d1f9      	bne.n	5914 <MS_BulkRecv+0x14>
    5920:	2328      	movs	r3, #40
    5922:	9300      	str	r3, [sp, #0]
    5924:	230a      	movs	r3, #10
    5926:	4629      	mov	r1, r5
    5928:	9301      	str	r3, [sp, #4]
    592a:	4622      	mov	r2, r4
    592c:	3376      	adds	r3, #118
    592e:	f7ff ff4f 	bl	57d0 <Fill_MSCommand>
    5932:	4d16      	ldr	r5, [pc, #88]	(598c <MS_BulkRecv+0x8c>)
    5934:	4b16      	ldr	r3, [pc, #88]	(5990 <MS_BulkRecv+0x90>)
    5936:	f44f 2100 	mov.w	r1, #524288	; 0x80000
    593a:	6818      	ldr	r0, [r3, #0]
    593c:	682a      	ldr	r2, [r5, #0]
    593e:	231f      	movs	r3, #31
    5940:	f7ff fda6 	bl	5490 <Host_ProcessTD>
    5944:	4603      	mov	r3, r0
    5946:	b9e0      	cbnz	r0, 5982 <MS_BulkRecv+0x82>
    5948:	4b0f      	ldr	r3, [pc, #60]	(5988 <MS_BulkRecv+0x88>)
    594a:	4e12      	ldr	r6, [pc, #72]	(5994 <MS_BulkRecv+0x94>)
    594c:	681b      	ldr	r3, [r3, #0]
    594e:	6830      	ldr	r0, [r6, #0]
    5950:	fb03 f304 	mul.w	r3, r3, r4
    5954:	f44f 1180 	mov.w	r1, #1048576	; 0x100000
    5958:	463a      	mov	r2, r7
    595a:	f7ff fd99 	bl	5490 <Host_ProcessTD>
    595e:	4603      	mov	r3, r0
    5960:	b978      	cbnz	r0, 5982 <MS_BulkRecv+0x82>
    5962:	230d      	movs	r3, #13
    5964:	6830      	ldr	r0, [r6, #0]
    5966:	f44f 1180 	mov.w	r1, #1048576	; 0x100000
    596a:	682a      	ldr	r2, [r5, #0]
    596c:	f7ff fd90 	bl	5490 <Host_ProcessTD>
    5970:	4603      	mov	r3, r0
    5972:	b930      	cbnz	r0, 5982 <MS_BulkRecv+0x82>
    5974:	682b      	ldr	r3, [r5, #0]
    5976:	7b1b      	ldrb	r3, [r3, #12]
    5978:	2b00      	cmp	r3, #0
    597a:	bf0c      	ite	eq
    597c:	2300      	moveq	r3, #0
    597e:	f06f 0309 	mvnne.w	r3, #9	; 0x9
    5982:	4618      	mov	r0, r3
    5984:	bdfe      	pop	{r1, r2, r3, r4, r5, r6, r7, pc}
    5986:	46c0      	nop			(mov r8, r8)
    5988:	10002318 	.word	0x10002318
    598c:	10002308 	.word	0x10002308
    5990:	100022fc 	.word	0x100022fc
    5994:	1000230c 	.word	0x1000230c

00005998 <MS_Inquire>:
    5998:	b537      	push	{r0, r1, r2, r4, r5, lr}
    599a:	2312      	movs	r3, #18
    599c:	9300      	str	r3, [sp, #0]
    599e:	4604      	mov	r4, r0
    59a0:	2306      	movs	r3, #6
    59a2:	2000      	movs	r0, #0
    59a4:	4601      	mov	r1, r0
    59a6:	4602      	mov	r2, r0
    59a8:	9301      	str	r3, [sp, #4]
    59aa:	337a      	adds	r3, #122
    59ac:	f7ff ff10 	bl	57d0 <Fill_MSCommand>
    59b0:	4d19      	ldr	r5, [pc, #100]	(5a18 <MS_Inquire+0x80>)
    59b2:	4b1a      	ldr	r3, [pc, #104]	(5a1c <MS_Inquire+0x84>)
    59b4:	f44f 2100 	mov.w	r1, #524288	; 0x80000
    59b8:	6818      	ldr	r0, [r3, #0]
    59ba:	682a      	ldr	r2, [r5, #0]
    59bc:	231f      	movs	r3, #31
    59be:	f7ff fd67 	bl	5490 <Host_ProcessTD>
    59c2:	4603      	mov	r3, r0
    59c4:	bb30      	cbnz	r0, 5a14 <MS_Inquire+0x7c>
    59c6:	4b16      	ldr	r3, [pc, #88]	(5a20 <MS_Inquire+0x88>)
    59c8:	f44f 1180 	mov.w	r1, #1048576	; 0x100000
    59cc:	6818      	ldr	r0, [r3, #0]
    59ce:	682a      	ldr	r2, [r5, #0]
    59d0:	2324      	movs	r3, #36
    59d2:	f7ff fd5d 	bl	5490 <Host_ProcessTD>
    59d6:	4603      	mov	r3, r0
    59d8:	b9e0      	cbnz	r0, 5a14 <MS_Inquire+0x7c>
    59da:	b14c      	cbz	r4, 59f0 <MS_Inquire+0x58>
    59dc:	4b0e      	ldr	r3, [pc, #56]	(5a18 <MS_Inquire+0x80>)
    59de:	3001      	adds	r0, #1
    59e0:	681a      	ldr	r2, [r3, #0]
    59e2:	2824      	cmp	r0, #36
    59e4:	f812 1b01 	ldrb.w	r1, [r2], #1
    59e8:	f804 1b01 	strb.w	r1, [r4], #1
    59ec:	601a      	str	r2, [r3, #0]
    59ee:	d1f5      	bne.n	59dc <MS_Inquire+0x44>
    59f0:	4b0b      	ldr	r3, [pc, #44]	(5a20 <MS_Inquire+0x88>)
    59f2:	4c09      	ldr	r4, [pc, #36]	(5a18 <MS_Inquire+0x80>)
    59f4:	6818      	ldr	r0, [r3, #0]
    59f6:	f44f 1180 	mov.w	r1, #1048576	; 0x100000
    59fa:	230d      	movs	r3, #13
    59fc:	6822      	ldr	r2, [r4, #0]
    59fe:	f7ff fd47 	bl	5490 <Host_ProcessTD>
    5a02:	4603      	mov	r3, r0
    5a04:	b930      	cbnz	r0, 5a14 <MS_Inquire+0x7c>
    5a06:	6823      	ldr	r3, [r4, #0]
    5a08:	7b1b      	ldrb	r3, [r3, #12]
    5a0a:	2b00      	cmp	r3, #0
    5a0c:	bf0c      	ite	eq
    5a0e:	2300      	moveq	r3, #0
    5a10:	f06f 0309 	mvnne.w	r3, #9	; 0x9
    5a14:	4618      	mov	r0, r3
    5a16:	bd3e      	pop	{r1, r2, r3, r4, r5, pc}
    5a18:	10002308 	.word	0x10002308
    5a1c:	100022fc 	.word	0x100022fc
    5a20:	1000230c 	.word	0x1000230c

00005a24 <MS_TestUnitReady>:
    5a24:	b513      	push	{r0, r1, r4, lr}
    5a26:	2306      	movs	r3, #6
    5a28:	2000      	movs	r0, #0
    5a2a:	4601      	mov	r1, r0
    5a2c:	4602      	mov	r2, r0
    5a2e:	9301      	str	r3, [sp, #4]
    5a30:	2301      	movs	r3, #1
    5a32:	9000      	str	r0, [sp, #0]
    5a34:	4c0f      	ldr	r4, [pc, #60]	(5a74 <MS_TestUnitReady+0x50>)
    5a36:	f7ff fecb 	bl	57d0 <Fill_MSCommand>
    5a3a:	4b0f      	ldr	r3, [pc, #60]	(5a78 <MS_TestUnitReady+0x54>)
    5a3c:	f44f 2100 	mov.w	r1, #524288	; 0x80000
    5a40:	6818      	ldr	r0, [r3, #0]
    5a42:	6822      	ldr	r2, [r4, #0]
    5a44:	231f      	movs	r3, #31
    5a46:	f7ff fd23 	bl	5490 <Host_ProcessTD>
    5a4a:	4603      	mov	r3, r0
    5a4c:	b980      	cbnz	r0, 5a70 <MS_TestUnitReady+0x4c>
    5a4e:	4b0b      	ldr	r3, [pc, #44]	(5a7c <MS_TestUnitReady+0x58>)
    5a50:	f44f 1180 	mov.w	r1, #1048576	; 0x100000
    5a54:	6818      	ldr	r0, [r3, #0]
    5a56:	6822      	ldr	r2, [r4, #0]
    5a58:	230d      	movs	r3, #13
    5a5a:	f7ff fd19 	bl	5490 <Host_ProcessTD>
    5a5e:	4603      	mov	r3, r0
    5a60:	b930      	cbnz	r0, 5a70 <MS_TestUnitReady+0x4c>
    5a62:	6823      	ldr	r3, [r4, #0]
    5a64:	7b1b      	ldrb	r3, [r3, #12]
    5a66:	2b00      	cmp	r3, #0
    5a68:	bf0c      	ite	eq
    5a6a:	2300      	moveq	r3, #0
    5a6c:	f06f 0309 	mvnne.w	r3, #9	; 0x9
    5a70:	4618      	mov	r0, r3
    5a72:	bd1c      	pop	{r2, r3, r4, pc}
    5a74:	10002308 	.word	0x10002308
    5a78:	100022fc 	.word	0x100022fc
    5a7c:	1000230c 	.word	0x1000230c

00005a80 <MS_GetSenseInfo>:
    5a80:	b537      	push	{r0, r1, r2, r4, r5, lr}
    5a82:	2303      	movs	r3, #3
    5a84:	2000      	movs	r0, #0
    5a86:	9300      	str	r3, [sp, #0]
    5a88:	18db      	adds	r3, r3, r3
    5a8a:	4601      	mov	r1, r0
    5a8c:	4602      	mov	r2, r0
    5a8e:	9301      	str	r3, [sp, #4]
    5a90:	337a      	adds	r3, #122
    5a92:	f7ff fe9d 	bl	57d0 <Fill_MSCommand>
    5a96:	4c13      	ldr	r4, [pc, #76]	(5ae4 <MS_GetSenseInfo+0x64>)
    5a98:	4b13      	ldr	r3, [pc, #76]	(5ae8 <MS_GetSenseInfo+0x68>)
    5a9a:	f44f 2100 	mov.w	r1, #524288	; 0x80000
    5a9e:	6818      	ldr	r0, [r3, #0]
    5aa0:	6822      	ldr	r2, [r4, #0]
    5aa2:	231f      	movs	r3, #31
    5aa4:	f7ff fcf4 	bl	5490 <Host_ProcessTD>
    5aa8:	4603      	mov	r3, r0
    5aaa:	b9c8      	cbnz	r0, 5ae0 <MS_GetSenseInfo+0x60>
    5aac:	4d0f      	ldr	r5, [pc, #60]	(5aec <MS_GetSenseInfo+0x6c>)
    5aae:	2312      	movs	r3, #18
    5ab0:	6828      	ldr	r0, [r5, #0]
    5ab2:	f44f 1180 	mov.w	r1, #1048576	; 0x100000
    5ab6:	6822      	ldr	r2, [r4, #0]
    5ab8:	f7ff fcea 	bl	5490 <Host_ProcessTD>
    5abc:	4603      	mov	r3, r0
    5abe:	b978      	cbnz	r0, 5ae0 <MS_GetSenseInfo+0x60>
    5ac0:	230d      	movs	r3, #13
    5ac2:	6828      	ldr	r0, [r5, #0]
    5ac4:	f44f 1180 	mov.w	r1, #1048576	; 0x100000
    5ac8:	6822      	ldr	r2, [r4, #0]
    5aca:	f7ff fce1 	bl	5490 <Host_ProcessTD>
    5ace:	4603      	mov	r3, r0
    5ad0:	b930      	cbnz	r0, 5ae0 <MS_GetSenseInfo+0x60>
    5ad2:	6823      	ldr	r3, [r4, #0]
    5ad4:	7b1b      	ldrb	r3, [r3, #12]
    5ad6:	2b00      	cmp	r3, #0
    5ad8:	bf0c      	ite	eq
    5ada:	2300      	moveq	r3, #0
    5adc:	f06f 0309 	mvnne.w	r3, #9	; 0x9
    5ae0:	4618      	mov	r0, r3
    5ae2:	bd3e      	pop	{r1, r2, r3, r4, r5, pc}
    5ae4:	10002308 	.word	0x10002308
    5ae8:	100022fc 	.word	0x100022fc
    5aec:	1000230c 	.word	0x1000230c

00005af0 <MS_ReadCapacity>:
    5af0:	b5f7      	push	{r0, r1, r2, r4, r5, r6, r7, lr}
    5af2:	2325      	movs	r3, #37
    5af4:	9300      	str	r3, [sp, #0]
    5af6:	4605      	mov	r5, r0
    5af8:	230a      	movs	r3, #10
    5afa:	2000      	movs	r0, #0
    5afc:	4602      	mov	r2, r0
    5afe:	9301      	str	r3, [sp, #4]
    5b00:	460e      	mov	r6, r1
    5b02:	3376      	adds	r3, #118
    5b04:	4601      	mov	r1, r0
    5b06:	f7ff fe63 	bl	57d0 <Fill_MSCommand>
    5b0a:	4c19      	ldr	r4, [pc, #100]	(5b70 <MS_ReadCapacity+0x80>)
    5b0c:	4b19      	ldr	r3, [pc, #100]	(5b74 <MS_ReadCapacity+0x84>)
    5b0e:	f44f 2100 	mov.w	r1, #524288	; 0x80000
    5b12:	6818      	ldr	r0, [r3, #0]
    5b14:	6822      	ldr	r2, [r4, #0]
    5b16:	231f      	movs	r3, #31
    5b18:	f7ff fcba 	bl	5490 <Host_ProcessTD>
    5b1c:	4603      	mov	r3, r0
    5b1e:	bb20      	cbnz	r0, 5b6a <MS_ReadCapacity+0x7a>
    5b20:	4f15      	ldr	r7, [pc, #84]	(5b78 <MS_ReadCapacity+0x88>)
    5b22:	2308      	movs	r3, #8
    5b24:	6838      	ldr	r0, [r7, #0]
    5b26:	f44f 1180 	mov.w	r1, #1048576	; 0x100000
    5b2a:	6822      	ldr	r2, [r4, #0]
    5b2c:	f7ff fcb0 	bl	5490 <Host_ProcessTD>
    5b30:	4603      	mov	r3, r0
    5b32:	b9d0      	cbnz	r0, 5b6a <MS_ReadCapacity+0x7a>
    5b34:	b11d      	cbz	r5, 5b3e <MS_ReadCapacity+0x4e>
    5b36:	6820      	ldr	r0, [r4, #0]
    5b38:	f7ff fda6 	bl	5688 <ReadBE32U>
    5b3c:	6028      	str	r0, [r5, #0]
    5b3e:	b126      	cbz	r6, 5b4a <MS_ReadCapacity+0x5a>
    5b40:	6820      	ldr	r0, [r4, #0]
    5b42:	3004      	adds	r0, #4
    5b44:	f7ff fda0 	bl	5688 <ReadBE32U>
    5b48:	6030      	str	r0, [r6, #0]
    5b4a:	230d      	movs	r3, #13
    5b4c:	6838      	ldr	r0, [r7, #0]
    5b4e:	f44f 1180 	mov.w	r1, #1048576	; 0x100000
    5b52:	6822      	ldr	r2, [r4, #0]
    5b54:	f7ff fc9c 	bl	5490 <Host_ProcessTD>
    5b58:	4603      	mov	r3, r0
    5b5a:	b930      	cbnz	r0, 5b6a <MS_ReadCapacity+0x7a>
    5b5c:	6823      	ldr	r3, [r4, #0]
    5b5e:	7b1b      	ldrb	r3, [r3, #12]
    5b60:	2b00      	cmp	r3, #0
    5b62:	bf0c      	ite	eq
    5b64:	2300      	moveq	r3, #0
    5b66:	f06f 0309 	mvnne.w	r3, #9	; 0x9
    5b6a:	4618      	mov	r0, r3
    5b6c:	bdfe      	pop	{r1, r2, r3, r4, r5, r6, r7, pc}
    5b6e:	46c0      	nop			(mov r8, r8)
    5b70:	10002308 	.word	0x10002308
    5b74:	100022fc 	.word	0x100022fc
    5b78:	1000230c 	.word	0x1000230c

00005b7c <MS_GetMaxLUN>:
    5b7c:	b507      	push	{r0, r1, r2, lr}
    5b7e:	4b06      	ldr	r3, [pc, #24]	(5b98 <MS_GetMaxLUN+0x1c>)
    5b80:	20a1      	movs	r0, #161
    5b82:	681a      	ldr	r2, [r3, #0]
    5b84:	2301      	movs	r3, #1
    5b86:	9201      	str	r2, [sp, #4]
    5b88:	2200      	movs	r2, #0
    5b8a:	9300      	str	r3, [sp, #0]
    5b8c:	21fe      	movs	r1, #254
    5b8e:	4613      	mov	r3, r2
    5b90:	f7ff fd52 	bl	5638 <Host_CtrlRecv>
    5b94:	bd0e      	pop	{r1, r2, r3, pc}
    5b96:	46c0      	nop			(mov r8, r8)
    5b98:	10002308 	.word	0x10002308

00005b9c <MS_Init>:
    5b9c:	e92d 41f0 	stmdb	sp!, {r4, r5, r6, r7, r8, lr}
    5ba0:	4606      	mov	r6, r0
    5ba2:	460f      	mov	r7, r1
    5ba4:	4690      	mov	r8, r2
    5ba6:	f7ff ffe9 	bl	5b7c <MS_GetMaxLUN>
    5baa:	2450      	movs	r4, #80
    5bac:	f7ff ff3a 	bl	5a24 <MS_TestUnitReady>
    5bb0:	4605      	mov	r5, r0
    5bb2:	b130      	cbz	r0, 5bc2 <MS_Init+0x26>
    5bb4:	f7ff ff64 	bl	5a80 <MS_GetSenseInfo>
    5bb8:	1e63      	subs	r3, r4, #1
    5bba:	b2dc      	uxtb	r4, r3
    5bbc:	2c00      	cmp	r4, #0
    5bbe:	d1f5      	bne.n	5bac <MS_Init+0x10>
    5bc0:	e00a      	b.n	5bd8 <MS_Init+0x3c>
    5bc2:	4631      	mov	r1, r6
    5bc4:	4638      	mov	r0, r7
    5bc6:	f7ff ff93 	bl	5af0 <MS_ReadCapacity>
    5bca:	6832      	ldr	r2, [r6, #0]
    5bcc:	4b04      	ldr	r3, [pc, #16]	(5be0 <MS_Init+0x44>)
    5bce:	4640      	mov	r0, r8
    5bd0:	601a      	str	r2, [r3, #0]
    5bd2:	f7ff fee1 	bl	5998 <MS_Inquire>
    5bd6:	4605      	mov	r5, r0
    5bd8:	4628      	mov	r0, r5
    5bda:	e8bd 81f0 	ldmia.w	sp!, {r4, r5, r6, r7, r8, pc}
    5bde:	46c0      	nop			(mov r8, r8)
    5be0:	10002318 	.word	0x10002318

00005be4 <MS_ParseConfiguration>:
    5be4:	e92d 41f0 	stmdb	sp!, {r4, r5, r6, r7, r8, lr}
    5be8:	4b2a      	ldr	r3, [pc, #168]	(5c94 <MS_ParseConfiguration+0xb0>)
    5bea:	681a      	ldr	r2, [r3, #0]
    5bec:	7853      	ldrb	r3, [r2, #1]
    5bee:	2b02      	cmp	r3, #2
    5bf0:	d002      	beq.n	5bf8 <MS_ParseConfiguration+0x14>
    5bf2:	f06f 000a 	mvn.w	r0, #10	; 0xa
    5bf6:	e04a      	b.n	5c8e <MS_ParseConfiguration+0xaa>
    5bf8:	7813      	ldrb	r3, [r2, #0]
    5bfa:	2700      	movs	r7, #0
    5bfc:	18d6      	adds	r6, r2, r3
    5bfe:	e039      	b.n	5c74 <MS_ParseConfiguration+0x90>
    5c00:	7873      	ldrb	r3, [r6, #1]
    5c02:	2b04      	cmp	r3, #4
    5c04:	d002      	beq.n	5c0c <MS_ParseConfiguration+0x28>
    5c06:	2b05      	cmp	r3, #5
    5c08:	d00d      	beq.n	5c26 <MS_ParseConfiguration+0x42>
    5c0a:	e031      	b.n	5c70 <MS_ParseConfiguration+0x8c>
    5c0c:	7973      	ldrb	r3, [r6, #5]
    5c0e:	2b08      	cmp	r3, #8
    5c10:	d130      	bne.n	5c74 <MS_ParseConfiguration+0x90>
    5c12:	79b3      	ldrb	r3, [r6, #6]
    5c14:	2b06      	cmp	r3, #6
    5c16:	d12d      	bne.n	5c74 <MS_ParseConfiguration+0x90>
    5c18:	79f3      	ldrb	r3, [r6, #7]
    5c1a:	2b50      	cmp	r3, #80
    5c1c:	d12a      	bne.n	5c74 <MS_ParseConfiguration+0x90>
    5c1e:	7833      	ldrb	r3, [r6, #0]
    5c20:	2701      	movs	r7, #1
    5c22:	18f6      	adds	r6, r6, r3
    5c24:	e026      	b.n	5c74 <MS_ParseConfiguration+0x90>
    5c26:	78f3      	ldrb	r3, [r6, #3]
    5c28:	f003 0303 	and.w	r3, r3, #3	; 0x3
    5c2c:	2b02      	cmp	r3, #2
    5c2e:	d11f      	bne.n	5c70 <MS_ParseConfiguration+0x8c>
    5c30:	78b3      	ldrb	r3, [r6, #2]
    5c32:	f106 0004 	add.w	r0, r6, #4	; 0x4
    5c36:	f013 0f80 	tst.w	r3, #128	; 0x80
    5c3a:	d00a      	beq.n	5c52 <MS_ParseConfiguration+0x6e>
    5c3c:	78b4      	ldrb	r4, [r6, #2]
    5c3e:	4b16      	ldr	r3, [pc, #88]	(5c98 <MS_ParseConfiguration+0xb4>)
    5c40:	f004 047f 	and.w	r4, r4, #127	; 0x7f
    5c44:	01e4      	lsls	r4, r4, #7
    5c46:	681d      	ldr	r5, [r3, #0]
    5c48:	f444 5480 	orr.w	r4, r4, #4096	; 0x1000
    5c4c:	f7ff fc8c 	bl	5568 <ReadLE16U>
    5c50:	e009      	b.n	5c66 <MS_ParseConfiguration+0x82>
    5c52:	4b12      	ldr	r3, [pc, #72]	(5c9c <MS_ParseConfiguration+0xb8>)
    5c54:	78b4      	ldrb	r4, [r6, #2]
    5c56:	681d      	ldr	r5, [r3, #0]
    5c58:	f7ff fc86 	bl	5568 <ReadLE16U>
    5c5c:	f004 047f 	and.w	r4, r4, #127	; 0x7f
    5c60:	01e4      	lsls	r4, r4, #7
    5c62:	f444 6400 	orr.w	r4, r4, #2048	; 0x800
    5c66:	f044 0401 	orr.w	r4, r4, #1	; 0x1
    5c6a:	ea44 4400 	orr.w	r4, r4, r0, lsl #16
    5c6e:	602c      	str	r4, [r5, #0]
    5c70:	7833      	ldrb	r3, [r6, #0]
    5c72:	18f6      	adds	r6, r6, r3
    5c74:	4b07      	ldr	r3, [pc, #28]	(5c94 <MS_ParseConfiguration+0xb0>)
    5c76:	681c      	ldr	r4, [r3, #0]
    5c78:	1ca0      	adds	r0, r4, #2
    5c7a:	f7ff fc75 	bl	5568 <ReadLE16U>
    5c7e:	1824      	adds	r4, r4, r0
    5c80:	42a6      	cmp	r6, r4
    5c82:	d1bd      	bne.n	5c00 <MS_ParseConfiguration+0x1c>
    5c84:	2f00      	cmp	r7, #0
    5c86:	bf0c      	ite	eq
    5c88:	f06f 000b 	mvneq.w	r0, #11	; 0xb
    5c8c:	2000      	movne	r0, #0
    5c8e:	e8bd 81f0 	ldmia.w	sp!, {r4, r5, r6, r7, r8, pc}
    5c92:	46c0      	nop			(mov r8, r8)
    5c94:	10002308 	.word	0x10002308
    5c98:	1000230c 	.word	0x1000230c
    5c9c:	100022fc 	.word	0x100022fc

00005ca0 <memcpy>:
    5ca0:	2a0f      	cmp	r2, #15
    5ca2:	4684      	mov	ip, r0
    5ca4:	b510      	push	{r4, lr}
    5ca6:	4604      	mov	r4, r0
    5ca8:	4696      	mov	lr, r2
    5caa:	4608      	mov	r0, r1
    5cac:	4611      	mov	r1, r2
    5cae:	d904      	bls.n	5cba <memcpy+0x1a>
    5cb0:	ea40 030c 	orr.w	r3, r0, ip
    5cb4:	f013 0f03 	tst.w	r3, #3	; 0x3
    5cb8:	d009      	beq.n	5cce <memcpy+0x2e>
    5cba:	b131      	cbz	r1, 5cca <memcpy+0x2a>
    5cbc:	2200      	movs	r2, #0
    5cbe:	f810 3b01 	ldrb.w	r3, [r0], #1
    5cc2:	5513      	strb	r3, [r2, r4]
    5cc4:	3201      	adds	r2, #1
    5cc6:	428a      	cmp	r2, r1
    5cc8:	d1f9      	bne.n	5cbe <memcpy+0x1e>
    5cca:	4660      	mov	r0, ip
    5ccc:	bd10      	pop	{r4, pc}
    5cce:	6803      	ldr	r3, [r0, #0]
    5cd0:	f1ae 0110 	sub.w	r1, lr, #16	; 0x10
    5cd4:	468e      	mov	lr, r1
    5cd6:	6023      	str	r3, [r4, #0]
    5cd8:	6842      	ldr	r2, [r0, #4]
    5cda:	6062      	str	r2, [r4, #4]
    5cdc:	6883      	ldr	r3, [r0, #8]
    5cde:	60a3      	str	r3, [r4, #8]
    5ce0:	68c2      	ldr	r2, [r0, #12]
    5ce2:	3010      	adds	r0, #16
    5ce4:	60e2      	str	r2, [r4, #12]
    5ce6:	3410      	adds	r4, #16
    5ce8:	290f      	cmp	r1, #15
    5cea:	d8f0      	bhi.n	5cce <memcpy+0x2e>
    5cec:	e004      	b.n	5cf8 <memcpy+0x58>
    5cee:	f850 3b04 	ldr.w	r3, [r0], #4
    5cf2:	3904      	subs	r1, #4
    5cf4:	f844 3b04 	str.w	r3, [r4], #4
    5cf8:	2903      	cmp	r1, #3
    5cfa:	d8f8      	bhi.n	5cee <memcpy+0x4e>
    5cfc:	e7dd      	b.n	5cba <memcpy+0x1a>
    5cfe:	46c0      	nop			(mov r8, r8)
    5d00:	6548      	str	r0, [r1, #84]
    5d02:	6c6c      	ldr	r4, [r5, #68]
    5d04:	206f      	movs	r0, #111
    5d06:	7266      	strb	r6, [r4, #9]
    5d08:	6d6f      	ldr	r7, [r5, #84]
    5d0a:	7420      	strb	r0, [r4, #16]
    5d0c:	6568      	str	r0, [r5, #84]
    5d0e:	4320      	orrs	r0, r4
    5d10:	6168      	str	r0, [r5, #20]
    5d12:	204e      	movs	r0, #78
    5d14:	6146      	str	r6, [r0, #20]
    5d16:	4674      	mov	r4, lr
    5d18:	2073      	movs	r0, #115
    5d1a:	6544      	str	r4, [r0, #84]
    5d1c:	6f6d      	ldr	r5, [r5, #116]
    5d1e:	6f20      	ldr	r0, [r4, #112]
    5d20:	206e      	movs	r0, #110
    5d22:	504c      	str	r4, [r1, r1]
    5d24:	3143      	adds	r1, #67
    5d26:	3037      	adds	r0, #55
    5d28:	0d30      	lsrs	r0, r6, #20
    5d2a:	000a      	lsls	r2, r1, #0
    5d2c:	6556      	str	r6, [r2, #84]
    5d2e:	7372      	strb	r2, [r6, #13]
    5d30:	6f69      	ldr	r1, [r5, #116]
    5d32:	206e      	movs	r0, #110
    5d34:	2e30      	cmp	r6, #48
    5d36:	2e30      	cmp	r6, #48
    5d38:	2c32      	cmp	r4, #50
    5d3a:	4d20      	ldr	r5, [pc, #128]	(5dbc <C.18.3238+0x34>)
    5d3c:	7261      	strb	r1, [r4, #9]
    5d3e:	6974      	ldr	r4, [r6, #20]
    5d40:	206e      	movs	r0, #110
    5d42:	6854      	ldr	r4, [r2, #4]
    5d44:	6d6f      	ldr	r7, [r5, #84]
    5d46:	7361      	strb	r1, [r4, #13]
    5d48:	3720      	adds	r7, #32
    5d4a:	322f      	adds	r2, #47
    5d4c:	3130      	adds	r1, #48
    5d4e:	0d30      	lsrs	r0, r6, #20
    5d50:	000a      	lsls	r2, r1, #0
    5d52:	7078      	strb	r0, [r7, #1]
    5d54:	6972      	ldr	r2, [r6, #20]
    5d56:	746e      	strb	r6, [r5, #17]
    5d58:	2066      	movs	r0, #102
    5d5a:	7369      	strb	r1, [r5, #13]
    5d5c:	7720      	strb	r0, [r4, #28]
    5d5e:	726f      	strb	r7, [r5, #9]
    5d60:	696b      	ldr	r3, [r5, #20]
    5d62:	676e      	str	r6, [r5, #116]
    5d64:	000a      	lsls	r2, r1, #0
	...

00005d68 <C.16.3368>:
    5d68:	0000 0000 0037 0000 000b 0000 000f 0000     ....7...........
	...
    5d80:	0007 0000 07da 0000                         ........

00005d88 <C.18.3238>:
    5d88:	0000 3025 6c38 2058 2000 3025 5832 4f00     ..%08lX . %02X.O
    5d98:	004b 4944 4b53 455f 5252 4900 544e 455f     K.DISK_ERR.INT_E
    5da8:	5252 4e00 544f 525f 4145 5944 4e00 5f4f     RR.NOT_READY.NO_
    5db8:	4946 454c 4e00 5f4f 4150 4854 4900 564e     FILE.NO_PATH.INV
    5dc8:	4c41 4449 4e5f 4d41 0045 4544 494e 4445     ALID_NAME.DENIED
    5dd8:	4500 4958 5453 4900 564e 4c41 4449 4f5f     .EXIST.INVALID_O
    5de8:	4a42 4345 0054 5257 5449 5f45 5250 544f     BJECT.WRITE_PROT
    5df8:	4345 4554 0044 4e49 4156 494c 5f44 5244     ECTED.INVALID_DR
    5e08:	5649 0045 4f4e 5f54 4e45 4241 454c 0044     IVE.NOT_ENABLED.
    5e18:	4f4e 465f 4c49 5f45 5953 5453 4d45 4d00     NO_FILE_SYSTEM.M
    5e28:	464b 5f53 4241 524f 4554 0044 4954 454d     KFS_ABORTED.TIME
    5e38:	554f 0054 4f4c 4b43 4445 4e00 544f 455f     OUT.LOCKED.NOT_E
    5e48:	4f4e 4755 5f48 4f43 4552 5400 4f4f 4d5f     NOUGH_CORE.TOO_M
    5e58:	4e41 5f59 504f 4e45 465f 4c49 5345 0000     ANY_OPEN_FILES..
    5e68:	6372 253d 2075 5246 255f 0a73 0a00 6146     rc=%u FR_%s...Fa
    5e78:	4674 2073 6f6d 7564 656c 7420 7365 2074     tFs module test 
    5e88:	6f6d 696e 6f74 2072 6f66 2072 504c 3143     monitor for LPC1
    5e98:	7837 2f78 5353 0a50 4c00 4e46 4520 616e     7xx/SSP..LFN Ena
    5ea8:	6c62 6465 2c00 4320 646f 2065 6170 6567     bled., Code page
    5eb8:	203a 7525 000a 646d 3c20 6461 7264 7365     : %u..md <addres
    5ec8:	3e73 5b20 6c3c 6e65 5d3e 2d20 4420 6d75     s> [<len>] - Dum
    5ed8:	2070 7973 7473 6d65 6d20 6d65 726f 0a79     p system memory.
    5ee8:	640a 2064 3c5b 626c 3e61 205d 202d 7544     .dd [<lba>] - Du
    5ef8:	706d 7320 6365 6f74 0a72 6964 5b20 643c     mp sector.di [<d
    5f08:	6972 6576 5d3e 2d20 4920 696e 6974 6c61     rive>] - Initial
    5f18:	7a69 2065 6964 6b73 640a 2073 3c5b 7264     ize disk.ds [<dr
    5f28:	7669 3e65 205d 202d 6853 776f 6420 7369     ive>] - Show dis
    5f38:	206b 7473 7461 7375 0a0a 6462 3c20 666f     k status..bd <of
    5f48:	3e73 2d20 4420 6d75 2070 6f77 6b72 6e69     s> - Dump workin
    5f58:	2067 7562 6666 7265 620a 2065 6f3c 7366     g buffer.be <ofs
    5f68:	203e 3c5b 6164 6174 5d3e 2e20 2e2e 2d20     > [<data>] ... -
    5f78:	4520 6964 2074 6f77 6b72 6e69 2067 7562      Edit working bu
    5f88:	6666 7265 620a 2072 6c3c 6162 203e 3c5b     ffer.br <lba> [<
    5f98:	756e 3e6d 205d 202d 6552 6461 6420 7369     num>] - Read dis
    5fa8:	206b 6e69 6f74 7720 726f 696b 676e 6220     k into working b
    5fb8:	6675 6566 0a72 7762 3c20 626c 3e61 5b20     uffer.bw <lba> [
    5fc8:	6e3c 6d75 5d3e 2d20 5720 6972 6574 7720     <num>] - Write w
    5fd8:	726f 696b 676e 6220 6675 6566 2072 6e69     orking buffer in
    5fe8:	6f74 6420 7369 0a6b 6662 3c20 6176 3e6c     to disk.bf <val>
    5ff8:	2d20 4620 6c69 206c 6f77 6b72 6e69 2067      - Fill working 
    6008:	7562 6666 7265 0a0a 6966 2d20 4620 726f     buffer..fi - For
    6018:	6563 6920 696e 6974 6c61 7a69 6465 7420     ce initialized t
    6028:	6568 7620 6c6f 6d75 0a65 7366 2d20 5320     he volume.fs - S
    6038:	6f68 2077 6f76 756c 656d 7320 6174 7574     how volume statu
    6048:	0a73 6c66 5b20 703c 7461 3e68 205d 202d     s.fl [<path>] - 
    6058:	6853 776f 6120 6420 7269 6365 6f74 7972     Show a directory
    6068:	660a 206f 6d3c 646f 3e65 3c20 6966 656c     .fo <mode> <file
    6078:	203e 202d 704f 6e65 6120 6620 6c69 0a65     > - Open a file.
    6088:	6366 2d20 4320 6f6c 6573 7420 6568 6620     fc - Close the f
    6098:	6c69 0a65 6566 3c20 666f 3e73 2d20 4d20     ile.fe <ofs> - M
    60a8:	766f 2065 7066 660a 2064 6c3c 6e65 203e     ove fp.fd <len> 
    60b8:	202d 6552 6461 6120 646e 6420 6d75 2070     - Read and dump 
    60c8:	6874 2065 6966 656c 660a 2072 6c3c 6e65     the file.fr <len
    60d8:	203e 202d 6552 6461 7420 6568 6620 6c69     > - Read the fil
    60e8:	0a65 7766 3c20 656c 3e6e 3c20 6176 3e6c     e.fw <len> <val>
    60f8:	2d20 5720 6972 6574 7420 206f 6874 2065      - Write to the 
    6108:	6966 656c 660a 206e 6f3c 6a62 6365 2074     file.fn <object 
    6118:	616e 656d 203e 6e3c 7765 6e20 6d61 3e65     name> <new name>
    6128:	2d20 5220 6e65 6d61 2065 6e61 6f20 6a62      - Rename an obj
    6138:	6365 0a74 7566 3c20 626f 656a 7463 6e20     ect.fu <object n
    6148:	6d61 3e65 2d20 5520 6c6e 6e69 206b 6e61     ame> - Unlink an
    6158:	6f20 6a62 6365 0a74 7666 2d20 5420 7572      object.fv - Tru
    6168:	636e 7461 2065 6874 2065 6966 656c 6120     ncate the file a
    6178:	2074 7563 7272 6e65 2074 7066 660a 206b     t current fp.fk 
    6188:	643c 7269 6e20 6d61 3e65 2d20 4320 6572     <dir name> - Cre
    6198:	7461 2065 2061 6964 6572 7463 726f 0a79     ate a directory.
    61a8:	6166 3c20 7461 7272 203e 6d3c 7361 3e6b     fa <atrr> <mask>
    61b8:	3c20 626f 656a 7463 6e20 6d61 3e65 2d20      <object name> -
    61c8:	4320 6168 676e 2065 626f 656a 7463 6120      Change object a
    61d8:	7474 6972 7562 6574 660a 2074 793c 6165     ttribute.ft <yea
    61e8:	3e72 3c20 6f6d 746e 3e68 3c20 6164 3e79     r> <month> <day>
    61f8:	3c20 6f68 7275 203e 6d3c 6e69 203e 733c      <hour> <min> <s
    6208:	6365 203e 6f3c 6a62 6365 2074 616e 656d     ec> <object name
    6218:	203e 202d 6843 6e61 6567 7420 6d69 7365     > - Change times
    6228:	6174 706d 6f20 2066 6e61 6f20 6a62 6365     tamp of an objec
    6238:	0a74 7866 3c20 7273 2063 6966 656c 203e     t.fx <src file> 
    6248:	643c 7473 6620 6c69 3e65 2d20 4320 706f     <dst file> - Cop
    6258:	2079 2061 6966 656c 660a 2067 703c 7461     y a file.fg <pat
    6268:	3e68 2d20 4320 6168 676e 2065 7563 7272     h> - Change curr
    6278:	6e65 2074 6964 6572 7463 726f 0a79 6d66     ent directory.fm
    6288:	3c20 7572 656c 203e 633c 756c 7473 7265      <rule> <cluster
    6298:	7320 7a69 3e65 2d20 4320 6572 7461 2065      size> - Create 
    62a8:	6966 656c 7320 7379 6574 0a6d 7a66 5b20     file system.fz [
    62b8:	6c3c 6e65 5d3e 2d20 4320 6168 676e 2065     <len>] - Change 
    62c8:	2f52 2057 6c62 636f 206b 656c 676e 6874     R/W block length
    62d8:	6620 726f 6620 2f72 7766 662f 2078 6f63      for fr/fw/fx co
    62e8:	6d6d 6e61 0a64 000a 6372 253d 0a64 5300     mmand...rc=%d..S
    62f8:	6365 6f74 3a72 6c25 0a75 4400 6972 6576     ector:%lu..Drive
    6308:	7320 7a69 3a65 2520 756c 7320 6365 6f74      size: %lu secto
    6318:	7372 000a 6553 7463 726f 7320 7a69 3a65     rs..Sector size:
    6328:	2520 0a75 4500 6172 6573 6220 6f6c 6b63      %u..Erase block
    6338:	7320 7a69 3a65 2520 756c 7320 6365 6f74      size: %lu secto
    6348:	7372 000a 4d4d 2f43 4453 2043 7974 6570     rs..MMC/SDC type
    6358:	203a 7525 000a 5343 3a44 000a 4943 3a44     : %u..CSD:..CID:
    6368:	000a 434f 3a52 000a 4453 5320 6174 7574     ..OCR:..SD Statu
    6378:	3a73 000a 3025 5834 2520 3230 2d58 3f00     s:..%04X %02X-.?
    6388:	3f3f 000a 6372 253d 0a75 4600 5441 7420     ??..rc=%u..FAT t
    6398:	7079 2065 203d 4146 2554 0a75 7942 6574     ype = FAT%u.Byte
    63a8:	2f73 6c43 7375 6574 2072 203d 6c25 0a75     s/Cluster = %lu.
    63b8:	754e 626d 7265 6f20 2066 4146 7354 3d20     Number of FATs =
    63c8:	2520 0a75 6f52 746f 4420 5249 6520 746e      %u.Root DIR ent
    63d8:	6972 7365 3d20 2520 0a75 6553 7463 726f     ries = %u.Sector
    63e8:	2f73 4146 2054 203d 6c25 0a75 754e 626d     s/FAT = %lu.Numb
    63f8:	7265 6f20 2066 6c63 7375 6574 7372 3d20     er of clusters =
    6408:	2520 756c 460a 5441 7320 6174 7472 2820      %lu.FAT start (
    6418:	626c 2961 3d20 2520 756c 440a 5249 7320     lba) = %lu.DIR s
    6428:	6174 7472 2820 626c 2c61 6c63 7375 6f74     tart (lba,clusto
    6438:	2972 3d20 2520 756c 440a 7461 2061 7473     r) = %lu.Data st
    6448:	7261 2074 6c28 6162 2029 203d 6c25 0a75     art (lba) = %lu.
    6458:	2e0a 2e2e 0d00 7525 6620 6c69 7365 202c     ......%u files, 
    6468:	6c25 2075 7962 6574 2e73 250a 2075 6f66     %lu bytes..%u fo
    6478:	646c 7265 2e73 250a 756c 4b20 2042 6f74     lders..%lu KB to
    6488:	6174 206c 6964 6b73 7320 6170 6563 0a2e     tal disk space..
    6498:	6c25 2075 424b 6120 6176 6c69 6261 656c     %lu KB available
    64a8:	0a2e 2500 2563 2563 2563 2563 2063 7525     ...%c%c%c%c%c %u
    64b8:	252f 3230 2f75 3025 7532 2520 3230 3a75     /%02u/%02u %02u:
    64c8:	3025 7532 2520 6c39 2075 2520 0073 3425     %02u %9lu  %s.%4
    64d8:	2075 6946 656c 7328 2c29 3125 6c30 2075     u File(s),%10lu 
    64e8:	7962 6574 2073 6f74 6174 0a6c 3425 2075     bytes total.%4u 
    64f8:	6944 2872 2973 2c00 2520 3031 756c 6220     Dir(s)., %10lu b
    6508:	7479 7365 6620 6572 0a65 6600 7470 3d72     ytes free..fptr=
    6518:	6c25 2875 7830 6c25 2958 000a 6c25 2075     %lu(0x%lX)..%lu 
    6528:	7962 6574 2073 6572 6461 7720 7469 2068     bytes read with 
    6538:	6c25 2075 426b 732f 6365 0a2e 2500 756c     %lu kB/sec...%lu
    6548:	6220 7479 7365 7720 6972 7474 6e65 7720      bytes written w
    6558:	7469 2068 6c25 2075 426b 732f 6365 0a2e     ith %lu kB/sec..
    6568:	4f00 6570 696e 676e 2220 7325 0022 7243     .Opening "%s".Cr
    6578:	6165 6974 676e 2220 7325 0022 6f43 7970     eating "%s".Copy
    6588:	6e69 2067 6966 656c 2e2e 002e 6c25 2075     ing file....%lu 
    6598:	7962 6574 2073 6f63 6970 6465 7720 7469     bytes copied wit
    65a8:	2068 6c25 2075 426b 732f 6365 0a2e 5400     h %lu kB/sec...T
    65b8:	6568 6320 7261 2064 6977 6c6c 6220 2065     he card will be 
    65c8:	6f66 6d72 7461 6574 2e64 4120 6572 7920     formatted. Are y
    65d8:	756f 7320 7275 3f65 2820 2f59 296e 003d     ou sure? (Y/n)=.
    65e8:	6c62 6e65 253d 0a75 2500 2f75 7525 252f     blen=%u..%u/%u/%
    65f8:	2075 3025 7532 253a 3230 3a75 3025 7532     u %02u:%02u:%02u
    6608:	000a                                        ..

0000660a <ft.3244>:
    660a:	0c00 2010                                   ... 

0000660e <cst.4013>:
    660e:	8000 4000 2000 1000 0800 4000 2000 1000     ...@. .....@. ..
    661e:	0800 0400 0200                              ......

00006624 <excvt.2606>:
    6624:	8180 8382 8584 8786 8988 8b8a 8d8c 8f8e     ................
    6634:	9190 9392 9594 9796 9998 9bad 9d8c 9fae     ................
    6644:	21a0 a3a2 a5a4 a7a6 a9a8 abaa adac afae     .!..............
    6654:	b1b0 b3b2 b5b4 b7b6 b9b8 bbba bdbc bfbe     ................
    6664:	c1c0 c3c2 c5c4 c7c6 c9c8 cbca cdcc cfce     ................
    6674:	d1d0 d3d2 d5d4 d7d6 d9d8 dbda dddc dfde     ................
    6684:	c1c0 c3c2 c5c4 c7c6 c9c8 cbca cdcc cfce     ................
    6694:	d1d0 d3d2 d5d4 f7d6 d9d8 dbda dddc 9fde     ................
    66a4:	4f4e 4e20 4d41 2045 2020 4620 5441 3233     NO NAME    FAT32
    66b4:	2020 0020 4f4e 4e20 4d41 2045 2020 4620        .NO NAME    F
    66c4:	5441 2020 2020 0020 2a22 3c3a 3f3e 7f7c     AT     ."*:<>?|.
    66d4:	2b00 3b2c 5b3d 005d                         .+,;=[].

000066dc <LfnOfs>:
    66dc:	0301 0705 0e09 1210 1614 1c18 001e          ..............

000066ea <vst.4012>:
    66ea:	0400 0200 0100 0080 0040 0020 0010 0008     ........@. .....
    66fa:	0004 0002 0000                              ......

00006700 <Tbl>:
    6700:	20ac 0000 201a 0192 201e 2026 2020 2021     . ... ... &   ! 
    6710:	02c6 2030 0160 2039 0152 0000 017d 0000     ..0 `.9 R...}...
    6720:	0000 2018 2019 201c 201d 2022 2013 2014     ... . . . " . . 
    6730:	02dc 2122 0161 203a 0153 0000 017e 0178     .."!a.: S...~.x.
    6740:	00a0 00a1 00a2 00a3 00a4 00a5 00a6 00a7     ................
    6750:	00a8 00a9 00aa 00ab 00ac 00ad 00ae 00af     ................
    6760:	00b0 00b1 00b2 00b3 00b4 00b5 00b6 00b7     ................
    6770:	00b8 00b9 00ba 00bb 00bc 00bd 00be 00bf     ................
    6780:	00c0 00c1 00c2 00c3 00c4 00c5 00c6 00c7     ................
    6790:	00c8 00c9 00ca 00cb 00cc 00cd 00ce 00cf     ................
    67a0:	00d0 00d1 00d2 00d3 00d4 00d5 00d6 00d7     ................
    67b0:	00d8 00d9 00da 00db 00dc 00dd 00de 00df     ................
    67c0:	00e0 00e1 00e2 00e3 00e4 00e5 00e6 00e7     ................
    67d0:	00e8 00e9 00ea 00eb 00ec 00ed 00ee 00ef     ................
    67e0:	00f0 00f1 00f2 00f3 00f4 00f5 00f6 00f7     ................
    67f0:	00f8 00f9 00fa 00fb 00fc 00fd 00fe 00ff     ................

00006800 <tbl_lower.1890>:
    6800:	0061 0062 0063 0064 0065 0066 0067 0068     a.b.c.d.e.f.g.h.
    6810:	0069 006a 006b 006c 006d 006e 006f 0070     i.j.k.l.m.n.o.p.
    6820:	0071 0072 0073 0074 0075 0076 0077 0078     q.r.s.t.u.v.w.x.
    6830:	0079 007a 00a1 00a2 00a3 00a5 00ac 00af     y.z.............
    6840:	00e0 00e1 00e2 00e3 00e4 00e5 00e6 00e7     ................
    6850:	00e8 00e9 00ea 00eb 00ec 00ed 00ee 00ef     ................
    6860:	00f0 00f1 00f2 00f3 00f4 00f5 00f6 00f8     ................
    6870:	00f9 00fa 00fb 00fc 00fd 00fe 00ff 0101     ................
    6880:	0103 0105 0107 0109 010b 010d 010f 0111     ................
    6890:	0113 0115 0117 0119 011b 011d 011f 0121     ..............!.
    68a0:	0123 0125 0127 0129 012b 012d 012f 0131     #.%.'.).+.-./.1.
    68b0:	0133 0135 0137 013a 013c 013e 0140 0142     3.5.7.:.<.>.@.B.
    68c0:	0144 0146 0148 014b 014d 014f 0151 0153     D.F.H.K.M.O.Q.S.
    68d0:	0155 0157 0159 015b 015d 015f 0161 0163     U.W.Y.[.]._.a.c.
    68e0:	0165 0167 0169 016b 016d 016f 0171 0173     e.g.i.k.m.o.q.s.
    68f0:	0175 0177 017a 017c 017e 0192 03b1 03b2     u.w.z.|.~.......
    6900:	03b3 03b4 03b5 03b6 03b7 03b8 03b9 03ba     ................
    6910:	03bb 03bc 03bd 03be 03bf 03c0 03c1 03c3     ................
    6920:	03c4 03c5 03c6 03c7 03c8 03c9 03ca 0430     ..............0.
    6930:	0431 0432 0433 0434 0435 0436 0437 0438     1.2.3.4.5.6.7.8.
    6940:	0439 043a 043b 043c 043d 043e 043f 0440     9.:.;.<.=.>.?.@.
    6950:	0441 0442 0443 0444 0445 0446 0447 0448     A.B.C.D.E.F.G.H.
    6960:	0449 044a 044b 044c 044d 044e 044f 0451     I.J.K.L.M.N.O.Q.
    6970:	0452 0453 0454 0455 0456 0457 0458 0459     R.S.T.U.V.W.X.Y.
    6980:	045a 045b 045c 045e 045f 2170 2171 2172     Z.[.\.^._.p!q!r!
    6990:	2173 2174 2175 2176 2177 2178 2179 217a     s!t!u!v!w!x!y!z!
    69a0:	217b 217c 217d 217e 217f ff41 ff42 ff43     {!|!}!~!.!A.B.C.
    69b0:	ff44 ff45 ff46 ff47 ff48 ff49 ff4a ff4b     D.E.F.G.H.I.J.K.
    69c0:	ff4c ff4d ff4e ff4f ff50 ff51 ff52 ff53     L.M.N.O.P.Q.R.S.
    69d0:	ff54 ff55 ff56 ff57 ff58 ff59 ff5a 0000     T.U.V.W.X.Y.Z...

000069e0 <tbl_upper.1891>:
    69e0:	0041 0042 0043 0044 0045 0046 0047 0048     A.B.C.D.E.F.G.H.
    69f0:	0049 004a 004b 004c 004d 004e 004f 0050     I.J.K.L.M.N.O.P.
    6a00:	0051 0052 0053 0054 0055 0056 0057 0058     Q.R.S.T.U.V.W.X.
    6a10:	0059 005a 0021 ffe0 ffe1 ffe5 ffe2 ffe3     Y.Z.!...........
    6a20:	00c0 00c1 00c2 00c3 00c4 00c5 00c6 00c7     ................
    6a30:	00c8 00c9 00ca 00cb 00cc 00cd 00ce 00cf     ................
    6a40:	00d0 00d1 00d2 00d3 00d4 00d5 00d6 00d8     ................
    6a50:	00d9 00da 00db 00dc 00dd 00de 0178 0100     ............x...
    6a60:	0102 0104 0106 0108 010a 010c 010e 0110     ................
    6a70:	0112 0114 0116 0118 011a 011c 011e 0120     .............. .
    6a80:	0122 0124 0126 0128 012a 012c 012e 0130     ".$.&.(.*.,...0.
    6a90:	0132 0134 0136 0139 013b 013d 013f 0141     2.4.6.9.;.=.?.A.
    6aa0:	0143 0145 0147 014a 014c 014e 0150 0152     C.E.G.J.L.N.P.R.
    6ab0:	0154 0156 0158 015a 015c 015e 0160 0162     T.V.X.Z.\.^.`.b.
    6ac0:	0164 0166 0168 016a 016c 016e 0170 0172     d.f.h.j.l.n.p.r.
    6ad0:	0174 0176 0179 017b 017d 0191 0391 0392     t.v.y.{.}.......
    6ae0:	0393 0394 0395 0396 0397 0398 0399 039a     ................
    6af0:	039b 039c 039d 039e 039f 03a0 03a1 03a3     ................
    6b00:	03a4 03a5 03a6 03a7 03a8 03a9 03aa 0410     ................
    6b10:	0411 0412 0413 0414 0415 0416 0417 0418     ................
    6b20:	0419 041a 041b 041c 041d 041e 041f 0420     .............. .
    6b30:	0421 0422 0423 0424 0425 0426 0427 0428     !.".#.$.%.&.'.(.
    6b40:	0429 042a 042b 042c 042d 042e 042f 0401     ).*.+.,.-.../...
    6b50:	0402 0403 0404 0405 0406 0407 0408 0409     ................
    6b60:	040a 040b 040c 040e 040f 2160 2161 2162     ..........`!a!b!
    6b70:	2163 2164 2165 2166 2167 2168 2169 216a     c!d!e!f!g!h!i!j!
    6b80:	216b 216c 216d 216e 216f ff21 ff22 ff23     k!l!m!n!o!!.".#.
    6b90:	ff24 ff25 ff26 ff27 ff28 ff29 ff2a ff2b     $.%.&.'.(.).*.+.
    6ba0:	ff2c ff2d ff2e ff2f ff30 ff31 ff32 ff33     ,.-.../.0.1.2.3.
    6bb0:	ff34 ff35 ff36 ff37 ff38 ff39 ff3a 0000     4.5.6.7.8.9.:...

00006bc0 <__cs3_regions>:
    6bc0:	00000000 	.word	0x00000000
    6bc4:	00006be0 	.word	0x00006be0
    6bc8:	10000000 	.word	0x10000000
    6bcc:	00000010 	.word	0x00000010
    6bd0:	00002310 	.word	0x00002310
